
a.o:     формат файла elf64-x86-64

Разделы:
Инд Имя           Размер    VMA               LMA               Файл      Вырав
  0 .group        00000008  0000000000000000  0000000000000000  00000040  2**2
                  CONTENTS, READONLY, EXCLUDE, GROUP, LINK_ONCE_DISCARD
  1 .group        00000008  0000000000000000  0000000000000000  00000048  2**2
                  CONTENTS, READONLY, EXCLUDE, GROUP, LINK_ONCE_DISCARD
  2 .group        00000008  0000000000000000  0000000000000000  00000050  2**2
                  CONTENTS, READONLY, EXCLUDE, GROUP, LINK_ONCE_DISCARD
  3 .group        00000008  0000000000000000  0000000000000000  00000058  2**2
                  CONTENTS, READONLY, EXCLUDE, GROUP, LINK_ONCE_DISCARD
  4 .group        00000008  0000000000000000  0000000000000000  00000060  2**2
                  CONTENTS, READONLY, EXCLUDE, GROUP, LINK_ONCE_DISCARD
  5 .group        00000008  0000000000000000  0000000000000000  00000068  2**2
                  CONTENTS, READONLY, EXCLUDE, GROUP, LINK_ONCE_DISCARD
  6 .group        00000008  0000000000000000  0000000000000000  00000070  2**2
                  CONTENTS, READONLY, EXCLUDE, GROUP, LINK_ONCE_DISCARD
  7 .group        00000008  0000000000000000  0000000000000000  00000078  2**2
                  CONTENTS, READONLY, EXCLUDE, GROUP, LINK_ONCE_DISCARD
  8 .group        00000008  0000000000000000  0000000000000000  00000080  2**2
                  CONTENTS, READONLY, EXCLUDE, GROUP, LINK_ONCE_DISCARD
  9 .group        00000008  0000000000000000  0000000000000000  00000088  2**2
                  CONTENTS, READONLY, EXCLUDE, GROUP, LINK_ONCE_DISCARD
 10 .group        00000008  0000000000000000  0000000000000000  00000090  2**2
                  CONTENTS, READONLY, EXCLUDE, GROUP, LINK_ONCE_DISCARD
 11 .group        00000008  0000000000000000  0000000000000000  00000098  2**2
                  CONTENTS, READONLY, EXCLUDE, GROUP, LINK_ONCE_DISCARD
 12 .group        00000008  0000000000000000  0000000000000000  000000a0  2**2
                  CONTENTS, READONLY, EXCLUDE, GROUP, LINK_ONCE_DISCARD
 13 .group        00000008  0000000000000000  0000000000000000  000000a8  2**2
                  CONTENTS, READONLY, EXCLUDE, GROUP, LINK_ONCE_DISCARD
 14 .group        00000008  0000000000000000  0000000000000000  000000b0  2**2
                  CONTENTS, READONLY, EXCLUDE, GROUP, LINK_ONCE_DISCARD
 15 .group        00000008  0000000000000000  0000000000000000  000000b8  2**2
                  CONTENTS, READONLY, EXCLUDE, GROUP, LINK_ONCE_DISCARD
 16 .group        00000008  0000000000000000  0000000000000000  000000c0  2**2
                  CONTENTS, READONLY, EXCLUDE, GROUP, LINK_ONCE_DISCARD
 17 .group        00000008  0000000000000000  0000000000000000  000000c8  2**2
                  CONTENTS, READONLY, EXCLUDE, GROUP, LINK_ONCE_DISCARD
 18 .group        00000008  0000000000000000  0000000000000000  000000d0  2**2
                  CONTENTS, READONLY, EXCLUDE, GROUP, LINK_ONCE_DISCARD
 19 .group        00000008  0000000000000000  0000000000000000  000000d8  2**2
                  CONTENTS, READONLY, EXCLUDE, GROUP, LINK_ONCE_DISCARD
 20 .group        00000008  0000000000000000  0000000000000000  000000e0  2**2
                  CONTENTS, READONLY, EXCLUDE, GROUP, LINK_ONCE_DISCARD
 21 .group        00000008  0000000000000000  0000000000000000  000000e8  2**2
                  CONTENTS, READONLY, EXCLUDE, GROUP, LINK_ONCE_DISCARD
 22 .group        00000008  0000000000000000  0000000000000000  000000f0  2**2
                  CONTENTS, READONLY, EXCLUDE, GROUP, LINK_ONCE_DISCARD
 23 .group        00000008  0000000000000000  0000000000000000  000000f8  2**2
                  CONTENTS, READONLY, EXCLUDE, GROUP, LINK_ONCE_DISCARD
 24 .group        00000008  0000000000000000  0000000000000000  00000100  2**2
                  CONTENTS, READONLY, EXCLUDE, GROUP, LINK_ONCE_DISCARD
 25 .group        00000008  0000000000000000  0000000000000000  00000108  2**2
                  CONTENTS, READONLY, EXCLUDE, GROUP, LINK_ONCE_DISCARD
 26 .group        00000008  0000000000000000  0000000000000000  00000110  2**2
                  CONTENTS, READONLY, EXCLUDE, GROUP, LINK_ONCE_DISCARD
 27 .group        00000008  0000000000000000  0000000000000000  00000118  2**2
                  CONTENTS, READONLY, EXCLUDE, GROUP, LINK_ONCE_DISCARD
 28 .group        00000008  0000000000000000  0000000000000000  00000120  2**2
                  CONTENTS, READONLY, EXCLUDE, GROUP, LINK_ONCE_DISCARD
 29 .group        00000008  0000000000000000  0000000000000000  00000128  2**2
                  CONTENTS, READONLY, EXCLUDE, GROUP, LINK_ONCE_DISCARD
 30 .group        00000008  0000000000000000  0000000000000000  00000130  2**2
                  CONTENTS, READONLY, EXCLUDE, GROUP, LINK_ONCE_DISCARD
 31 .group        00000008  0000000000000000  0000000000000000  00000138  2**2
                  CONTENTS, READONLY, EXCLUDE, GROUP, LINK_ONCE_DISCARD
 32 .group        00000008  0000000000000000  0000000000000000  00000140  2**2
                  CONTENTS, READONLY, EXCLUDE, GROUP, LINK_ONCE_DISCARD
 33 .group        00000008  0000000000000000  0000000000000000  00000148  2**2
                  CONTENTS, READONLY, EXCLUDE, GROUP, LINK_ONCE_DISCARD
 34 .group        00000008  0000000000000000  0000000000000000  00000150  2**2
                  CONTENTS, READONLY, EXCLUDE, GROUP, LINK_ONCE_DISCARD
 35 .group        00000008  0000000000000000  0000000000000000  00000158  2**2
                  CONTENTS, READONLY, EXCLUDE, GROUP, LINK_ONCE_DISCARD
 36 .group        00000008  0000000000000000  0000000000000000  00000160  2**2
                  CONTENTS, READONLY, EXCLUDE, GROUP, LINK_ONCE_DISCARD
 37 .group        00000008  0000000000000000  0000000000000000  00000168  2**2
                  CONTENTS, READONLY, EXCLUDE, GROUP, LINK_ONCE_DISCARD
 38 .group        00000008  0000000000000000  0000000000000000  00000170  2**2
                  CONTENTS, READONLY, EXCLUDE, GROUP, LINK_ONCE_DISCARD
 39 .group        00000008  0000000000000000  0000000000000000  00000178  2**2
                  CONTENTS, READONLY, EXCLUDE, GROUP, LINK_ONCE_DISCARD
 40 .group        00000008  0000000000000000  0000000000000000  00000180  2**2
                  CONTENTS, READONLY, EXCLUDE, GROUP, LINK_ONCE_DISCARD
 41 .group        00000008  0000000000000000  0000000000000000  00000188  2**2
                  CONTENTS, READONLY, EXCLUDE, GROUP, LINK_ONCE_DISCARD
 42 .group        00000008  0000000000000000  0000000000000000  00000190  2**2
                  CONTENTS, READONLY, EXCLUDE, GROUP, LINK_ONCE_DISCARD
 43 .group        00000008  0000000000000000  0000000000000000  00000198  2**2
                  CONTENTS, READONLY, EXCLUDE, GROUP, LINK_ONCE_DISCARD
 44 .group        00000008  0000000000000000  0000000000000000  000001a0  2**2
                  CONTENTS, READONLY, EXCLUDE, GROUP, LINK_ONCE_DISCARD
 45 .group        00000008  0000000000000000  0000000000000000  000001a8  2**2
                  CONTENTS, READONLY, EXCLUDE, GROUP, LINK_ONCE_DISCARD
 46 .group        00000008  0000000000000000  0000000000000000  000001b0  2**2
                  CONTENTS, READONLY, EXCLUDE, GROUP, LINK_ONCE_DISCARD
 47 .group        00000008  0000000000000000  0000000000000000  000001b8  2**2
                  CONTENTS, READONLY, EXCLUDE, GROUP, LINK_ONCE_DISCARD
 48 .group        00000008  0000000000000000  0000000000000000  000001c0  2**2
                  CONTENTS, READONLY, EXCLUDE, GROUP, LINK_ONCE_DISCARD
 49 .group        00000008  0000000000000000  0000000000000000  000001c8  2**2
                  CONTENTS, READONLY, EXCLUDE, GROUP, LINK_ONCE_DISCARD
 50 .group        00000008  0000000000000000  0000000000000000  000001d0  2**2
                  CONTENTS, READONLY, EXCLUDE, GROUP, LINK_ONCE_DISCARD
 51 .group        00000008  0000000000000000  0000000000000000  000001d8  2**2
                  CONTENTS, READONLY, EXCLUDE, GROUP, LINK_ONCE_DISCARD
 52 .group        00000008  0000000000000000  0000000000000000  000001e0  2**2
                  CONTENTS, READONLY, EXCLUDE, GROUP, LINK_ONCE_DISCARD
 53 .group        00000008  0000000000000000  0000000000000000  000001e8  2**2
                  CONTENTS, READONLY, EXCLUDE, GROUP, LINK_ONCE_DISCARD
 54 .group        00000008  0000000000000000  0000000000000000  000001f0  2**2
                  CONTENTS, READONLY, EXCLUDE, GROUP, LINK_ONCE_DISCARD
 55 .group        00000008  0000000000000000  0000000000000000  000001f8  2**2
                  CONTENTS, READONLY, EXCLUDE, GROUP, LINK_ONCE_DISCARD
 56 .group        00000008  0000000000000000  0000000000000000  00000200  2**2
                  CONTENTS, READONLY, EXCLUDE, GROUP, LINK_ONCE_DISCARD
 57 .group        00000008  0000000000000000  0000000000000000  00000208  2**2
                  CONTENTS, READONLY, EXCLUDE, GROUP, LINK_ONCE_DISCARD
 58 .group        00000008  0000000000000000  0000000000000000  00000210  2**2
                  CONTENTS, READONLY, EXCLUDE, GROUP, LINK_ONCE_DISCARD
 59 .group        00000008  0000000000000000  0000000000000000  00000218  2**2
                  CONTENTS, READONLY, EXCLUDE, GROUP, LINK_ONCE_DISCARD
 60 .group        00000008  0000000000000000  0000000000000000  00000220  2**2
                  CONTENTS, READONLY, EXCLUDE, GROUP, LINK_ONCE_DISCARD
 61 .group        00000008  0000000000000000  0000000000000000  00000228  2**2
                  CONTENTS, READONLY, EXCLUDE, GROUP, LINK_ONCE_DISCARD
 62 .group        00000008  0000000000000000  0000000000000000  00000230  2**2
                  CONTENTS, READONLY, EXCLUDE, GROUP, LINK_ONCE_DISCARD
 63 .group        00000008  0000000000000000  0000000000000000  00000238  2**2
                  CONTENTS, READONLY, EXCLUDE, GROUP, LINK_ONCE_DISCARD
 64 .group        00000008  0000000000000000  0000000000000000  00000240  2**2
                  CONTENTS, READONLY, EXCLUDE, GROUP, LINK_ONCE_DISCARD
 65 .group        00000008  0000000000000000  0000000000000000  00000248  2**2
                  CONTENTS, READONLY, EXCLUDE, GROUP, LINK_ONCE_DISCARD
 66 .group        00000008  0000000000000000  0000000000000000  00000250  2**2
                  CONTENTS, READONLY, EXCLUDE, GROUP, LINK_ONCE_DISCARD
 67 .group        00000008  0000000000000000  0000000000000000  00000258  2**2
                  CONTENTS, READONLY, EXCLUDE, GROUP, LINK_ONCE_DISCARD
 68 .group        00000008  0000000000000000  0000000000000000  00000260  2**2
                  CONTENTS, READONLY, EXCLUDE, GROUP, LINK_ONCE_DISCARD
 69 .group        00000008  0000000000000000  0000000000000000  00000268  2**2
                  CONTENTS, READONLY, EXCLUDE, GROUP, LINK_ONCE_DISCARD
 70 .group        00000008  0000000000000000  0000000000000000  00000270  2**2
                  CONTENTS, READONLY, EXCLUDE, GROUP, LINK_ONCE_DISCARD
 71 .group        00000008  0000000000000000  0000000000000000  00000278  2**2
                  CONTENTS, READONLY, EXCLUDE, GROUP, LINK_ONCE_DISCARD
 72 .group        00000008  0000000000000000  0000000000000000  00000280  2**2
                  CONTENTS, READONLY, EXCLUDE, GROUP, LINK_ONCE_DISCARD
 73 .group        00000008  0000000000000000  0000000000000000  00000288  2**2
                  CONTENTS, READONLY, EXCLUDE, GROUP, LINK_ONCE_DISCARD
 74 .group        00000008  0000000000000000  0000000000000000  00000290  2**2
                  CONTENTS, READONLY, EXCLUDE, GROUP, LINK_ONCE_DISCARD
 75 .group        00000008  0000000000000000  0000000000000000  00000298  2**2
                  CONTENTS, READONLY, EXCLUDE, GROUP, LINK_ONCE_DISCARD
 76 .group        00000008  0000000000000000  0000000000000000  000002a0  2**2
                  CONTENTS, READONLY, EXCLUDE, GROUP, LINK_ONCE_DISCARD
 77 .group        00000008  0000000000000000  0000000000000000  000002a8  2**2
                  CONTENTS, READONLY, EXCLUDE, GROUP, LINK_ONCE_DISCARD
 78 .group        00000008  0000000000000000  0000000000000000  000002b0  2**2
                  CONTENTS, READONLY, EXCLUDE, GROUP, LINK_ONCE_DISCARD
 79 .group        00000008  0000000000000000  0000000000000000  000002b8  2**2
                  CONTENTS, READONLY, EXCLUDE, GROUP, LINK_ONCE_DISCARD
 80 .group        00000008  0000000000000000  0000000000000000  000002c0  2**2
                  CONTENTS, READONLY, EXCLUDE, GROUP, LINK_ONCE_DISCARD
 81 .group        00000008  0000000000000000  0000000000000000  000002c8  2**2
                  CONTENTS, READONLY, EXCLUDE, GROUP, LINK_ONCE_DISCARD
 82 .group        00000008  0000000000000000  0000000000000000  000002d0  2**2
                  CONTENTS, READONLY, EXCLUDE, GROUP, LINK_ONCE_DISCARD
 83 .group        00000008  0000000000000000  0000000000000000  000002d8  2**2
                  CONTENTS, READONLY, EXCLUDE, GROUP, LINK_ONCE_DISCARD
 84 .group        00000008  0000000000000000  0000000000000000  000002e0  2**2
                  CONTENTS, READONLY, EXCLUDE, GROUP, LINK_ONCE_DISCARD
 85 .group        00000008  0000000000000000  0000000000000000  000002e8  2**2
                  CONTENTS, READONLY, EXCLUDE, GROUP, LINK_ONCE_DISCARD
 86 .group        00000008  0000000000000000  0000000000000000  000002f0  2**2
                  CONTENTS, READONLY, EXCLUDE, GROUP, LINK_ONCE_DISCARD
 87 .group        00000008  0000000000000000  0000000000000000  000002f8  2**2
                  CONTENTS, READONLY, EXCLUDE, GROUP, LINK_ONCE_DISCARD
 88 .group        00000008  0000000000000000  0000000000000000  00000300  2**2
                  CONTENTS, READONLY, EXCLUDE, GROUP, LINK_ONCE_DISCARD
 89 .group        00000008  0000000000000000  0000000000000000  00000308  2**2
                  CONTENTS, READONLY, EXCLUDE, GROUP, LINK_ONCE_DISCARD
 90 .group        00000008  0000000000000000  0000000000000000  00000310  2**2
                  CONTENTS, READONLY, EXCLUDE, GROUP, LINK_ONCE_DISCARD
 91 .group        00000008  0000000000000000  0000000000000000  00000318  2**2
                  CONTENTS, READONLY, EXCLUDE, GROUP, LINK_ONCE_DISCARD
 92 .group        00000008  0000000000000000  0000000000000000  00000320  2**2
                  CONTENTS, READONLY, EXCLUDE, GROUP, LINK_ONCE_DISCARD
 93 .group        00000008  0000000000000000  0000000000000000  00000328  2**2
                  CONTENTS, READONLY, EXCLUDE, GROUP, LINK_ONCE_DISCARD
 94 .group        00000008  0000000000000000  0000000000000000  00000330  2**2
                  CONTENTS, READONLY, EXCLUDE, GROUP, LINK_ONCE_DISCARD
 95 .group        00000008  0000000000000000  0000000000000000  00000338  2**2
                  CONTENTS, READONLY, EXCLUDE, GROUP, LINK_ONCE_DISCARD
 96 .group        00000008  0000000000000000  0000000000000000  00000340  2**2
                  CONTENTS, READONLY, EXCLUDE, GROUP, LINK_ONCE_DISCARD
 97 .group        00000008  0000000000000000  0000000000000000  00000348  2**2
                  CONTENTS, READONLY, EXCLUDE, GROUP, LINK_ONCE_DISCARD
 98 .group        00000008  0000000000000000  0000000000000000  00000350  2**2
                  CONTENTS, READONLY, EXCLUDE, GROUP, LINK_ONCE_DISCARD
 99 .group        00000008  0000000000000000  0000000000000000  00000358  2**2
                  CONTENTS, READONLY, EXCLUDE, GROUP, LINK_ONCE_DISCARD
100 .group        00000008  0000000000000000  0000000000000000  00000360  2**2
                  CONTENTS, READONLY, EXCLUDE, GROUP, LINK_ONCE_DISCARD
101 .group        00000008  0000000000000000  0000000000000000  00000368  2**2
                  CONTENTS, READONLY, EXCLUDE, GROUP, LINK_ONCE_DISCARD
102 .group        00000008  0000000000000000  0000000000000000  00000370  2**2
                  CONTENTS, READONLY, EXCLUDE, GROUP, LINK_ONCE_DISCARD
103 .group        00000008  0000000000000000  0000000000000000  00000378  2**2
                  CONTENTS, READONLY, EXCLUDE, GROUP, LINK_ONCE_DISCARD
104 .group        00000008  0000000000000000  0000000000000000  00000380  2**2
                  CONTENTS, READONLY, EXCLUDE, GROUP, LINK_ONCE_DISCARD
105 .group        00000008  0000000000000000  0000000000000000  00000388  2**2
                  CONTENTS, READONLY, EXCLUDE, GROUP, LINK_ONCE_DISCARD
106 .group        00000008  0000000000000000  0000000000000000  00000390  2**2
                  CONTENTS, READONLY, EXCLUDE, GROUP, LINK_ONCE_DISCARD
107 .group        00000008  0000000000000000  0000000000000000  00000398  2**2
                  CONTENTS, READONLY, EXCLUDE, GROUP, LINK_ONCE_DISCARD
108 .group        00000008  0000000000000000  0000000000000000  000003a0  2**2
                  CONTENTS, READONLY, EXCLUDE, GROUP, LINK_ONCE_DISCARD
109 .group        00000008  0000000000000000  0000000000000000  000003a8  2**2
                  CONTENTS, READONLY, EXCLUDE, GROUP, LINK_ONCE_DISCARD
110 .group        00000008  0000000000000000  0000000000000000  000003b0  2**2
                  CONTENTS, READONLY, EXCLUDE, GROUP, LINK_ONCE_DISCARD
111 .group        00000008  0000000000000000  0000000000000000  000003b8  2**2
                  CONTENTS, READONLY, EXCLUDE, GROUP, LINK_ONCE_DISCARD
112 .group        00000008  0000000000000000  0000000000000000  000003c0  2**2
                  CONTENTS, READONLY, EXCLUDE, GROUP, LINK_ONCE_DISCARD
113 .group        00000008  0000000000000000  0000000000000000  000003c8  2**2
                  CONTENTS, READONLY, EXCLUDE, GROUP, LINK_ONCE_DISCARD
114 .group        00000008  0000000000000000  0000000000000000  000003d0  2**2
                  CONTENTS, READONLY, EXCLUDE, GROUP, LINK_ONCE_DISCARD
115 .group        00000008  0000000000000000  0000000000000000  000003d8  2**2
                  CONTENTS, READONLY, EXCLUDE, GROUP, LINK_ONCE_DISCARD
116 .group        00000008  0000000000000000  0000000000000000  000003e0  2**2
                  CONTENTS, READONLY, EXCLUDE, GROUP, LINK_ONCE_DISCARD
117 .group        00000008  0000000000000000  0000000000000000  000003e8  2**2
                  CONTENTS, READONLY, EXCLUDE, GROUP, LINK_ONCE_DISCARD
118 .group        00000008  0000000000000000  0000000000000000  000003f0  2**2
                  CONTENTS, READONLY, EXCLUDE, GROUP, LINK_ONCE_DISCARD
119 .group        00000008  0000000000000000  0000000000000000  000003f8  2**2
                  CONTENTS, READONLY, EXCLUDE, GROUP, LINK_ONCE_DISCARD
120 .group        00000008  0000000000000000  0000000000000000  00000400  2**2
                  CONTENTS, READONLY, EXCLUDE, GROUP, LINK_ONCE_DISCARD
121 .group        00000008  0000000000000000  0000000000000000  00000408  2**2
                  CONTENTS, READONLY, EXCLUDE, GROUP, LINK_ONCE_DISCARD
122 .group        00000008  0000000000000000  0000000000000000  00000410  2**2
                  CONTENTS, READONLY, EXCLUDE, GROUP, LINK_ONCE_DISCARD
123 .group        00000008  0000000000000000  0000000000000000  00000418  2**2
                  CONTENTS, READONLY, EXCLUDE, GROUP, LINK_ONCE_DISCARD
124 .group        00000008  0000000000000000  0000000000000000  00000420  2**2
                  CONTENTS, READONLY, EXCLUDE, GROUP, LINK_ONCE_DISCARD
125 .group        00000008  0000000000000000  0000000000000000  00000428  2**2
                  CONTENTS, READONLY, EXCLUDE, GROUP, LINK_ONCE_DISCARD
126 .group        00000008  0000000000000000  0000000000000000  00000430  2**2
                  CONTENTS, READONLY, EXCLUDE, GROUP, LINK_ONCE_DISCARD
127 .group        00000008  0000000000000000  0000000000000000  00000438  2**2
                  CONTENTS, READONLY, EXCLUDE, GROUP, LINK_ONCE_DISCARD
128 .group        00000008  0000000000000000  0000000000000000  00000440  2**2
                  CONTENTS, READONLY, EXCLUDE, GROUP, LINK_ONCE_DISCARD
129 .group        00000008  0000000000000000  0000000000000000  00000448  2**2
                  CONTENTS, READONLY, EXCLUDE, GROUP, LINK_ONCE_DISCARD
130 .group        00000008  0000000000000000  0000000000000000  00000450  2**2
                  CONTENTS, READONLY, EXCLUDE, GROUP, LINK_ONCE_DISCARD
131 .group        00000008  0000000000000000  0000000000000000  00000458  2**2
                  CONTENTS, READONLY, EXCLUDE, GROUP, LINK_ONCE_DISCARD
132 .group        00000008  0000000000000000  0000000000000000  00000460  2**2
                  CONTENTS, READONLY, EXCLUDE, GROUP, LINK_ONCE_DISCARD
133 .group        00000008  0000000000000000  0000000000000000  00000468  2**2
                  CONTENTS, READONLY, EXCLUDE, GROUP, LINK_ONCE_DISCARD
134 .group        00000008  0000000000000000  0000000000000000  00000470  2**2
                  CONTENTS, READONLY, EXCLUDE, GROUP, LINK_ONCE_DISCARD
135 .group        00000008  0000000000000000  0000000000000000  00000478  2**2
                  CONTENTS, READONLY, EXCLUDE, GROUP, LINK_ONCE_DISCARD
136 .group        00000008  0000000000000000  0000000000000000  00000480  2**2
                  CONTENTS, READONLY, EXCLUDE, GROUP, LINK_ONCE_DISCARD
137 .group        00000008  0000000000000000  0000000000000000  00000488  2**2
                  CONTENTS, READONLY, EXCLUDE, GROUP, LINK_ONCE_DISCARD
138 .group        00000008  0000000000000000  0000000000000000  00000490  2**2
                  CONTENTS, READONLY, EXCLUDE, GROUP, LINK_ONCE_DISCARD
139 .group        00000008  0000000000000000  0000000000000000  00000498  2**2
                  CONTENTS, READONLY, EXCLUDE, GROUP, LINK_ONCE_DISCARD
140 .group        00000008  0000000000000000  0000000000000000  000004a0  2**2
                  CONTENTS, READONLY, EXCLUDE, GROUP, LINK_ONCE_DISCARD
141 .group        00000008  0000000000000000  0000000000000000  000004a8  2**2
                  CONTENTS, READONLY, EXCLUDE, GROUP, LINK_ONCE_DISCARD
142 .group        00000008  0000000000000000  0000000000000000  000004b0  2**2
                  CONTENTS, READONLY, EXCLUDE, GROUP, LINK_ONCE_DISCARD
143 .group        00000008  0000000000000000  0000000000000000  000004b8  2**2
                  CONTENTS, READONLY, EXCLUDE, GROUP, LINK_ONCE_DISCARD
144 .group        00000008  0000000000000000  0000000000000000  000004c0  2**2
                  CONTENTS, READONLY, EXCLUDE, GROUP, LINK_ONCE_DISCARD
145 .group        00000008  0000000000000000  0000000000000000  000004c8  2**2
                  CONTENTS, READONLY, EXCLUDE, GROUP, LINK_ONCE_DISCARD
146 .group        00000008  0000000000000000  0000000000000000  000004d0  2**2
                  CONTENTS, READONLY, EXCLUDE, GROUP, LINK_ONCE_DISCARD
147 .group        00000008  0000000000000000  0000000000000000  000004d8  2**2
                  CONTENTS, READONLY, EXCLUDE, GROUP, LINK_ONCE_DISCARD
148 .group        00000008  0000000000000000  0000000000000000  000004e0  2**2
                  CONTENTS, READONLY, EXCLUDE, GROUP, LINK_ONCE_DISCARD
149 .group        00000008  0000000000000000  0000000000000000  000004e8  2**2
                  CONTENTS, READONLY, EXCLUDE, GROUP, LINK_ONCE_DISCARD
150 .text         000003b0  0000000000000000  0000000000000000  000004f0  2**1
                  CONTENTS, ALLOC, LOAD, RELOC, READONLY, CODE
151 .data         00000000  0000000000000000  0000000000000000  000008a0  2**0
                  CONTENTS, ALLOC, LOAD, DATA
152 .bss          00000000  0000000000000000  0000000000000000  000008a0  2**0
                  ALLOC
153 .text._ZnwmPv 00000012  0000000000000000  0000000000000000  000008a0  2**0
                  CONTENTS, ALLOC, LOAD, READONLY, CODE
154 .text._ZdlPvS_ 0000000f  0000000000000000  0000000000000000  000008b2  2**0
                  CONTENTS, ALLOC, LOAD, READONLY, CODE
155 .text._ZN9QtPrivate8RefCount3refEv 00000041  0000000000000000  0000000000000000  000008c2  2**1
                  CONTENTS, ALLOC, LOAD, RELOC, READONLY, CODE
156 .text._ZN9QtPrivate8RefCount5derefEv 00000043  0000000000000000  0000000000000000  00000904  2**1
                  CONTENTS, ALLOC, LOAD, RELOC, READONLY, CODE
157 .text._ZNK9QtPrivate8RefCount8isSharedEv 00000035  0000000000000000  0000000000000000  00000948  2**1
                  CONTENTS, ALLOC, LOAD, RELOC, READONLY, CODE
158 .text._ZN10QArrayData10sharedNullEv 0000000d  0000000000000000  0000000000000000  0000097d  2**0
                  CONTENTS, ALLOC, LOAD, RELOC, READONLY, CODE
159 .text._ZN10QByteArrayC2Ev 0000001e  0000000000000000  0000000000000000  0000098a  2**1
                  CONTENTS, ALLOC, LOAD, RELOC, READONLY, CODE
160 .text._ZN10QByteArrayD2Ev 00000034  0000000000000000  0000000000000000  000009a8  2**1
                  CONTENTS, ALLOC, LOAD, RELOC, READONLY, CODE
161 .text._ZN10QByteArrayC2ERKS_ 00000030  0000000000000000  0000000000000000  000009dc  2**1
                  CONTENTS, ALLOC, LOAD, RELOC, READONLY, CODE
162 .text._ZN9QListData7disposeEv 0000001e  0000000000000000  0000000000000000  00000a0c  2**1
                  CONTENTS, ALLOC, LOAD, RELOC, READONLY, CODE
163 .text._ZNK9QListData4sizeEv 00000022  0000000000000000  0000000000000000  00000a2a  2**1
                  CONTENTS, ALLOC, LOAD, READONLY, CODE
164 .text._ZNK9QListData5beginEv 00000028  0000000000000000  0000000000000000  00000a4c  2**1
                  CONTENTS, ALLOC, LOAD, READONLY, CODE
165 .text._ZNK9QListData3endEv 00000028  0000000000000000  0000000000000000  00000a74  2**1
                  CONTENTS, ALLOC, LOAD, READONLY, CODE
166 .gcc_except_table 00000050  0000000000000000  0000000000000000  00000a9c  2**2
                  CONTENTS, ALLOC, LOAD, READONLY, DATA
167 .text._ZNK19QBasicAtomicIntegerIiE4loadEv 00000019  0000000000000000  0000000000000000  00000aec  2**1
                  CONTENTS, ALLOC, LOAD, READONLY, CODE
168 .text._ZN19QBasicAtomicIntegerIiE3refEv 0000001a  0000000000000000  0000000000000000  00000b06  2**1
                  CONTENTS, ALLOC, LOAD, RELOC, READONLY, CODE
169 .text._ZN19QBasicAtomicIntegerIiE5derefEv 0000001a  0000000000000000  0000000000000000  00000b20  2**1
                  CONTENTS, ALLOC, LOAD, RELOC, READONLY, CODE
170 .text._ZN15QTypedArrayDataIcE10sharedNullEv 0000000b  0000000000000000  0000000000000000  00000b3a  2**0
                  CONTENTS, ALLOC, LOAD, RELOC, READONLY, CODE
171 .text._ZN15QTypedArrayDataIcE10deallocateEP10QArrayData 00000025  0000000000000000  0000000000000000  00000b45  2**0
                  CONTENTS, ALLOC, LOAD, RELOC, READONLY, CODE
172 .text._ZNK5QListI10QByteArrayE4sizeEv 0000001a  0000000000000000  0000000000000000  00000b6a  2**1
                  CONTENTS, ALLOC, LOAD, RELOC, READONLY, CODE
173 .text._ZN5QListI10QByteArrayE8iteratorC2Ev 00000016  0000000000000000  0000000000000000  00000b84  2**1
                  CONTENTS, ALLOC, LOAD, READONLY, CODE
174 .text._ZN5QListI10QByteArrayE5beginEv 00000040  0000000000000000  0000000000000000  00000b9a  2**1
                  CONTENTS, ALLOC, LOAD, RELOC, READONLY, CODE
175 .text._ZN5QListI10QByteArrayE3endEv 00000040  0000000000000000  0000000000000000  00000bda  2**1
                  CONTENTS, ALLOC, LOAD, RELOC, READONLY, CODE
176 .text._ZNK5QListI10QByteArrayE8iteratorneERKS2_ 00000022  0000000000000000  0000000000000000  00000c1a  2**1
                  CONTENTS, ALLOC, LOAD, READONLY, CODE
177 .text._ZN5QListI10QByteArrayE8iteratorppEv 00000020  0000000000000000  0000000000000000  00000c3c  2**1
                  CONTENTS, ALLOC, LOAD, READONLY, CODE
178 .text._ZNK5QListI10QByteArrayE8iteratordeEv 0000001d  0000000000000000  0000000000000000  00000c5c  2**1
                  CONTENTS, ALLOC, LOAD, RELOC, READONLY, CODE
179 .text._ZN15QBasicAtomicOpsILi4EE3refIiEEbRT_ 00000023  0000000000000000  0000000000000000  00000c79  2**0
                  CONTENTS, ALLOC, LOAD, READONLY, CODE
180 .text._ZN15QBasicAtomicOpsILi4EE5derefIiEEbRT_ 00000023  0000000000000000  0000000000000000  00000c9c  2**0
                  CONTENTS, ALLOC, LOAD, READONLY, CODE
181 .text._ZN5QListI10QByteArrayE6detachEv 0000002e  0000000000000000  0000000000000000  00000cc0  2**1
                  CONTENTS, ALLOC, LOAD, RELOC, READONLY, CODE
182 .text._ZN5QListI10QByteArrayE8iteratorC2EPNS1_4NodeE 0000001a  0000000000000000  0000000000000000  00000cee  2**1
                  CONTENTS, ALLOC, LOAD, READONLY, CODE
183 .text._ZN5QListI10QByteArrayE4Node1tEv 0000000e  0000000000000000  0000000000000000  00000d08  2**1
                  CONTENTS, ALLOC, LOAD, READONLY, CODE
184 .text._ZN5QListI10QByteArrayE13detach_helperEv 00000027  0000000000000000  0000000000000000  00000d16  2**1
                  CONTENTS, ALLOC, LOAD, RELOC, READONLY, CODE
185 .text._ZN5QListI10QByteArrayE13detach_helperEi 000000d0  0000000000000000  0000000000000000  00000d3e  2**1
                  CONTENTS, ALLOC, LOAD, RELOC, READONLY, CODE
186 .text._ZN5QListI10QByteArrayE9node_copyEPNS1_4NodeES3_S3_ 000000c9  0000000000000000  0000000000000000  00000e0e  2**1
                  CONTENTS, ALLOC, LOAD, RELOC, READONLY, CODE
187 .text._ZN5QListI10QByteArrayE7deallocEPN9QListData4DataE 0000005e  0000000000000000  0000000000000000  00000ed8  2**1
                  CONTENTS, ALLOC, LOAD, RELOC, READONLY, CODE
188 .text._ZN5QListI10QByteArrayE13node_destructEPNS1_4NodeES3_ 00000034  0000000000000000  0000000000000000  00000f36  2**1
                  CONTENTS, ALLOC, LOAD, RELOC, READONLY, CODE
189 .debug_info   00011b66  0000000000000000  0000000000000000  00000f6a  2**0
                  CONTENTS, RELOC, READONLY, DEBUGGING
190 .debug_abbrev 00000998  0000000000000000  0000000000000000  00012ad0  2**0
                  CONTENTS, READONLY, DEBUGGING
191 .debug_aranges 00000260  0000000000000000  0000000000000000  00013468  2**0
                  CONTENTS, RELOC, READONLY, DEBUGGING
192 .debug_ranges 00000250  0000000000000000  0000000000000000  000136c8  2**0
                  CONTENTS, RELOC, READONLY, DEBUGGING
193 .debug_macro  000008ae  0000000000000000  0000000000000000  00013918  2**0
                  CONTENTS, RELOC, READONLY, DEBUGGING
194 .debug_macro  0000061c  0000000000000000  0000000000000000  000141c6  2**0
                  CONTENTS, RELOC, READONLY, DEBUGGING
195 .debug_macro  00000022  0000000000000000  0000000000000000  000147e2  2**0
                  CONTENTS, RELOC, READONLY, DEBUGGING
196 .debug_macro  00000136  0000000000000000  0000000000000000  00014804  2**0
                  CONTENTS, RELOC, READONLY, DEBUGGING
197 .debug_macro  00000010  0000000000000000  0000000000000000  0001493a  2**0
                  CONTENTS, RELOC, READONLY, DEBUGGING
198 .debug_macro  00000275  0000000000000000  0000000000000000  0001494a  2**0
                  CONTENTS, RELOC, READONLY, DEBUGGING
199 .debug_macro  0000016f  0000000000000000  0000000000000000  00014bbf  2**0
                  CONTENTS, RELOC, READONLY, DEBUGGING
200 .debug_macro  00000016  0000000000000000  0000000000000000  00014d2e  2**0
                  CONTENTS, RELOC, READONLY, DEBUGGING
201 .debug_macro  00000035  0000000000000000  0000000000000000  00014d44  2**0
                  CONTENTS, RELOC, READONLY, DEBUGGING
202 .debug_macro  00000058  0000000000000000  0000000000000000  00014d79  2**0
                  CONTENTS, RELOC, READONLY, DEBUGGING
203 .debug_macro  000005b4  0000000000000000  0000000000000000  00014dd1  2**0
                  CONTENTS, RELOC, READONLY, DEBUGGING
204 .debug_macro  0000016d  0000000000000000  0000000000000000  00015385  2**0
                  CONTENTS, RELOC, READONLY, DEBUGGING
205 .debug_macro  00000016  0000000000000000  0000000000000000  000154f2  2**0
                  CONTENTS, RELOC, READONLY, DEBUGGING
206 .debug_macro  0000009a  0000000000000000  0000000000000000  00015508  2**0
                  CONTENTS, RELOC, READONLY, DEBUGGING
207 .debug_macro  00000016  0000000000000000  0000000000000000  000155a2  2**0
                  CONTENTS, RELOC, READONLY, DEBUGGING
208 .debug_macro  00000018  0000000000000000  0000000000000000  000155b8  2**0
                  CONTENTS, RELOC, READONLY, DEBUGGING
209 .debug_macro  00000032  0000000000000000  0000000000000000  000155d0  2**0
                  CONTENTS, RELOC, READONLY, DEBUGGING
210 .debug_macro  000000c0  0000000000000000  0000000000000000  00015602  2**0
                  CONTENTS, RELOC, READONLY, DEBUGGING
211 .debug_macro  00000028  0000000000000000  0000000000000000  000156c2  2**0
                  CONTENTS, RELOC, READONLY, DEBUGGING
212 .debug_macro  00000012  0000000000000000  0000000000000000  000156ea  2**0
                  CONTENTS, RELOC, READONLY, DEBUGGING
213 .debug_macro  000000cf  0000000000000000  0000000000000000  000156fc  2**0
                  CONTENTS, RELOC, READONLY, DEBUGGING
214 .debug_macro  0000001c  0000000000000000  0000000000000000  000157cb  2**0
                  CONTENTS, RELOC, READONLY, DEBUGGING
215 .debug_macro  00000018  0000000000000000  0000000000000000  000157e7  2**0
                  CONTENTS, RELOC, READONLY, DEBUGGING
216 .debug_macro  0000006e  0000000000000000  0000000000000000  000157ff  2**0
                  CONTENTS, RELOC, READONLY, DEBUGGING
217 .debug_macro  00000082  0000000000000000  0000000000000000  0001586d  2**0
                  CONTENTS, RELOC, READONLY, DEBUGGING
218 .debug_macro  00000012  0000000000000000  0000000000000000  000158ef  2**0
                  CONTENTS, RELOC, READONLY, DEBUGGING
219 .debug_macro  00000012  0000000000000000  0000000000000000  00015901  2**0
                  CONTENTS, RELOC, READONLY, DEBUGGING
220 .debug_macro  00000016  0000000000000000  0000000000000000  00015913  2**0
                  CONTENTS, RELOC, READONLY, DEBUGGING
221 .debug_macro  00000035  0000000000000000  0000000000000000  00015929  2**0
                  CONTENTS, RELOC, READONLY, DEBUGGING
222 .debug_macro  00000052  0000000000000000  0000000000000000  0001595e  2**0
                  CONTENTS, RELOC, READONLY, DEBUGGING
223 .debug_macro  0000004c  0000000000000000  0000000000000000  000159b0  2**0
                  CONTENTS, RELOC, READONLY, DEBUGGING
224 .debug_macro  0000001c  0000000000000000  0000000000000000  000159fc  2**0
                  CONTENTS, RELOC, READONLY, DEBUGGING
225 .debug_macro  00000028  0000000000000000  0000000000000000  00015a18  2**0
                  CONTENTS, RELOC, READONLY, DEBUGGING
226 .debug_macro  0000005e  0000000000000000  0000000000000000  00015a40  2**0
                  CONTENTS, RELOC, READONLY, DEBUGGING
227 .debug_macro  000000e2  0000000000000000  0000000000000000  00015a9e  2**0
                  CONTENTS, RELOC, READONLY, DEBUGGING
228 .debug_macro  00000010  0000000000000000  0000000000000000  00015b80  2**0
                  CONTENTS, RELOC, READONLY, DEBUGGING
229 .debug_macro  0000004c  0000000000000000  0000000000000000  00015b90  2**0
                  CONTENTS, RELOC, READONLY, DEBUGGING
230 .debug_macro  00000022  0000000000000000  0000000000000000  00015bdc  2**0
                  CONTENTS, RELOC, READONLY, DEBUGGING
231 .debug_macro  00000068  0000000000000000  0000000000000000  00015bfe  2**0
                  CONTENTS, RELOC, READONLY, DEBUGGING
232 .debug_macro  0000007f  0000000000000000  0000000000000000  00015c66  2**0
                  CONTENTS, RELOC, READONLY, DEBUGGING
233 .debug_macro  0000003a  0000000000000000  0000000000000000  00015ce5  2**0
                  CONTENTS, RELOC, READONLY, DEBUGGING
234 .debug_macro  00000019  0000000000000000  0000000000000000  00015d1f  2**0
                  CONTENTS, RELOC, READONLY, DEBUGGING
235 .debug_macro  00000020  0000000000000000  0000000000000000  00015d38  2**0
                  CONTENTS, RELOC, READONLY, DEBUGGING
236 .debug_macro  00000022  0000000000000000  0000000000000000  00015d58  2**0
                  CONTENTS, RELOC, READONLY, DEBUGGING
237 .debug_macro  00000010  0000000000000000  0000000000000000  00015d7a  2**0
                  CONTENTS, RELOC, READONLY, DEBUGGING
238 .debug_macro  00000016  0000000000000000  0000000000000000  00015d8a  2**0
                  CONTENTS, RELOC, READONLY, DEBUGGING
239 .debug_macro  00000028  0000000000000000  0000000000000000  00015da0  2**0
                  CONTENTS, RELOC, READONLY, DEBUGGING
240 .debug_macro  00000010  0000000000000000  0000000000000000  00015dc8  2**0
                  CONTENTS, RELOC, READONLY, DEBUGGING
241 .debug_macro  00000046  0000000000000000  0000000000000000  00015dd8  2**0
                  CONTENTS, RELOC, READONLY, DEBUGGING
242 .debug_macro  0000001c  0000000000000000  0000000000000000  00015e1e  2**0
                  CONTENTS, RELOC, READONLY, DEBUGGING
243 .debug_macro  00000020  0000000000000000  0000000000000000  00015e3a  2**0
                  CONTENTS, RELOC, READONLY, DEBUGGING
244 .debug_macro  0000005a  0000000000000000  0000000000000000  00015e5a  2**0
                  CONTENTS, RELOC, READONLY, DEBUGGING
245 .debug_macro  00000010  0000000000000000  0000000000000000  00015eb4  2**0
                  CONTENTS, RELOC, READONLY, DEBUGGING
246 .debug_macro  00000010  0000000000000000  0000000000000000  00015ec4  2**0
                  CONTENTS, RELOC, READONLY, DEBUGGING
247 .debug_macro  000000e4  0000000000000000  0000000000000000  00015ed4  2**0
                  CONTENTS, RELOC, READONLY, DEBUGGING
248 .debug_macro  0000025a  0000000000000000  0000000000000000  00015fb8  2**0
                  CONTENTS, RELOC, READONLY, DEBUGGING
249 .debug_macro  0000002d  0000000000000000  0000000000000000  00016212  2**0
                  CONTENTS, RELOC, READONLY, DEBUGGING
250 .debug_macro  00000016  0000000000000000  0000000000000000  0001623f  2**0
                  CONTENTS, RELOC, READONLY, DEBUGGING
251 .debug_macro  00000050  0000000000000000  0000000000000000  00016255  2**0
                  CONTENTS, RELOC, READONLY, DEBUGGING
252 .debug_macro  00000019  0000000000000000  0000000000000000  000162a5  2**0
                  CONTENTS, RELOC, READONLY, DEBUGGING
253 .debug_macro  00000011  0000000000000000  0000000000000000  000162be  2**0
                  CONTENTS, RELOC, READONLY, DEBUGGING
254 .debug_macro  0000014b  0000000000000000  0000000000000000  000162cf  2**0
                  CONTENTS, RELOC, READONLY, DEBUGGING
255 .debug_macro  0000001e  0000000000000000  0000000000000000  0001641a  2**0
                  CONTENTS, RELOC, READONLY, DEBUGGING
256 .debug_macro  0000001c  0000000000000000  0000000000000000  00016438  2**0
                  CONTENTS, RELOC, READONLY, DEBUGGING
257 .debug_macro  00000024  0000000000000000  0000000000000000  00016454  2**0
                  CONTENTS, RELOC, READONLY, DEBUGGING
258 .debug_macro  00000016  0000000000000000  0000000000000000  00016478  2**0
                  CONTENTS, RELOC, READONLY, DEBUGGING
259 .debug_macro  00000018  0000000000000000  0000000000000000  0001648e  2**0
                  CONTENTS, RELOC, READONLY, DEBUGGING
260 .debug_macro  00000019  0000000000000000  0000000000000000  000164a6  2**0
                  CONTENTS, RELOC, READONLY, DEBUGGING
261 .debug_macro  00000058  0000000000000000  0000000000000000  000164bf  2**0
                  CONTENTS, RELOC, READONLY, DEBUGGING
262 .debug_macro  00000016  0000000000000000  0000000000000000  00016517  2**0
                  CONTENTS, RELOC, READONLY, DEBUGGING
263 .debug_macro  0000001c  0000000000000000  0000000000000000  0001652d  2**0
                  CONTENTS, RELOC, READONLY, DEBUGGING
264 .debug_macro  00000016  0000000000000000  0000000000000000  00016549  2**0
                  CONTENTS, RELOC, READONLY, DEBUGGING
265 .debug_macro  00000022  0000000000000000  0000000000000000  0001655f  2**0
                  CONTENTS, RELOC, READONLY, DEBUGGING
266 .debug_macro  00000043  0000000000000000  0000000000000000  00016581  2**0
                  CONTENTS, RELOC, READONLY, DEBUGGING
267 .debug_macro  0000003c  0000000000000000  0000000000000000  000165c4  2**0
                  CONTENTS, RELOC, READONLY, DEBUGGING
268 .debug_macro  00000173  0000000000000000  0000000000000000  00016600  2**0
                  CONTENTS, RELOC, READONLY, DEBUGGING
269 .debug_macro  00000012  0000000000000000  0000000000000000  00016773  2**0
                  CONTENTS, RELOC, READONLY, DEBUGGING
270 .debug_macro  00000010  0000000000000000  0000000000000000  00016785  2**0
                  CONTENTS, RELOC, READONLY, DEBUGGING
271 .debug_macro  00000058  0000000000000000  0000000000000000  00016795  2**0
                  CONTENTS, RELOC, READONLY, DEBUGGING
272 .debug_macro  000000b4  0000000000000000  0000000000000000  000167ed  2**0
                  CONTENTS, RELOC, READONLY, DEBUGGING
273 .debug_macro  00000016  0000000000000000  0000000000000000  000168a1  2**0
                  CONTENTS, RELOC, READONLY, DEBUGGING
274 .debug_macro  00000010  0000000000000000  0000000000000000  000168b7  2**0
                  CONTENTS, RELOC, READONLY, DEBUGGING
275 .debug_macro  00000037  0000000000000000  0000000000000000  000168c7  2**0
                  CONTENTS, RELOC, READONLY, DEBUGGING
276 .debug_macro  00000058  0000000000000000  0000000000000000  000168fe  2**0
                  CONTENTS, RELOC, READONLY, DEBUGGING
277 .debug_macro  00000011  0000000000000000  0000000000000000  00016956  2**0
                  CONTENTS, RELOC, READONLY, DEBUGGING
278 .debug_macro  00000016  0000000000000000  0000000000000000  00016967  2**0
                  CONTENTS, RELOC, READONLY, DEBUGGING
279 .debug_macro  00000010  0000000000000000  0000000000000000  0001697d  2**0
                  CONTENTS, RELOC, READONLY, DEBUGGING
280 .debug_macro  00000010  0000000000000000  0000000000000000  0001698d  2**0
                  CONTENTS, RELOC, READONLY, DEBUGGING
281 .debug_macro  00000022  0000000000000000  0000000000000000  0001699d  2**0
                  CONTENTS, RELOC, READONLY, DEBUGGING
282 .debug_macro  00000122  0000000000000000  0000000000000000  000169bf  2**0
                  CONTENTS, RELOC, READONLY, DEBUGGING
283 .debug_macro  0000008e  0000000000000000  0000000000000000  00016ae1  2**0
                  CONTENTS, RELOC, READONLY, DEBUGGING
284 .debug_macro  00000016  0000000000000000  0000000000000000  00016b6f  2**0
                  CONTENTS, RELOC, READONLY, DEBUGGING
285 .debug_macro  00000058  0000000000000000  0000000000000000  00016b85  2**0
                  CONTENTS, RELOC, READONLY, DEBUGGING
286 .debug_macro  000000fa  0000000000000000  0000000000000000  00016bdd  2**0
                  CONTENTS, RELOC, READONLY, DEBUGGING
287 .debug_macro  00000030  0000000000000000  0000000000000000  00016cd7  2**0
                  CONTENTS, RELOC, READONLY, DEBUGGING
288 .debug_macro  000000c1  0000000000000000  0000000000000000  00016d07  2**0
                  CONTENTS, RELOC, READONLY, DEBUGGING
289 .debug_macro  0000004d  0000000000000000  0000000000000000  00016dc8  2**0
                  CONTENTS, RELOC, READONLY, DEBUGGING
290 .debug_macro  00000010  0000000000000000  0000000000000000  00016e15  2**0
                  CONTENTS, RELOC, READONLY, DEBUGGING
291 .debug_macro  00000019  0000000000000000  0000000000000000  00016e25  2**0
                  CONTENTS, RELOC, READONLY, DEBUGGING
292 .debug_macro  00000018  0000000000000000  0000000000000000  00016e3e  2**0
                  CONTENTS, RELOC, READONLY, DEBUGGING
293 .debug_macro  00000023  0000000000000000  0000000000000000  00016e56  2**0
                  CONTENTS, RELOC, READONLY, DEBUGGING
294 .debug_macro  00000010  0000000000000000  0000000000000000  00016e79  2**0
                  CONTENTS, RELOC, READONLY, DEBUGGING
295 .debug_macro  00000016  0000000000000000  0000000000000000  00016e89  2**0
                  CONTENTS, RELOC, READONLY, DEBUGGING
296 .debug_macro  00000076  0000000000000000  0000000000000000  00016e9f  2**0
                  CONTENTS, RELOC, READONLY, DEBUGGING
297 .debug_macro  00000016  0000000000000000  0000000000000000  00016f15  2**0
                  CONTENTS, RELOC, READONLY, DEBUGGING
298 .debug_macro  00000025  0000000000000000  0000000000000000  00016f2b  2**0
                  CONTENTS, RELOC, READONLY, DEBUGGING
299 .debug_macro  000000de  0000000000000000  0000000000000000  00016f50  2**0
                  CONTENTS, RELOC, READONLY, DEBUGGING
300 .debug_macro  0000001c  0000000000000000  0000000000000000  0001702e  2**0
                  CONTENTS, RELOC, READONLY, DEBUGGING
301 .debug_macro  00000058  0000000000000000  0000000000000000  0001704a  2**0
                  CONTENTS, RELOC, READONLY, DEBUGGING
302 .debug_macro  00000088  0000000000000000  0000000000000000  000170a2  2**0
                  CONTENTS, RELOC, READONLY, DEBUGGING
303 .debug_macro  00000076  0000000000000000  0000000000000000  0001712a  2**0
                  CONTENTS, RELOC, READONLY, DEBUGGING
304 .debug_macro  00000010  0000000000000000  0000000000000000  000171a0  2**0
                  CONTENTS, RELOC, READONLY, DEBUGGING
305 .debug_macro  00000041  0000000000000000  0000000000000000  000171b0  2**0
                  CONTENTS, RELOC, READONLY, DEBUGGING
306 .debug_macro  000000ee  0000000000000000  0000000000000000  000171f1  2**0
                  CONTENTS, RELOC, READONLY, DEBUGGING
307 .debug_macro  00000020  0000000000000000  0000000000000000  000172df  2**0
                  CONTENTS, RELOC, READONLY, DEBUGGING
308 .debug_line   00000f81  0000000000000000  0000000000000000  000172ff  2**0
                  CONTENTS, RELOC, READONLY, DEBUGGING
309 .debug_str    000254ff  0000000000000000  0000000000000000  00018280  2**0
                  CONTENTS, READONLY, DEBUGGING
310 .data.DW.ref.__gxx_personality_v0 00000008  0000000000000000  0000000000000000  0003d780  2**3
                  CONTENTS, ALLOC, LOAD, RELOC, DATA
311 .comment      0000002e  0000000000000000  0000000000000000  0003d788  2**0
                  CONTENTS, READONLY
312 .note.GNU-stack 00000000  0000000000000000  0000000000000000  0003d7b6  2**0
                  CONTENTS, READONLY
313 .eh_frame     000005f8  0000000000000000  0000000000000000  0003d7b8  2**3
                  CONTENTS, ALLOC, LOAD, RELOC, READONLY, DATA

Дизассемблирование раздела .text:

0000000000000000 <_ZN13varParametersC1Ev>:

#define packLocal 0x11

//HEADERS like A1 A2 A3 A4 A5 A6 and other.

varParameters::varParameters(){
   0:	55                   	push   %rbp
   1:	48 89 e5             	mov    %rsp,%rbp
   4:	48 89 7d f8          	mov    %rdi,-0x8(%rbp)
    this->eventCHANGE   =0;  // zero is cool too.
   8:	48 8b 45 f8          	mov    -0x8(%rbp),%rax
   c:	66 c7 40 06 00 00    	movw   $0x0,0x6(%rax)
    this->eventSET      =0;
  12:	48 8b 45 f8          	mov    -0x8(%rbp),%rax
  16:	66 c7 40 02 00 00    	movw   $0x0,0x2(%rax)
    this->eventZERO     =0;
  1c:	48 8b 45 f8          	mov    -0x8(%rbp),%rax
  20:	66 c7 40 04 00 00    	movw   $0x0,0x4(%rax)

    this->indexRP       =0;
  26:	48 8b 45 f8          	mov    -0x8(%rbp),%rax
  2a:	66 c7 00 00 00       	movw   $0x0,(%rax)
}
  2f:	90                   	nop
  30:	5d                   	pop    %rbp
  31:	c3                   	retq   

0000000000000032 <_ZN1aC1Ev>:

a::a()
  32:	55                   	push   %rbp
  33:	48 89 e5             	mov    %rsp,%rbp
  36:	48 89 7d f8          	mov    %rdi,-0x8(%rbp)
{

}
  3a:	90                   	nop
  3b:	5d                   	pop    %rbp
  3c:	c3                   	retq   
  3d:	90                   	nop

000000000000003e <_ZN1a2A1Ev>:

QByteArray a::A1(){QByteArray result; return result;}
  3e:	55                   	push   %rbp
  3f:	48 89 e5             	mov    %rsp,%rbp
  42:	48 83 ec 20          	sub    $0x20,%rsp
  46:	48 89 7d e8          	mov    %rdi,-0x18(%rbp)
  4a:	48 89 75 e0          	mov    %rsi,-0x20(%rbp)
  4e:	64 48 8b 04 25 28 00 	mov    %fs:0x28,%rax
  55:	00 00 
  57:	48 89 45 f8          	mov    %rax,-0x8(%rbp)
  5b:	31 c0                	xor    %eax,%eax
  5d:	48 8b 45 e8          	mov    -0x18(%rbp),%rax
  61:	48 89 c7             	mov    %rax,%rdi
  64:	e8 00 00 00 00       	callq  69 <_ZN1a2A1Ev+0x2b>
  69:	90                   	nop
  6a:	48 8b 45 e8          	mov    -0x18(%rbp),%rax
  6e:	48 8b 55 f8          	mov    -0x8(%rbp),%rdx
  72:	64 48 33 14 25 28 00 	xor    %fs:0x28,%rdx
  79:	00 00 
  7b:	74 05                	je     82 <_ZN1a2A1Ev+0x44>
  7d:	e8 00 00 00 00       	callq  82 <_ZN1a2A1Ev+0x44>
  82:	c9                   	leaveq 
  83:	c3                   	retq   

0000000000000084 <_ZN1a2A2Ev>:
QByteArray a::A2(){QByteArray result; return result;}
  84:	55                   	push   %rbp
  85:	48 89 e5             	mov    %rsp,%rbp
  88:	48 83 ec 20          	sub    $0x20,%rsp
  8c:	48 89 7d e8          	mov    %rdi,-0x18(%rbp)
  90:	48 89 75 e0          	mov    %rsi,-0x20(%rbp)
  94:	64 48 8b 04 25 28 00 	mov    %fs:0x28,%rax
  9b:	00 00 
  9d:	48 89 45 f8          	mov    %rax,-0x8(%rbp)
  a1:	31 c0                	xor    %eax,%eax
  a3:	48 8b 45 e8          	mov    -0x18(%rbp),%rax
  a7:	48 89 c7             	mov    %rax,%rdi
  aa:	e8 00 00 00 00       	callq  af <_ZN1a2A2Ev+0x2b>
  af:	90                   	nop
  b0:	48 8b 45 e8          	mov    -0x18(%rbp),%rax
  b4:	48 8b 55 f8          	mov    -0x8(%rbp),%rdx
  b8:	64 48 33 14 25 28 00 	xor    %fs:0x28,%rdx
  bf:	00 00 
  c1:	74 05                	je     c8 <_ZN1a2A2Ev+0x44>
  c3:	e8 00 00 00 00       	callq  c8 <_ZN1a2A2Ev+0x44>
  c8:	c9                   	leaveq 
  c9:	c3                   	retq   

00000000000000ca <_ZN1a2A3Ev>:
QByteArray a::A3(){QByteArray result; return result;}
  ca:	55                   	push   %rbp
  cb:	48 89 e5             	mov    %rsp,%rbp
  ce:	48 83 ec 20          	sub    $0x20,%rsp
  d2:	48 89 7d e8          	mov    %rdi,-0x18(%rbp)
  d6:	48 89 75 e0          	mov    %rsi,-0x20(%rbp)
  da:	64 48 8b 04 25 28 00 	mov    %fs:0x28,%rax
  e1:	00 00 
  e3:	48 89 45 f8          	mov    %rax,-0x8(%rbp)
  e7:	31 c0                	xor    %eax,%eax
  e9:	48 8b 45 e8          	mov    -0x18(%rbp),%rax
  ed:	48 89 c7             	mov    %rax,%rdi
  f0:	e8 00 00 00 00       	callq  f5 <_ZN1a2A3Ev+0x2b>
  f5:	90                   	nop
  f6:	48 8b 45 e8          	mov    -0x18(%rbp),%rax
  fa:	48 8b 55 f8          	mov    -0x8(%rbp),%rdx
  fe:	64 48 33 14 25 28 00 	xor    %fs:0x28,%rdx
 105:	00 00 
 107:	74 05                	je     10e <_ZN1a2A3Ev+0x44>
 109:	e8 00 00 00 00       	callq  10e <_ZN1a2A3Ev+0x44>
 10e:	c9                   	leaveq 
 10f:	c3                   	retq   

0000000000000110 <_ZN1a2A4Ev>:
QByteArray a::A4(){QByteArray result; return result;}
 110:	55                   	push   %rbp
 111:	48 89 e5             	mov    %rsp,%rbp
 114:	48 83 ec 20          	sub    $0x20,%rsp
 118:	48 89 7d e8          	mov    %rdi,-0x18(%rbp)
 11c:	48 89 75 e0          	mov    %rsi,-0x20(%rbp)
 120:	64 48 8b 04 25 28 00 	mov    %fs:0x28,%rax
 127:	00 00 
 129:	48 89 45 f8          	mov    %rax,-0x8(%rbp)
 12d:	31 c0                	xor    %eax,%eax
 12f:	48 8b 45 e8          	mov    -0x18(%rbp),%rax
 133:	48 89 c7             	mov    %rax,%rdi
 136:	e8 00 00 00 00       	callq  13b <_ZN1a2A4Ev+0x2b>
 13b:	90                   	nop
 13c:	48 8b 45 e8          	mov    -0x18(%rbp),%rax
 140:	48 8b 55 f8          	mov    -0x8(%rbp),%rdx
 144:	64 48 33 14 25 28 00 	xor    %fs:0x28,%rdx
 14b:	00 00 
 14d:	74 05                	je     154 <_ZN1a2A4Ev+0x44>
 14f:	e8 00 00 00 00       	callq  154 <_ZN1a2A4Ev+0x44>
 154:	c9                   	leaveq 
 155:	c3                   	retq   

0000000000000156 <_ZN1a2A5Ev>:
QByteArray a::A5(){QByteArray result; return result;}
 156:	55                   	push   %rbp
 157:	48 89 e5             	mov    %rsp,%rbp
 15a:	48 83 ec 20          	sub    $0x20,%rsp
 15e:	48 89 7d e8          	mov    %rdi,-0x18(%rbp)
 162:	48 89 75 e0          	mov    %rsi,-0x20(%rbp)
 166:	64 48 8b 04 25 28 00 	mov    %fs:0x28,%rax
 16d:	00 00 
 16f:	48 89 45 f8          	mov    %rax,-0x8(%rbp)
 173:	31 c0                	xor    %eax,%eax
 175:	48 8b 45 e8          	mov    -0x18(%rbp),%rax
 179:	48 89 c7             	mov    %rax,%rdi
 17c:	e8 00 00 00 00       	callq  181 <_ZN1a2A5Ev+0x2b>
 181:	90                   	nop
 182:	48 8b 45 e8          	mov    -0x18(%rbp),%rax
 186:	48 8b 55 f8          	mov    -0x8(%rbp),%rdx
 18a:	64 48 33 14 25 28 00 	xor    %fs:0x28,%rdx
 191:	00 00 
 193:	74 05                	je     19a <_ZN1a2A5Ev+0x44>
 195:	e8 00 00 00 00       	callq  19a <_ZN1a2A5Ev+0x44>
 19a:	c9                   	leaveq 
 19b:	c3                   	retq   

000000000000019c <_ZN1a2A6EhhhP5QListI10QByteArrayE>:

QByteArray a::A6(quint8 counter, quint8 moduleType, quint8 programID, QList<QByteArray> *A6){
 19c:	55                   	push   %rbp
 19d:	48 89 e5             	mov    %rsp,%rbp
 1a0:	53                   	push   %rbx
 1a1:	48 83 ec 78          	sub    $0x78,%rsp
 1a5:	48 89 7d a8          	mov    %rdi,-0x58(%rbp)
 1a9:	48 89 75 a0          	mov    %rsi,-0x60(%rbp)
 1ad:	89 c8                	mov    %ecx,%eax
 1af:	44 89 c1             	mov    %r8d,%ecx
 1b2:	4c 89 4d 88          	mov    %r9,-0x78(%rbp)
 1b6:	88 55 9c             	mov    %dl,-0x64(%rbp)
 1b9:	88 45 98             	mov    %al,-0x68(%rbp)
 1bc:	88 4d 94             	mov    %cl,-0x6c(%rbp)
 1bf:	64 48 8b 04 25 28 00 	mov    %fs:0x28,%rax
 1c6:	00 00 
 1c8:	48 89 45 e8          	mov    %rax,-0x18(%rbp)
 1cc:	31 c0                	xor    %eax,%eax
    QByteArray result;
 1ce:	48 8b 45 a8          	mov    -0x58(%rbp),%rax
 1d2:	48 89 c7             	mov    %rax,%rdi
 1d5:	e8 00 00 00 00       	callq  1da <_ZN1a2A6EhhhP5QListI10QByteArrayE+0x3e>
    quint16 localVarCount = A6->size();
 1da:	48 8b 45 88          	mov    -0x78(%rbp),%rax
 1de:	48 89 c7             	mov    %rax,%rdi
 1e1:	e8 00 00 00 00       	callq  1e6 <_ZN1a2A6EhhhP5QListI10QByteArrayE+0x4a>
 1e6:	66 89 45 bc          	mov    %ax,-0x44(%rbp)

    result.append(counter);
 1ea:	0f b6 45 9c          	movzbl -0x64(%rbp),%eax
 1ee:	0f be d0             	movsbl %al,%edx
 1f1:	48 8b 45 a8          	mov    -0x58(%rbp),%rax
 1f5:	89 d6                	mov    %edx,%esi
 1f7:	48 89 c7             	mov    %rax,%rdi
 1fa:	e8 00 00 00 00       	callq  1ff <_ZN1a2A6EhhhP5QListI10QByteArrayE+0x63>
    result.append(packLocal);
 1ff:	48 8b 45 a8          	mov    -0x58(%rbp),%rax
 203:	be 11 00 00 00       	mov    $0x11,%esi
 208:	48 89 c7             	mov    %rax,%rdi
 20b:	e8 00 00 00 00       	callq  210 <_ZN1a2A6EhhhP5QListI10QByteArrayE+0x74>
    result.append(moduleType);
 210:	0f b6 45 98          	movzbl -0x68(%rbp),%eax
 214:	0f be d0             	movsbl %al,%edx
 217:	48 8b 45 a8          	mov    -0x58(%rbp),%rax
 21b:	89 d6                	mov    %edx,%esi
 21d:	48 89 c7             	mov    %rax,%rdi
 220:	e8 00 00 00 00       	callq  225 <_ZN1a2A6EhhhP5QListI10QByteArrayE+0x89>
    result.append(programID);
 225:	0f b6 45 94          	movzbl -0x6c(%rbp),%eax
 229:	0f be d0             	movsbl %al,%edx
 22c:	48 8b 45 a8          	mov    -0x58(%rbp),%rax
 230:	89 d6                	mov    %edx,%esi
 232:	48 89 c7             	mov    %rax,%rdi
 235:	e8 00 00 00 00       	callq  23a <_ZN1a2A6EhhhP5QListI10QByteArrayE+0x9e>
    result.append(localVarCount);
 23a:	0f b7 45 bc          	movzwl -0x44(%rbp),%eax
 23e:	0f be d0             	movsbl %al,%edx
 241:	48 8b 45 a8          	mov    -0x58(%rbp),%rax
 245:	89 d6                	mov    %edx,%esi
 247:	48 89 c7             	mov    %rax,%rdi
 24a:	e8 00 00 00 00       	callq  24f <_ZN1a2A6EhhhP5QListI10QByteArrayE+0xb3>

    QList<QByteArray>::iterator LBA;
 24f:	48 8d 45 c0          	lea    -0x40(%rbp),%rax
 253:	48 89 c7             	mov    %rax,%rdi
 256:	e8 00 00 00 00       	callq  25b <_ZN1a2A6EhhhP5QListI10QByteArrayE+0xbf>
    for(LBA = A6->begin(); LBA != A6->end(); ++LBA){
 25b:	48 8d 45 d0          	lea    -0x30(%rbp),%rax
 25f:	48 8b 55 88          	mov    -0x78(%rbp),%rdx
 263:	48 89 d6             	mov    %rdx,%rsi
 266:	48 89 c7             	mov    %rax,%rdi
 269:	e8 00 00 00 00       	callq  26e <_ZN1a2A6EhhhP5QListI10QByteArrayE+0xd2>
 26e:	48 8b 45 d0          	mov    -0x30(%rbp),%rax
 272:	48 89 45 c0          	mov    %rax,-0x40(%rbp)
 276:	48 8d 45 e0          	lea    -0x20(%rbp),%rax
 27a:	48 8b 55 88          	mov    -0x78(%rbp),%rdx
 27e:	48 89 d6             	mov    %rdx,%rsi
 281:	48 89 c7             	mov    %rax,%rdi
 284:	e8 00 00 00 00       	callq  289 <_ZN1a2A6EhhhP5QListI10QByteArrayE+0xed>
 289:	48 8d 55 e0          	lea    -0x20(%rbp),%rdx
 28d:	48 8d 45 c0          	lea    -0x40(%rbp),%rax
 291:	48 89 d6             	mov    %rdx,%rsi
 294:	48 89 c7             	mov    %rax,%rdi
 297:	e8 00 00 00 00       	callq  29c <_ZN1a2A6EhhhP5QListI10QByteArrayE+0x100>
 29c:	84 c0                	test   %al,%al
 29e:	74 2c                	je     2cc <_ZN1a2A6EhhhP5QListI10QByteArrayE+0x130>
        result.append(*LBA);
 2a0:	48 8d 45 c0          	lea    -0x40(%rbp),%rax
 2a4:	48 89 c7             	mov    %rax,%rdi
 2a7:	e8 00 00 00 00       	callq  2ac <_ZN1a2A6EhhhP5QListI10QByteArrayE+0x110>
 2ac:	48 89 c2             	mov    %rax,%rdx
 2af:	48 8b 45 a8          	mov    -0x58(%rbp),%rax
 2b3:	48 89 d6             	mov    %rdx,%rsi
 2b6:	48 89 c7             	mov    %rax,%rdi
 2b9:	e8 00 00 00 00       	callq  2be <_ZN1a2A6EhhhP5QListI10QByteArrayE+0x122>
    result.append(moduleType);
    result.append(programID);
    result.append(localVarCount);

    QList<QByteArray>::iterator LBA;
    for(LBA = A6->begin(); LBA != A6->end(); ++LBA){
 2be:	48 8d 45 c0          	lea    -0x40(%rbp),%rax
 2c2:	48 89 c7             	mov    %rax,%rdi
 2c5:	e8 00 00 00 00       	callq  2ca <_ZN1a2A6EhhhP5QListI10QByteArrayE+0x12e>
 2ca:	eb aa                	jmp    276 <_ZN1a2A6EhhhP5QListI10QByteArrayE+0xda>
        result.append(*LBA);
    }

    quint16 CRC16 = 0xFFFF;
 2cc:	66 c7 45 be ff ff    	movw   $0xffff,-0x42(%rbp)
    result.append(CRC16);
 2d2:	0f b7 45 be          	movzwl -0x42(%rbp),%eax
 2d6:	0f be d0             	movsbl %al,%edx
 2d9:	48 8b 45 a8          	mov    -0x58(%rbp),%rax
 2dd:	89 d6                	mov    %edx,%esi
 2df:	48 89 c7             	mov    %rax,%rdi
 2e2:	e8 00 00 00 00       	callq  2e7 <_ZN1a2A6EhhhP5QListI10QByteArrayE+0x14b>

    return result;
 2e7:	90                   	nop
}
 2e8:	48 8b 45 a8          	mov    -0x58(%rbp),%rax
 2ec:	48 8b 5d e8          	mov    -0x18(%rbp),%rbx
 2f0:	64 48 33 1c 25 28 00 	xor    %fs:0x28,%rbx
 2f7:	00 00 
 2f9:	74 21                	je     31c <_ZN1a2A6EhhhP5QListI10QByteArrayE+0x180>
 2fb:	eb 1a                	jmp    317 <_ZN1a2A6EhhhP5QListI10QByteArrayE+0x17b>
 2fd:	48 89 c3             	mov    %rax,%rbx
 300:	48 8b 45 a8          	mov    -0x58(%rbp),%rax
 304:	48 89 c7             	mov    %rax,%rdi
 307:	e8 00 00 00 00       	callq  30c <_ZN1a2A6EhhhP5QListI10QByteArrayE+0x170>
 30c:	48 89 d8             	mov    %rbx,%rax
 30f:	48 89 c7             	mov    %rax,%rdi
 312:	e8 00 00 00 00       	callq  317 <_ZN1a2A6EhhhP5QListI10QByteArrayE+0x17b>
 317:	e8 00 00 00 00       	callq  31c <_ZN1a2A6EhhhP5QListI10QByteArrayE+0x180>
 31c:	48 83 c4 78          	add    $0x78,%rsp
 320:	5b                   	pop    %rbx
 321:	5d                   	pop    %rbp
 322:	c3                   	retq   
 323:	90                   	nop

0000000000000324 <_ZN1a2A7Ev>:

QByteArray a::A7(){QByteArray result; return result;}
 324:	55                   	push   %rbp
 325:	48 89 e5             	mov    %rsp,%rbp
 328:	48 83 ec 20          	sub    $0x20,%rsp
 32c:	48 89 7d e8          	mov    %rdi,-0x18(%rbp)
 330:	48 89 75 e0          	mov    %rsi,-0x20(%rbp)
 334:	64 48 8b 04 25 28 00 	mov    %fs:0x28,%rax
 33b:	00 00 
 33d:	48 89 45 f8          	mov    %rax,-0x8(%rbp)
 341:	31 c0                	xor    %eax,%eax
 343:	48 8b 45 e8          	mov    -0x18(%rbp),%rax
 347:	48 89 c7             	mov    %rax,%rdi
 34a:	e8 00 00 00 00       	callq  34f <_ZN1a2A7Ev+0x2b>
 34f:	90                   	nop
 350:	48 8b 45 e8          	mov    -0x18(%rbp),%rax
 354:	48 8b 55 f8          	mov    -0x8(%rbp),%rdx
 358:	64 48 33 14 25 28 00 	xor    %fs:0x28,%rdx
 35f:	00 00 
 361:	74 05                	je     368 <_ZN1a2A7Ev+0x44>
 363:	e8 00 00 00 00       	callq  368 <_ZN1a2A7Ev+0x44>
 368:	c9                   	leaveq 
 369:	c3                   	retq   

000000000000036a <_ZN1a2A8Ev>:
QByteArray a::A8(){QByteArray result; return result;}
 36a:	55                   	push   %rbp
 36b:	48 89 e5             	mov    %rsp,%rbp
 36e:	48 83 ec 20          	sub    $0x20,%rsp
 372:	48 89 7d e8          	mov    %rdi,-0x18(%rbp)
 376:	48 89 75 e0          	mov    %rsi,-0x20(%rbp)
 37a:	64 48 8b 04 25 28 00 	mov    %fs:0x28,%rax
 381:	00 00 
 383:	48 89 45 f8          	mov    %rax,-0x8(%rbp)
 387:	31 c0                	xor    %eax,%eax
 389:	48 8b 45 e8          	mov    -0x18(%rbp),%rax
 38d:	48 89 c7             	mov    %rax,%rdi
 390:	e8 00 00 00 00       	callq  395 <_ZN1a2A8Ev+0x2b>
 395:	90                   	nop
 396:	48 8b 45 e8          	mov    -0x18(%rbp),%rax
 39a:	48 8b 55 f8          	mov    -0x8(%rbp),%rdx
 39e:	64 48 33 14 25 28 00 	xor    %fs:0x28,%rdx
 3a5:	00 00 
 3a7:	74 05                	je     3ae <_ZN1a2A8Ev+0x44>
 3a9:	e8 00 00 00 00       	callq  3ae <_ZN1a2A8Ev+0x44>
 3ae:	c9                   	leaveq 
 3af:	c3                   	retq   

Дизассемблирование раздела .text._ZnwmPv:

0000000000000000 <_ZnwmPv>:

#define packLocal 0x11

//HEADERS like A1 A2 A3 A4 A5 A6 and other.

varParameters::varParameters(){
   0:	55                   	push   %rbp
   1:	48 89 e5             	mov    %rsp,%rbp
   4:	48 89 7d f8          	mov    %rdi,-0x8(%rbp)
    this->eventCHANGE   =0;  // zero is cool too.
   8:	48 89 75 f0          	mov    %rsi,-0x10(%rbp)
   c:	48 8b 45 f0          	mov    -0x10(%rbp),%rax
  10:	5d                   	pop    %rbp
  11:	c3                   	retq   

Дизассемблирование раздела .text._ZdlPvS_:

0000000000000000 <_ZdlPvS_>:

#define packLocal 0x11

//HEADERS like A1 A2 A3 A4 A5 A6 and other.

varParameters::varParameters(){
   0:	55                   	push   %rbp
   1:	48 89 e5             	mov    %rsp,%rbp
   4:	48 89 7d f8          	mov    %rdi,-0x8(%rbp)
    this->eventCHANGE   =0;  // zero is cool too.
   8:	48 89 75 f0          	mov    %rsi,-0x10(%rbp)
   c:	90                   	nop
   d:	5d                   	pop    %rbp
   e:	c3                   	retq   

Дизассемблирование раздела .text._ZN9QtPrivate8RefCount3refEv:

0000000000000000 <_ZN9QtPrivate8RefCount3refEv>:

#define packLocal 0x11

//HEADERS like A1 A2 A3 A4 A5 A6 and other.

varParameters::varParameters(){
   0:	55                   	push   %rbp
   1:	48 89 e5             	mov    %rsp,%rbp
   4:	48 83 ec 20          	sub    $0x20,%rsp
    this->eventCHANGE   =0;  // zero is cool too.
   8:	48 89 7d e8          	mov    %rdi,-0x18(%rbp)
   c:	48 8b 45 e8          	mov    -0x18(%rbp),%rax
  10:	48 89 c7             	mov    %rax,%rdi
    this->eventSET      =0;
  13:	e8 00 00 00 00       	callq  18 <_ZN9QtPrivate8RefCount3refEv+0x18>
  18:	89 45 fc             	mov    %eax,-0x4(%rbp)
  1b:	83 7d fc 00          	cmpl   $0x0,-0x4(%rbp)
    this->eventZERO     =0;
  1f:	75 07                	jne    28 <_ZN9QtPrivate8RefCount3refEv+0x28>
  21:	b8 00 00 00 00       	mov    $0x0,%eax

    this->indexRP       =0;
  26:	eb 17                	jmp    3f <_ZN9QtPrivate8RefCount3refEv+0x3f>
  28:	83 7d fc ff          	cmpl   $0xffffffff,-0x4(%rbp)
  2c:	74 0c                	je     3a <_ZN9QtPrivate8RefCount3refEv+0x3a>
  2e:	48 8b 45 e8          	mov    -0x18(%rbp),%rax
}

a::a()
  32:	48 89 c7             	mov    %rax,%rdi
  35:	e8 00 00 00 00       	callq  3a <_ZN9QtPrivate8RefCount3refEv+0x3a>
{

}
  3a:	b8 01 00 00 00       	mov    $0x1,%eax

QByteArray a::A1(){QByteArray result; return result;}
  3f:	c9                   	leaveq 
  40:	c3                   	retq   

Дизассемблирование раздела .text._ZN9QtPrivate8RefCount5derefEv:

0000000000000000 <_ZN9QtPrivate8RefCount5derefEv>:

#define packLocal 0x11

//HEADERS like A1 A2 A3 A4 A5 A6 and other.

varParameters::varParameters(){
   0:	55                   	push   %rbp
   1:	48 89 e5             	mov    %rsp,%rbp
   4:	48 83 ec 20          	sub    $0x20,%rsp
    this->eventCHANGE   =0;  // zero is cool too.
   8:	48 89 7d e8          	mov    %rdi,-0x18(%rbp)
   c:	48 8b 45 e8          	mov    -0x18(%rbp),%rax
  10:	48 89 c7             	mov    %rax,%rdi
    this->eventSET      =0;
  13:	e8 00 00 00 00       	callq  18 <_ZN9QtPrivate8RefCount5derefEv+0x18>
  18:	89 45 fc             	mov    %eax,-0x4(%rbp)
  1b:	83 7d fc 00          	cmpl   $0x0,-0x4(%rbp)
    this->eventZERO     =0;
  1f:	75 07                	jne    28 <_ZN9QtPrivate8RefCount5derefEv+0x28>
  21:	b8 00 00 00 00       	mov    $0x0,%eax

    this->indexRP       =0;
  26:	eb 19                	jmp    41 <_ZN9QtPrivate8RefCount5derefEv+0x41>
  28:	83 7d fc ff          	cmpl   $0xffffffff,-0x4(%rbp)
  2c:	75 07                	jne    35 <_ZN9QtPrivate8RefCount5derefEv+0x35>
  2e:	b8 01 00 00 00       	mov    $0x1,%eax
}

a::a()
  33:	eb 0c                	jmp    41 <_ZN9QtPrivate8RefCount5derefEv+0x41>
  35:	48 8b 45 e8          	mov    -0x18(%rbp),%rax
  39:	48 89 c7             	mov    %rax,%rdi
{

}
  3c:	e8 00 00 00 00       	callq  41 <_ZN9QtPrivate8RefCount5derefEv+0x41>

QByteArray a::A1(){QByteArray result; return result;}
  41:	c9                   	leaveq 
  42:	c3                   	retq   

Дизассемблирование раздела .text._ZNK9QtPrivate8RefCount8isSharedEv:

0000000000000000 <_ZNK9QtPrivate8RefCount8isSharedEv>:

#define packLocal 0x11

//HEADERS like A1 A2 A3 A4 A5 A6 and other.

varParameters::varParameters(){
   0:	55                   	push   %rbp
   1:	48 89 e5             	mov    %rsp,%rbp
   4:	48 83 ec 20          	sub    $0x20,%rsp
    this->eventCHANGE   =0;  // zero is cool too.
   8:	48 89 7d e8          	mov    %rdi,-0x18(%rbp)
   c:	48 8b 45 e8          	mov    -0x18(%rbp),%rax
  10:	48 89 c7             	mov    %rax,%rdi
    this->eventSET      =0;
  13:	e8 00 00 00 00       	callq  18 <_ZNK9QtPrivate8RefCount8isSharedEv+0x18>
  18:	89 45 fc             	mov    %eax,-0x4(%rbp)
  1b:	83 7d fc 01          	cmpl   $0x1,-0x4(%rbp)
    this->eventZERO     =0;
  1f:	74 0d                	je     2e <_ZNK9QtPrivate8RefCount8isSharedEv+0x2e>
  21:	83 7d fc 00          	cmpl   $0x0,-0x4(%rbp)
  25:	74 07                	je     2e <_ZNK9QtPrivate8RefCount8isSharedEv+0x2e>

    this->indexRP       =0;
  27:	b8 01 00 00 00       	mov    $0x1,%eax
  2c:	eb 05                	jmp    33 <_ZNK9QtPrivate8RefCount8isSharedEv+0x33>
  2e:	b8 00 00 00 00       	mov    $0x0,%eax
}

a::a()
  33:	c9                   	leaveq 
  34:	c3                   	retq   

Дизассемблирование раздела .text._ZN10QArrayData10sharedNullEv:

0000000000000000 <_ZN10QArrayData10sharedNullEv>:

#define packLocal 0x11

//HEADERS like A1 A2 A3 A4 A5 A6 and other.

varParameters::varParameters(){
   0:	55                   	push   %rbp
   1:	48 89 e5             	mov    %rsp,%rbp
   4:	48 8b 05 00 00 00 00 	mov    0x0(%rip),%rax        # b <_ZN10QArrayData10sharedNullEv+0xb>
    this->eventCHANGE   =0;  // zero is cool too.
   b:	5d                   	pop    %rbp
   c:	c3                   	retq   

Дизассемблирование раздела .text._ZN10QByteArrayC2Ev:

0000000000000000 <_ZN10QByteArrayC1Ev>:

#define packLocal 0x11

//HEADERS like A1 A2 A3 A4 A5 A6 and other.

varParameters::varParameters(){
   0:	55                   	push   %rbp
   1:	48 89 e5             	mov    %rsp,%rbp
   4:	48 83 ec 10          	sub    $0x10,%rsp
    this->eventCHANGE   =0;  // zero is cool too.
   8:	48 89 7d f8          	mov    %rdi,-0x8(%rbp)
   c:	e8 00 00 00 00       	callq  11 <_ZN10QByteArrayC1Ev+0x11>
  11:	48 89 c2             	mov    %rax,%rdx
    this->eventSET      =0;
  14:	48 8b 45 f8          	mov    -0x8(%rbp),%rax
  18:	48 89 10             	mov    %rdx,(%rax)
  1b:	90                   	nop
    this->eventZERO     =0;
  1c:	c9                   	leaveq 
  1d:	c3                   	retq   

Дизассемблирование раздела .text._ZN10QByteArrayD2Ev:

0000000000000000 <_ZN10QByteArrayD1Ev>:

#define packLocal 0x11

//HEADERS like A1 A2 A3 A4 A5 A6 and other.

varParameters::varParameters(){
   0:	55                   	push   %rbp
   1:	48 89 e5             	mov    %rsp,%rbp
   4:	48 83 ec 10          	sub    $0x10,%rsp
    this->eventCHANGE   =0;  // zero is cool too.
   8:	48 89 7d f8          	mov    %rdi,-0x8(%rbp)
   c:	48 8b 45 f8          	mov    -0x8(%rbp),%rax
  10:	48 8b 00             	mov    (%rax),%rax
    this->eventSET      =0;
  13:	48 89 c7             	mov    %rax,%rdi
  16:	e8 00 00 00 00       	callq  1b <_ZN10QByteArrayD1Ev+0x1b>
  1b:	83 f0 01             	xor    $0x1,%eax
    this->eventZERO     =0;
  1e:	84 c0                	test   %al,%al
  20:	74 0f                	je     31 <_ZN10QByteArrayD1Ev+0x31>
  22:	48 8b 45 f8          	mov    -0x8(%rbp),%rax

    this->indexRP       =0;
  26:	48 8b 00             	mov    (%rax),%rax
  29:	48 89 c7             	mov    %rax,%rdi
  2c:	e8 00 00 00 00       	callq  31 <_ZN10QByteArrayD1Ev+0x31>
}
  31:	90                   	nop

a::a()
  32:	c9                   	leaveq 
  33:	c3                   	retq   

Дизассемблирование раздела .text._ZN10QByteArrayC2ERKS_:

0000000000000000 <_ZN10QByteArrayC1ERKS_>:

#define packLocal 0x11

//HEADERS like A1 A2 A3 A4 A5 A6 and other.

varParameters::varParameters(){
   0:	55                   	push   %rbp
   1:	48 89 e5             	mov    %rsp,%rbp
   4:	48 83 ec 10          	sub    $0x10,%rsp
    this->eventCHANGE   =0;  // zero is cool too.
   8:	48 89 7d f8          	mov    %rdi,-0x8(%rbp)
   c:	48 89 75 f0          	mov    %rsi,-0x10(%rbp)
  10:	48 8b 45 f0          	mov    -0x10(%rbp),%rax
    this->eventSET      =0;
  14:	48 8b 10             	mov    (%rax),%rdx
  17:	48 8b 45 f8          	mov    -0x8(%rbp),%rax
  1b:	48 89 10             	mov    %rdx,(%rax)
    this->eventZERO     =0;
  1e:	48 8b 45 f8          	mov    -0x8(%rbp),%rax
  22:	48 8b 00             	mov    (%rax),%rax
  25:	48 89 c7             	mov    %rax,%rdi

    this->indexRP       =0;
  28:	e8 00 00 00 00       	callq  2d <_ZN10QByteArrayC1ERKS_+0x2d>
  2d:	90                   	nop
  2e:	c9                   	leaveq 
}
  2f:	c3                   	retq   

Дизассемблирование раздела .text._ZN9QListData7disposeEv:

0000000000000000 <_ZN9QListData7disposeEv>:

#define packLocal 0x11

//HEADERS like A1 A2 A3 A4 A5 A6 and other.

varParameters::varParameters(){
   0:	55                   	push   %rbp
   1:	48 89 e5             	mov    %rsp,%rbp
   4:	48 83 ec 10          	sub    $0x10,%rsp
    this->eventCHANGE   =0;  // zero is cool too.
   8:	48 89 7d f8          	mov    %rdi,-0x8(%rbp)
   c:	48 8b 45 f8          	mov    -0x8(%rbp),%rax
  10:	48 8b 00             	mov    (%rax),%rax
    this->eventSET      =0;
  13:	48 89 c7             	mov    %rax,%rdi
  16:	e8 00 00 00 00       	callq  1b <_ZN9QListData7disposeEv+0x1b>
  1b:	90                   	nop
    this->eventZERO     =0;
  1c:	c9                   	leaveq 
  1d:	c3                   	retq   

Дизассемблирование раздела .text._ZNK9QListData4sizeEv:

0000000000000000 <_ZNK9QListData4sizeEv>:

#define packLocal 0x11

//HEADERS like A1 A2 A3 A4 A5 A6 and other.

varParameters::varParameters(){
   0:	55                   	push   %rbp
   1:	48 89 e5             	mov    %rsp,%rbp
   4:	48 89 7d f8          	mov    %rdi,-0x8(%rbp)
    this->eventCHANGE   =0;  // zero is cool too.
   8:	48 8b 45 f8          	mov    -0x8(%rbp),%rax
   c:	48 8b 00             	mov    (%rax),%rax
   f:	8b 50 0c             	mov    0xc(%rax),%edx
    this->eventSET      =0;
  12:	48 8b 45 f8          	mov    -0x8(%rbp),%rax
  16:	48 8b 00             	mov    (%rax),%rax
  19:	8b 40 08             	mov    0x8(%rax),%eax
    this->eventZERO     =0;
  1c:	29 c2                	sub    %eax,%edx
  1e:	89 d0                	mov    %edx,%eax
  20:	5d                   	pop    %rbp
  21:	c3                   	retq   

Дизассемблирование раздела .text._ZNK9QListData5beginEv:

0000000000000000 <_ZNK9QListData5beginEv>:

#define packLocal 0x11

//HEADERS like A1 A2 A3 A4 A5 A6 and other.

varParameters::varParameters(){
   0:	55                   	push   %rbp
   1:	48 89 e5             	mov    %rsp,%rbp
   4:	48 89 7d f8          	mov    %rdi,-0x8(%rbp)
    this->eventCHANGE   =0;  // zero is cool too.
   8:	48 8b 45 f8          	mov    -0x8(%rbp),%rax
   c:	48 8b 00             	mov    (%rax),%rax
   f:	48 8d 50 10          	lea    0x10(%rax),%rdx
    this->eventSET      =0;
  13:	48 8b 45 f8          	mov    -0x8(%rbp),%rax
  17:	48 8b 00             	mov    (%rax),%rax
  1a:	8b 40 08             	mov    0x8(%rax),%eax
    this->eventZERO     =0;
  1d:	48 98                	cltq   
  1f:	48 c1 e0 03          	shl    $0x3,%rax
  23:	48 01 d0             	add    %rdx,%rax

    this->indexRP       =0;
  26:	5d                   	pop    %rbp
  27:	c3                   	retq   

Дизассемблирование раздела .text._ZNK9QListData3endEv:

0000000000000000 <_ZNK9QListData3endEv>:

#define packLocal 0x11

//HEADERS like A1 A2 A3 A4 A5 A6 and other.

varParameters::varParameters(){
   0:	55                   	push   %rbp
   1:	48 89 e5             	mov    %rsp,%rbp
   4:	48 89 7d f8          	mov    %rdi,-0x8(%rbp)
    this->eventCHANGE   =0;  // zero is cool too.
   8:	48 8b 45 f8          	mov    -0x8(%rbp),%rax
   c:	48 8b 00             	mov    (%rax),%rax
   f:	48 8d 50 10          	lea    0x10(%rax),%rdx
    this->eventSET      =0;
  13:	48 8b 45 f8          	mov    -0x8(%rbp),%rax
  17:	48 8b 00             	mov    (%rax),%rax
  1a:	8b 40 0c             	mov    0xc(%rax),%eax
    this->eventZERO     =0;
  1d:	48 98                	cltq   
  1f:	48 c1 e0 03          	shl    $0x3,%rax
  23:	48 01 d0             	add    %rdx,%rax

    this->indexRP       =0;
  26:	5d                   	pop    %rbp
  27:	c3                   	retq   

Дизассемблирование раздела .text._ZNK19QBasicAtomicIntegerIiE4loadEv:

0000000000000000 <_ZNK19QBasicAtomicIntegerIiE4loadEv>:

#define packLocal 0x11

//HEADERS like A1 A2 A3 A4 A5 A6 and other.

varParameters::varParameters(){
   0:	55                   	push   %rbp
   1:	48 89 e5             	mov    %rsp,%rbp
   4:	48 89 7d e8          	mov    %rdi,-0x18(%rbp)
    this->eventCHANGE   =0;  // zero is cool too.
   8:	48 8b 45 e8          	mov    -0x18(%rbp),%rax
   c:	48 89 45 f8          	mov    %rax,-0x8(%rbp)
  10:	48 8b 45 f8          	mov    -0x8(%rbp),%rax
    this->eventSET      =0;
  14:	8b 00                	mov    (%rax),%eax
  16:	90                   	nop
  17:	5d                   	pop    %rbp
  18:	c3                   	retq   

Дизассемблирование раздела .text._ZN19QBasicAtomicIntegerIiE3refEv:

0000000000000000 <_ZN19QBasicAtomicIntegerIiE3refEv>:

#define packLocal 0x11

//HEADERS like A1 A2 A3 A4 A5 A6 and other.

varParameters::varParameters(){
   0:	55                   	push   %rbp
   1:	48 89 e5             	mov    %rsp,%rbp
   4:	48 83 ec 10          	sub    $0x10,%rsp
    this->eventCHANGE   =0;  // zero is cool too.
   8:	48 89 7d f8          	mov    %rdi,-0x8(%rbp)
   c:	48 8b 45 f8          	mov    -0x8(%rbp),%rax
  10:	48 89 c7             	mov    %rax,%rdi
    this->eventSET      =0;
  13:	e8 00 00 00 00       	callq  18 <_ZN19QBasicAtomicIntegerIiE3refEv+0x18>
  18:	c9                   	leaveq 
  19:	c3                   	retq   

Дизассемблирование раздела .text._ZN19QBasicAtomicIntegerIiE5derefEv:

0000000000000000 <_ZN19QBasicAtomicIntegerIiE5derefEv>:

#define packLocal 0x11

//HEADERS like A1 A2 A3 A4 A5 A6 and other.

varParameters::varParameters(){
   0:	55                   	push   %rbp
   1:	48 89 e5             	mov    %rsp,%rbp
   4:	48 83 ec 10          	sub    $0x10,%rsp
    this->eventCHANGE   =0;  // zero is cool too.
   8:	48 89 7d f8          	mov    %rdi,-0x8(%rbp)
   c:	48 8b 45 f8          	mov    -0x8(%rbp),%rax
  10:	48 89 c7             	mov    %rax,%rdi
    this->eventSET      =0;
  13:	e8 00 00 00 00       	callq  18 <_ZN19QBasicAtomicIntegerIiE5derefEv+0x18>
  18:	c9                   	leaveq 
  19:	c3                   	retq   

Дизассемблирование раздела .text._ZN15QTypedArrayDataIcE10sharedNullEv:

0000000000000000 <_ZN15QTypedArrayDataIcE10sharedNullEv>:

#define packLocal 0x11

//HEADERS like A1 A2 A3 A4 A5 A6 and other.

varParameters::varParameters(){
   0:	55                   	push   %rbp
   1:	48 89 e5             	mov    %rsp,%rbp
   4:	e8 00 00 00 00       	callq  9 <_ZN15QTypedArrayDataIcE10sharedNullEv+0x9>
    this->eventCHANGE   =0;  // zero is cool too.
   9:	5d                   	pop    %rbp
   a:	c3                   	retq   

Дизассемблирование раздела .text._ZN15QTypedArrayDataIcE10deallocateEP10QArrayData:

0000000000000000 <_ZN15QTypedArrayDataIcE10deallocateEP10QArrayData>:

#define packLocal 0x11

//HEADERS like A1 A2 A3 A4 A5 A6 and other.

varParameters::varParameters(){
   0:	55                   	push   %rbp
   1:	48 89 e5             	mov    %rsp,%rbp
   4:	48 83 ec 10          	sub    $0x10,%rsp
    this->eventCHANGE   =0;  // zero is cool too.
   8:	48 89 7d f8          	mov    %rdi,-0x8(%rbp)
   c:	48 8b 45 f8          	mov    -0x8(%rbp),%rax
  10:	ba 08 00 00 00       	mov    $0x8,%edx
    this->eventSET      =0;
  15:	be 01 00 00 00       	mov    $0x1,%esi
  1a:	48 89 c7             	mov    %rax,%rdi
    this->eventZERO     =0;
  1d:	e8 00 00 00 00       	callq  22 <_ZN15QTypedArrayDataIcE10deallocateEP10QArrayData+0x22>
  22:	90                   	nop
  23:	c9                   	leaveq 
  24:	c3                   	retq   

Дизассемблирование раздела .text._ZNK5QListI10QByteArrayE4sizeEv:

0000000000000000 <_ZNK5QListI10QByteArrayE4sizeEv>:

#define packLocal 0x11

//HEADERS like A1 A2 A3 A4 A5 A6 and other.

varParameters::varParameters(){
   0:	55                   	push   %rbp
   1:	48 89 e5             	mov    %rsp,%rbp
   4:	48 83 ec 10          	sub    $0x10,%rsp
    this->eventCHANGE   =0;  // zero is cool too.
   8:	48 89 7d f8          	mov    %rdi,-0x8(%rbp)
   c:	48 8b 45 f8          	mov    -0x8(%rbp),%rax
  10:	48 89 c7             	mov    %rax,%rdi
    this->eventSET      =0;
  13:	e8 00 00 00 00       	callq  18 <_ZNK5QListI10QByteArrayE4sizeEv+0x18>
  18:	c9                   	leaveq 
  19:	c3                   	retq   

Дизассемблирование раздела .text._ZN5QListI10QByteArrayE8iteratorC2Ev:

0000000000000000 <_ZN5QListI10QByteArrayE8iteratorC1Ev>:

#define packLocal 0x11

//HEADERS like A1 A2 A3 A4 A5 A6 and other.

varParameters::varParameters(){
   0:	55                   	push   %rbp
   1:	48 89 e5             	mov    %rsp,%rbp
   4:	48 89 7d f8          	mov    %rdi,-0x8(%rbp)
    this->eventCHANGE   =0;  // zero is cool too.
   8:	48 8b 45 f8          	mov    -0x8(%rbp),%rax
   c:	48 c7 00 00 00 00 00 	movq   $0x0,(%rax)
    this->eventSET      =0;
  13:	90                   	nop
  14:	5d                   	pop    %rbp
  15:	c3                   	retq   

Дизассемблирование раздела .text._ZN5QListI10QByteArrayE5beginEv:

0000000000000000 <_ZN5QListI10QByteArrayE5beginEv>:

#define packLocal 0x11

//HEADERS like A1 A2 A3 A4 A5 A6 and other.

varParameters::varParameters(){
   0:	55                   	push   %rbp
   1:	48 89 e5             	mov    %rsp,%rbp
   4:	48 83 ec 10          	sub    $0x10,%rsp
    this->eventCHANGE   =0;  // zero is cool too.
   8:	48 89 7d f8          	mov    %rdi,-0x8(%rbp)
   c:	48 89 75 f0          	mov    %rsi,-0x10(%rbp)
  10:	48 8b 45 f0          	mov    -0x10(%rbp),%rax
    this->eventSET      =0;
  14:	48 89 c7             	mov    %rax,%rdi
  17:	e8 00 00 00 00       	callq  1c <_ZN5QListI10QByteArrayE5beginEv+0x1c>
    this->eventZERO     =0;
  1c:	48 8b 45 f0          	mov    -0x10(%rbp),%rax
  20:	48 89 c7             	mov    %rax,%rdi
  23:	e8 00 00 00 00       	callq  28 <_ZN5QListI10QByteArrayE5beginEv+0x28>

    this->indexRP       =0;
  28:	48 89 c2             	mov    %rax,%rdx
  2b:	48 8b 45 f8          	mov    -0x8(%rbp),%rax
}
  2f:	48 89 d6             	mov    %rdx,%rsi

a::a()
  32:	48 89 c7             	mov    %rax,%rdi
  35:	e8 00 00 00 00       	callq  3a <_ZN5QListI10QByteArrayE5beginEv+0x3a>
{

}
  3a:	48 8b 45 f8          	mov    -0x8(%rbp),%rax

QByteArray a::A1(){QByteArray result; return result;}
  3e:	c9                   	leaveq 
  3f:	c3                   	retq   

Дизассемблирование раздела .text._ZN5QListI10QByteArrayE3endEv:

0000000000000000 <_ZN5QListI10QByteArrayE3endEv>:

#define packLocal 0x11

//HEADERS like A1 A2 A3 A4 A5 A6 and other.

varParameters::varParameters(){
   0:	55                   	push   %rbp
   1:	48 89 e5             	mov    %rsp,%rbp
   4:	48 83 ec 10          	sub    $0x10,%rsp
    this->eventCHANGE   =0;  // zero is cool too.
   8:	48 89 7d f8          	mov    %rdi,-0x8(%rbp)
   c:	48 89 75 f0          	mov    %rsi,-0x10(%rbp)
  10:	48 8b 45 f0          	mov    -0x10(%rbp),%rax
    this->eventSET      =0;
  14:	48 89 c7             	mov    %rax,%rdi
  17:	e8 00 00 00 00       	callq  1c <_ZN5QListI10QByteArrayE3endEv+0x1c>
    this->eventZERO     =0;
  1c:	48 8b 45 f0          	mov    -0x10(%rbp),%rax
  20:	48 89 c7             	mov    %rax,%rdi
  23:	e8 00 00 00 00       	callq  28 <_ZN5QListI10QByteArrayE3endEv+0x28>

    this->indexRP       =0;
  28:	48 89 c2             	mov    %rax,%rdx
  2b:	48 8b 45 f8          	mov    -0x8(%rbp),%rax
}
  2f:	48 89 d6             	mov    %rdx,%rsi

a::a()
  32:	48 89 c7             	mov    %rax,%rdi
  35:	e8 00 00 00 00       	callq  3a <_ZN5QListI10QByteArrayE3endEv+0x3a>
{

}
  3a:	48 8b 45 f8          	mov    -0x8(%rbp),%rax

QByteArray a::A1(){QByteArray result; return result;}
  3e:	c9                   	leaveq 
  3f:	c3                   	retq   

Дизассемблирование раздела .text._ZNK5QListI10QByteArrayE8iteratorneERKS2_:

0000000000000000 <_ZNK5QListI10QByteArrayE8iteratorneERKS2_>:

#define packLocal 0x11

//HEADERS like A1 A2 A3 A4 A5 A6 and other.

varParameters::varParameters(){
   0:	55                   	push   %rbp
   1:	48 89 e5             	mov    %rsp,%rbp
   4:	48 89 7d f8          	mov    %rdi,-0x8(%rbp)
    this->eventCHANGE   =0;  // zero is cool too.
   8:	48 89 75 f0          	mov    %rsi,-0x10(%rbp)
   c:	48 8b 45 f8          	mov    -0x8(%rbp),%rax
  10:	48 8b 10             	mov    (%rax),%rdx
    this->eventSET      =0;
  13:	48 8b 45 f0          	mov    -0x10(%rbp),%rax
  17:	48 8b 00             	mov    (%rax),%rax
  1a:	48 39 c2             	cmp    %rax,%rdx
    this->eventZERO     =0;
  1d:	0f 95 c0             	setne  %al
  20:	5d                   	pop    %rbp
  21:	c3                   	retq   

Дизассемблирование раздела .text._ZN5QListI10QByteArrayE8iteratorppEv:

0000000000000000 <_ZN5QListI10QByteArrayE8iteratorppEv>:

#define packLocal 0x11

//HEADERS like A1 A2 A3 A4 A5 A6 and other.

varParameters::varParameters(){
   0:	55                   	push   %rbp
   1:	48 89 e5             	mov    %rsp,%rbp
   4:	48 89 7d f8          	mov    %rdi,-0x8(%rbp)
    this->eventCHANGE   =0;  // zero is cool too.
   8:	48 8b 45 f8          	mov    -0x8(%rbp),%rax
   c:	48 8b 00             	mov    (%rax),%rax
   f:	48 8d 50 08          	lea    0x8(%rax),%rdx
    this->eventSET      =0;
  13:	48 8b 45 f8          	mov    -0x8(%rbp),%rax
  17:	48 89 10             	mov    %rdx,(%rax)
  1a:	48 8b 45 f8          	mov    -0x8(%rbp),%rax
    this->eventZERO     =0;
  1e:	5d                   	pop    %rbp
  1f:	c3                   	retq   

Дизассемблирование раздела .text._ZNK5QListI10QByteArrayE8iteratordeEv:

0000000000000000 <_ZNK5QListI10QByteArrayE8iteratordeEv>:

#define packLocal 0x11

//HEADERS like A1 A2 A3 A4 A5 A6 and other.

varParameters::varParameters(){
   0:	55                   	push   %rbp
   1:	48 89 e5             	mov    %rsp,%rbp
   4:	48 83 ec 10          	sub    $0x10,%rsp
    this->eventCHANGE   =0;  // zero is cool too.
   8:	48 89 7d f8          	mov    %rdi,-0x8(%rbp)
   c:	48 8b 45 f8          	mov    -0x8(%rbp),%rax
  10:	48 8b 00             	mov    (%rax),%rax
    this->eventSET      =0;
  13:	48 89 c7             	mov    %rax,%rdi
  16:	e8 00 00 00 00       	callq  1b <_ZNK5QListI10QByteArrayE8iteratordeEv+0x1b>
  1b:	c9                   	leaveq 
    this->eventZERO     =0;
  1c:	c3                   	retq   

Дизассемблирование раздела .text._ZN15QBasicAtomicOpsILi4EE3refIiEEbRT_:

0000000000000000 <_ZN15QBasicAtomicOpsILi4EE3refIiEEbRT_>:

#define packLocal 0x11

//HEADERS like A1 A2 A3 A4 A5 A6 and other.

varParameters::varParameters(){
   0:	55                   	push   %rbp
   1:	48 89 e5             	mov    %rsp,%rbp
   4:	48 89 7d e8          	mov    %rdi,-0x18(%rbp)
    this->eventCHANGE   =0;  // zero is cool too.
   8:	48 8b 45 e8          	mov    -0x18(%rbp),%rax
   c:	48 8b 55 e8          	mov    -0x18(%rbp),%rdx
  10:	f0 83 00 01          	lock addl $0x1,(%rax)
    this->eventSET      =0;
  14:	0f 95 c2             	setne  %dl
  17:	88 55 ff             	mov    %dl,-0x1(%rbp)
  1a:	80 7d ff 00          	cmpb   $0x0,-0x1(%rbp)
    this->eventZERO     =0;
  1e:	0f 95 c0             	setne  %al
  21:	5d                   	pop    %rbp
  22:	c3                   	retq   

Дизассемблирование раздела .text._ZN15QBasicAtomicOpsILi4EE5derefIiEEbRT_:

0000000000000000 <_ZN15QBasicAtomicOpsILi4EE5derefIiEEbRT_>:

#define packLocal 0x11

//HEADERS like A1 A2 A3 A4 A5 A6 and other.

varParameters::varParameters(){
   0:	55                   	push   %rbp
   1:	48 89 e5             	mov    %rsp,%rbp
   4:	48 89 7d e8          	mov    %rdi,-0x18(%rbp)
    this->eventCHANGE   =0;  // zero is cool too.
   8:	48 8b 45 e8          	mov    -0x18(%rbp),%rax
   c:	48 8b 55 e8          	mov    -0x18(%rbp),%rdx
  10:	f0 83 28 01          	lock subl $0x1,(%rax)
    this->eventSET      =0;
  14:	0f 95 c2             	setne  %dl
  17:	88 55 ff             	mov    %dl,-0x1(%rbp)
  1a:	80 7d ff 00          	cmpb   $0x0,-0x1(%rbp)
    this->eventZERO     =0;
  1e:	0f 95 c0             	setne  %al
  21:	5d                   	pop    %rbp
  22:	c3                   	retq   

Дизассемблирование раздела .text._ZN5QListI10QByteArrayE6detachEv:

0000000000000000 <_ZN5QListI10QByteArrayE6detachEv>:

#define packLocal 0x11

//HEADERS like A1 A2 A3 A4 A5 A6 and other.

varParameters::varParameters(){
   0:	55                   	push   %rbp
   1:	48 89 e5             	mov    %rsp,%rbp
   4:	48 83 ec 10          	sub    $0x10,%rsp
    this->eventCHANGE   =0;  // zero is cool too.
   8:	48 89 7d f8          	mov    %rdi,-0x8(%rbp)
   c:	48 8b 45 f8          	mov    -0x8(%rbp),%rax
  10:	48 8b 00             	mov    (%rax),%rax
    this->eventSET      =0;
  13:	48 89 c7             	mov    %rax,%rdi
  16:	e8 00 00 00 00       	callq  1b <_ZN5QListI10QByteArrayE6detachEv+0x1b>
  1b:	84 c0                	test   %al,%al
    this->eventZERO     =0;
  1d:	74 0c                	je     2b <_ZN5QListI10QByteArrayE6detachEv+0x2b>
  1f:	48 8b 45 f8          	mov    -0x8(%rbp),%rax
  23:	48 89 c7             	mov    %rax,%rdi

    this->indexRP       =0;
  26:	e8 00 00 00 00       	callq  2b <_ZN5QListI10QByteArrayE6detachEv+0x2b>
  2b:	90                   	nop
  2c:	c9                   	leaveq 
  2d:	c3                   	retq   

Дизассемблирование раздела .text._ZN5QListI10QByteArrayE8iteratorC2EPNS1_4NodeE:

0000000000000000 <_ZN5QListI10QByteArrayE8iteratorC1EPNS1_4NodeE>:

#define packLocal 0x11

//HEADERS like A1 A2 A3 A4 A5 A6 and other.

varParameters::varParameters(){
   0:	55                   	push   %rbp
   1:	48 89 e5             	mov    %rsp,%rbp
   4:	48 89 7d f8          	mov    %rdi,-0x8(%rbp)
    this->eventCHANGE   =0;  // zero is cool too.
   8:	48 89 75 f0          	mov    %rsi,-0x10(%rbp)
   c:	48 8b 45 f8          	mov    -0x8(%rbp),%rax
  10:	48 8b 55 f0          	mov    -0x10(%rbp),%rdx
    this->eventSET      =0;
  14:	48 89 10             	mov    %rdx,(%rax)
  17:	90                   	nop
  18:	5d                   	pop    %rbp
  19:	c3                   	retq   

Дизассемблирование раздела .text._ZN5QListI10QByteArrayE4Node1tEv:

0000000000000000 <_ZN5QListI10QByteArrayE4Node1tEv>:

#define packLocal 0x11

//HEADERS like A1 A2 A3 A4 A5 A6 and other.

varParameters::varParameters(){
   0:	55                   	push   %rbp
   1:	48 89 e5             	mov    %rsp,%rbp
   4:	48 89 7d f8          	mov    %rdi,-0x8(%rbp)
    this->eventCHANGE   =0;  // zero is cool too.
   8:	48 8b 45 f8          	mov    -0x8(%rbp),%rax
   c:	5d                   	pop    %rbp
   d:	c3                   	retq   

Дизассемблирование раздела .text._ZN5QListI10QByteArrayE13detach_helperEv:

0000000000000000 <_ZN5QListI10QByteArrayE13detach_helperEv>:

#define packLocal 0x11

//HEADERS like A1 A2 A3 A4 A5 A6 and other.

varParameters::varParameters(){
   0:	55                   	push   %rbp
   1:	48 89 e5             	mov    %rsp,%rbp
   4:	48 83 ec 10          	sub    $0x10,%rsp
    this->eventCHANGE   =0;  // zero is cool too.
   8:	48 89 7d f8          	mov    %rdi,-0x8(%rbp)
   c:	48 8b 45 f8          	mov    -0x8(%rbp),%rax
  10:	48 8b 00             	mov    (%rax),%rax
    this->eventSET      =0;
  13:	8b 50 04             	mov    0x4(%rax),%edx
  16:	48 8b 45 f8          	mov    -0x8(%rbp),%rax
  1a:	89 d6                	mov    %edx,%esi
    this->eventZERO     =0;
  1c:	48 89 c7             	mov    %rax,%rdi
  1f:	e8 00 00 00 00       	callq  24 <_ZN5QListI10QByteArrayE13detach_helperEv+0x24>
  24:	90                   	nop
  25:	c9                   	leaveq 

    this->indexRP       =0;
  26:	c3                   	retq   

Дизассемблирование раздела .text._ZN5QListI10QByteArrayE13detach_helperEi:

0000000000000000 <_ZN5QListI10QByteArrayE13detach_helperEi>:

#define packLocal 0x11

//HEADERS like A1 A2 A3 A4 A5 A6 and other.

varParameters::varParameters(){
   0:	55                   	push   %rbp
   1:	48 89 e5             	mov    %rsp,%rbp
   4:	53                   	push   %rbx
   5:	48 83 ec 28          	sub    $0x28,%rsp
    this->eventCHANGE   =0;  // zero is cool too.
   9:	48 89 7d d8          	mov    %rdi,-0x28(%rbp)
   d:	89 75 d4             	mov    %esi,-0x2c(%rbp)
  10:	48 8b 45 d8          	mov    -0x28(%rbp),%rax
    this->eventSET      =0;
  14:	48 89 c7             	mov    %rax,%rdi
  17:	e8 00 00 00 00       	callq  1c <_ZN5QListI10QByteArrayE13detach_helperEi+0x1c>
    this->eventZERO     =0;
  1c:	48 89 45 e0          	mov    %rax,-0x20(%rbp)
  20:	48 8b 45 d8          	mov    -0x28(%rbp),%rax
  24:	8b 55 d4             	mov    -0x2c(%rbp),%edx

    this->indexRP       =0;
  27:	89 d6                	mov    %edx,%esi
  29:	48 89 c7             	mov    %rax,%rdi
  2c:	e8 00 00 00 00       	callq  31 <_ZN5QListI10QByteArrayE13detach_helperEi+0x31>
}
  31:	48 89 45 e8          	mov    %rax,-0x18(%rbp)

a::a()
  35:	48 8b 45 d8          	mov    -0x28(%rbp),%rax
  39:	48 89 c7             	mov    %rax,%rdi
{

}
  3c:	e8 00 00 00 00       	callq  41 <_ZN5QListI10QByteArrayE13detach_helperEi+0x41>

QByteArray a::A1(){QByteArray result; return result;}
  41:	48 89 c3             	mov    %rax,%rbx
  44:	48 8b 45 d8          	mov    -0x28(%rbp),%rax
  48:	48 89 c7             	mov    %rax,%rdi
  4b:	e8 00 00 00 00       	callq  50 <_ZN5QListI10QByteArrayE13detach_helperEi+0x50>
  50:	48 89 c6             	mov    %rax,%rsi
  53:	48 8b 55 e0          	mov    -0x20(%rbp),%rdx
  57:	48 8b 45 d8          	mov    -0x28(%rbp),%rax
  5b:	48 89 d1             	mov    %rdx,%rcx
  5e:	48 89 da             	mov    %rbx,%rdx
  61:	48 89 c7             	mov    %rax,%rdi
  64:	e8 00 00 00 00       	callq  69 <_ZN5QListI10QByteArrayE13detach_helperEi+0x69>
  69:	48 8b 45 e8          	mov    -0x18(%rbp),%rax
  6d:	48 89 c7             	mov    %rax,%rdi
  70:	e8 00 00 00 00       	callq  75 <_ZN5QListI10QByteArrayE13detach_helperEi+0x75>
  75:	83 f0 01             	xor    $0x1,%eax
  78:	84 c0                	test   %al,%al
  7a:	74 4c                	je     c8 <_ZN5QListI10QByteArrayE13detach_helperEi+0xc8>
  7c:	48 8b 55 e8          	mov    -0x18(%rbp),%rdx
  80:	48 8b 45 d8          	mov    -0x28(%rbp),%rax
QByteArray a::A2(){QByteArray result; return result;}
  84:	48 89 d6             	mov    %rdx,%rsi
  87:	48 89 c7             	mov    %rax,%rdi
  8a:	e8 00 00 00 00       	callq  8f <_ZN5QListI10QByteArrayE13detach_helperEi+0x8f>
  8f:	eb 37                	jmp    c8 <_ZN5QListI10QByteArrayE13detach_helperEi+0xc8>
  91:	48 89 c7             	mov    %rax,%rdi
  94:	e8 00 00 00 00       	callq  99 <_ZN5QListI10QByteArrayE13detach_helperEi+0x99>
  99:	48 8b 45 d8          	mov    -0x28(%rbp),%rax
  9d:	48 89 c7             	mov    %rax,%rdi
  a0:	e8 00 00 00 00       	callq  a5 <_ZN5QListI10QByteArrayE13detach_helperEi+0xa5>
  a5:	48 8b 45 d8          	mov    -0x28(%rbp),%rax
  a9:	48 8b 55 e8          	mov    -0x18(%rbp),%rdx
  ad:	48 89 10             	mov    %rdx,(%rax)
  b0:	e8 00 00 00 00       	callq  b5 <_ZN5QListI10QByteArrayE13detach_helperEi+0xb5>
  b5:	48 89 c3             	mov    %rax,%rbx
  b8:	e8 00 00 00 00       	callq  bd <_ZN5QListI10QByteArrayE13detach_helperEi+0xbd>
  bd:	48 89 d8             	mov    %rbx,%rax
  c0:	48 89 c7             	mov    %rax,%rdi
  c3:	e8 00 00 00 00       	callq  c8 <_ZN5QListI10QByteArrayE13detach_helperEi+0xc8>
  c8:	90                   	nop
  c9:	48 83 c4 28          	add    $0x28,%rsp
QByteArray a::A3(){QByteArray result; return result;}
  cd:	5b                   	pop    %rbx
  ce:	5d                   	pop    %rbp
  cf:	c3                   	retq   

Дизассемблирование раздела .text._ZN5QListI10QByteArrayE9node_copyEPNS1_4NodeES3_S3_:

0000000000000000 <_ZN5QListI10QByteArrayE9node_copyEPNS1_4NodeES3_S3_>:

#define packLocal 0x11

//HEADERS like A1 A2 A3 A4 A5 A6 and other.

varParameters::varParameters(){
   0:	55                   	push   %rbp
   1:	48 89 e5             	mov    %rsp,%rbp
   4:	41 55                	push   %r13
   6:	41 54                	push   %r12
    this->eventCHANGE   =0;  // zero is cool too.
   8:	53                   	push   %rbx
   9:	48 83 ec 38          	sub    $0x38,%rsp
   d:	48 89 7d c8          	mov    %rdi,-0x38(%rbp)
  11:	48 89 75 c0          	mov    %rsi,-0x40(%rbp)
    this->eventSET      =0;
  15:	48 89 55 b8          	mov    %rdx,-0x48(%rbp)
  19:	48 89 4d b0          	mov    %rcx,-0x50(%rbp)
    this->eventZERO     =0;
  1d:	48 8b 45 c0          	mov    -0x40(%rbp),%rax
  21:	48 89 45 d8          	mov    %rax,-0x28(%rbp)
  25:	48 8b 45 d8          	mov    -0x28(%rbp),%rax

    this->indexRP       =0;
  29:	48 3b 45 b8          	cmp    -0x48(%rbp),%rax
  2d:	0f 84 8a 00 00 00    	je     bd <_ZN5QListI10QByteArrayE9node_copyEPNS1_4NodeES3_S3_+0xbd>
}

a::a()
  33:	4c 8b 65 d8          	mov    -0x28(%rbp),%r12
  37:	4c 89 e6             	mov    %r12,%rsi
{

}
  3a:	bf 08 00 00 00       	mov    $0x8,%edi

QByteArray a::A1(){QByteArray result; return result;}
  3f:	e8 00 00 00 00       	callq  44 <_ZN5QListI10QByteArrayE9node_copyEPNS1_4NodeES3_S3_+0x44>
  44:	48 89 c3             	mov    %rax,%rbx
  47:	48 85 db             	test   %rbx,%rbx
  4a:	74 0f                	je     5b <_ZN5QListI10QByteArrayE9node_copyEPNS1_4NodeES3_S3_+0x5b>
  4c:	48 8b 45 b0          	mov    -0x50(%rbp),%rax
  50:	48 89 c6             	mov    %rax,%rsi
  53:	48 89 df             	mov    %rbx,%rdi
  56:	e8 00 00 00 00       	callq  5b <_ZN5QListI10QByteArrayE9node_copyEPNS1_4NodeES3_S3_+0x5b>
  5b:	48 83 45 d8 08       	addq   $0x8,-0x28(%rbp)
  60:	48 83 45 b0 08       	addq   $0x8,-0x50(%rbp)
  65:	eb be                	jmp    25 <_ZN5QListI10QByteArrayE9node_copyEPNS1_4NodeES3_S3_+0x25>
  67:	49 89 c5             	mov    %rax,%r13
  6a:	4c 89 e6             	mov    %r12,%rsi
  6d:	48 89 df             	mov    %rbx,%rdi
  70:	e8 00 00 00 00       	callq  75 <_ZN5QListI10QByteArrayE9node_copyEPNS1_4NodeES3_S3_+0x75>
  75:	4c 89 e8             	mov    %r13,%rax
  78:	48 89 c7             	mov    %rax,%rdi
  7b:	e8 00 00 00 00       	callq  80 <_ZN5QListI10QByteArrayE9node_copyEPNS1_4NodeES3_S3_+0x80>
  80:	48 8b 45 d8          	mov    -0x28(%rbp),%rax
QByteArray a::A2(){QByteArray result; return result;}
  84:	48 8d 50 f8          	lea    -0x8(%rax),%rdx
  88:	48 89 55 d8          	mov    %rdx,-0x28(%rbp)
  8c:	48 3b 45 c0          	cmp    -0x40(%rbp),%rax
  90:	0f 95 c0             	setne  %al
  93:	84 c0                	test   %al,%al
  95:	74 0e                	je     a5 <_ZN5QListI10QByteArrayE9node_copyEPNS1_4NodeES3_S3_+0xa5>
  97:	48 8b 45 d8          	mov    -0x28(%rbp),%rax
  9b:	48 89 c7             	mov    %rax,%rdi
  9e:	e8 00 00 00 00       	callq  a3 <_ZN5QListI10QByteArrayE9node_copyEPNS1_4NodeES3_S3_+0xa3>
  a3:	eb db                	jmp    80 <_ZN5QListI10QByteArrayE9node_copyEPNS1_4NodeES3_S3_+0x80>
  a5:	e8 00 00 00 00       	callq  aa <_ZN5QListI10QByteArrayE9node_copyEPNS1_4NodeES3_S3_+0xaa>
  aa:	48 89 c3             	mov    %rax,%rbx
  ad:	e8 00 00 00 00       	callq  b2 <_ZN5QListI10QByteArrayE9node_copyEPNS1_4NodeES3_S3_+0xb2>
  b2:	48 89 d8             	mov    %rbx,%rax
  b5:	48 89 c7             	mov    %rax,%rdi
  b8:	e8 00 00 00 00       	callq  bd <_ZN5QListI10QByteArrayE9node_copyEPNS1_4NodeES3_S3_+0xbd>
  bd:	90                   	nop
  be:	48 83 c4 38          	add    $0x38,%rsp
  c2:	5b                   	pop    %rbx
  c3:	41 5c                	pop    %r12
  c5:	41 5d                	pop    %r13
  c7:	5d                   	pop    %rbp
  c8:	c3                   	retq   

Дизассемблирование раздела .text._ZN5QListI10QByteArrayE7deallocEPN9QListData4DataE:

0000000000000000 <_ZN5QListI10QByteArrayE7deallocEPN9QListData4DataE>:

#define packLocal 0x11

//HEADERS like A1 A2 A3 A4 A5 A6 and other.

varParameters::varParameters(){
   0:	55                   	push   %rbp
   1:	48 89 e5             	mov    %rsp,%rbp
   4:	48 83 ec 10          	sub    $0x10,%rsp
    this->eventCHANGE   =0;  // zero is cool too.
   8:	48 89 7d f8          	mov    %rdi,-0x8(%rbp)
   c:	48 89 75 f0          	mov    %rsi,-0x10(%rbp)
  10:	48 8b 45 f0          	mov    -0x10(%rbp),%rax
    this->eventSET      =0;
  14:	48 8d 50 10          	lea    0x10(%rax),%rdx
  18:	48 8b 45 f0          	mov    -0x10(%rbp),%rax
    this->eventZERO     =0;
  1c:	8b 40 0c             	mov    0xc(%rax),%eax
  1f:	48 98                	cltq   
  21:	48 c1 e0 03          	shl    $0x3,%rax
  25:	48 01 c2             	add    %rax,%rdx

    this->indexRP       =0;
  28:	48 8b 45 f0          	mov    -0x10(%rbp),%rax
  2c:	48 8d 48 10          	lea    0x10(%rax),%rcx
}
  30:	48 8b 45 f0          	mov    -0x10(%rbp),%rax

a::a()
  34:	8b 40 08             	mov    0x8(%rax),%eax
  37:	48 98                	cltq   
  39:	48 c1 e0 03          	shl    $0x3,%rax
{

}
  3d:	48 01 c1             	add    %rax,%rcx

QByteArray a::A1(){QByteArray result; return result;}
  40:	48 8b 45 f8          	mov    -0x8(%rbp),%rax
  44:	48 89 ce             	mov    %rcx,%rsi
  47:	48 89 c7             	mov    %rax,%rdi
  4a:	e8 00 00 00 00       	callq  4f <_ZN5QListI10QByteArrayE7deallocEPN9QListData4DataE+0x4f>
  4f:	48 8b 45 f0          	mov    -0x10(%rbp),%rax
  53:	48 89 c7             	mov    %rax,%rdi
  56:	e8 00 00 00 00       	callq  5b <_ZN5QListI10QByteArrayE7deallocEPN9QListData4DataE+0x5b>
  5b:	90                   	nop
  5c:	c9                   	leaveq 
  5d:	c3                   	retq   

Дизассемблирование раздела .text._ZN5QListI10QByteArrayE13node_destructEPNS1_4NodeES3_:

0000000000000000 <_ZN5QListI10QByteArrayE13node_destructEPNS1_4NodeES3_>:

#define packLocal 0x11

//HEADERS like A1 A2 A3 A4 A5 A6 and other.

varParameters::varParameters(){
   0:	55                   	push   %rbp
   1:	48 89 e5             	mov    %rsp,%rbp
   4:	48 83 ec 20          	sub    $0x20,%rsp
    this->eventCHANGE   =0;  // zero is cool too.
   8:	48 89 7d f8          	mov    %rdi,-0x8(%rbp)
   c:	48 89 75 f0          	mov    %rsi,-0x10(%rbp)
  10:	48 89 55 e8          	mov    %rdx,-0x18(%rbp)
    this->eventSET      =0;
  14:	48 8b 45 f0          	mov    -0x10(%rbp),%rax
  18:	48 3b 45 e8          	cmp    -0x18(%rbp),%rax
    this->eventZERO     =0;
  1c:	74 13                	je     31 <_ZN5QListI10QByteArrayE13node_destructEPNS1_4NodeES3_+0x31>
  1e:	48 83 6d e8 08       	subq   $0x8,-0x18(%rbp)
  23:	48 8b 45 e8          	mov    -0x18(%rbp),%rax

    this->indexRP       =0;
  27:	48 89 c7             	mov    %rax,%rdi
  2a:	e8 00 00 00 00       	callq  2f <_ZN5QListI10QByteArrayE13node_destructEPNS1_4NodeES3_+0x2f>
}
  2f:	eb e3                	jmp    14 <_ZN5QListI10QByteArrayE13node_destructEPNS1_4NodeES3_+0x14>
  31:	90                   	nop

a::a()
  32:	c9                   	leaveq 
  33:	c3                   	retq   
