
mainwindow.o:     формат файла elf64-x86-64

Разделы:
Инд Имя           Размер    VMA               LMA               Файл      Вырав
  0 .group        00000008  0000000000000000  0000000000000000  00000040  2**2
                  CONTENTS, READONLY, EXCLUDE, GROUP, LINK_ONCE_DISCARD
  1 .group        00000008  0000000000000000  0000000000000000  00000048  2**2
                  CONTENTS, READONLY, EXCLUDE, GROUP, LINK_ONCE_DISCARD
  2 .group        00000008  0000000000000000  0000000000000000  00000050  2**2
                  CONTENTS, READONLY, EXCLUDE, GROUP, LINK_ONCE_DISCARD
  3 .group        00000008  0000000000000000  0000000000000000  00000058  2**2
                  CONTENTS, READONLY, EXCLUDE, GROUP, LINK_ONCE_DISCARD
  4 .group        00000008  0000000000000000  0000000000000000  00000060  2**2
                  CONTENTS, READONLY, EXCLUDE, GROUP, LINK_ONCE_DISCARD
  5 .group        00000008  0000000000000000  0000000000000000  00000068  2**2
                  CONTENTS, READONLY, EXCLUDE, GROUP, LINK_ONCE_DISCARD
  6 .group        00000008  0000000000000000  0000000000000000  00000070  2**2
                  CONTENTS, READONLY, EXCLUDE, GROUP, LINK_ONCE_DISCARD
  7 .group        00000008  0000000000000000  0000000000000000  00000078  2**2
                  CONTENTS, READONLY, EXCLUDE, GROUP, LINK_ONCE_DISCARD
  8 .group        00000008  0000000000000000  0000000000000000  00000080  2**2
                  CONTENTS, READONLY, EXCLUDE, GROUP, LINK_ONCE_DISCARD
  9 .group        00000008  0000000000000000  0000000000000000  00000088  2**2
                  CONTENTS, READONLY, EXCLUDE, GROUP, LINK_ONCE_DISCARD
 10 .group        00000008  0000000000000000  0000000000000000  00000090  2**2
                  CONTENTS, READONLY, EXCLUDE, GROUP, LINK_ONCE_DISCARD
 11 .group        00000008  0000000000000000  0000000000000000  00000098  2**2
                  CONTENTS, READONLY, EXCLUDE, GROUP, LINK_ONCE_DISCARD
 12 .group        00000008  0000000000000000  0000000000000000  000000a0  2**2
                  CONTENTS, READONLY, EXCLUDE, GROUP, LINK_ONCE_DISCARD
 13 .group        00000008  0000000000000000  0000000000000000  000000a8  2**2
                  CONTENTS, READONLY, EXCLUDE, GROUP, LINK_ONCE_DISCARD
 14 .group        00000008  0000000000000000  0000000000000000  000000b0  2**2
                  CONTENTS, READONLY, EXCLUDE, GROUP, LINK_ONCE_DISCARD
 15 .group        0000000c  0000000000000000  0000000000000000  000000b8  2**2
                  CONTENTS, READONLY, EXCLUDE, GROUP, LINK_ONCE_DISCARD
 16 .group        0000000c  0000000000000000  0000000000000000  000000c4  2**2
                  CONTENTS, READONLY, EXCLUDE, GROUP, LINK_ONCE_DISCARD
 17 .group        00000008  0000000000000000  0000000000000000  000000d0  2**2
                  CONTENTS, READONLY, EXCLUDE, GROUP, LINK_ONCE_DISCARD
 18 .group        00000008  0000000000000000  0000000000000000  000000d8  2**2
                  CONTENTS, READONLY, EXCLUDE, GROUP, LINK_ONCE_DISCARD
 19 .group        00000008  0000000000000000  0000000000000000  000000e0  2**2
                  CONTENTS, READONLY, EXCLUDE, GROUP, LINK_ONCE_DISCARD
 20 .group        00000008  0000000000000000  0000000000000000  000000e8  2**2
                  CONTENTS, READONLY, EXCLUDE, GROUP, LINK_ONCE_DISCARD
 21 .group        00000008  0000000000000000  0000000000000000  000000f0  2**2
                  CONTENTS, READONLY, EXCLUDE, GROUP, LINK_ONCE_DISCARD
 22 .group        00000008  0000000000000000  0000000000000000  000000f8  2**2
                  CONTENTS, READONLY, EXCLUDE, GROUP, LINK_ONCE_DISCARD
 23 .group        00000008  0000000000000000  0000000000000000  00000100  2**2
                  CONTENTS, READONLY, EXCLUDE, GROUP, LINK_ONCE_DISCARD
 24 .group        00000008  0000000000000000  0000000000000000  00000108  2**2
                  CONTENTS, READONLY, EXCLUDE, GROUP, LINK_ONCE_DISCARD
 25 .group        00000008  0000000000000000  0000000000000000  00000110  2**2
                  CONTENTS, READONLY, EXCLUDE, GROUP, LINK_ONCE_DISCARD
 26 .group        00000008  0000000000000000  0000000000000000  00000118  2**2
                  CONTENTS, READONLY, EXCLUDE, GROUP, LINK_ONCE_DISCARD
 27 .group        00000008  0000000000000000  0000000000000000  00000120  2**2
                  CONTENTS, READONLY, EXCLUDE, GROUP, LINK_ONCE_DISCARD
 28 .group        00000008  0000000000000000  0000000000000000  00000128  2**2
                  CONTENTS, READONLY, EXCLUDE, GROUP, LINK_ONCE_DISCARD
 29 .group        00000008  0000000000000000  0000000000000000  00000130  2**2
                  CONTENTS, READONLY, EXCLUDE, GROUP, LINK_ONCE_DISCARD
 30 .group        00000008  0000000000000000  0000000000000000  00000138  2**2
                  CONTENTS, READONLY, EXCLUDE, GROUP, LINK_ONCE_DISCARD
 31 .group        00000008  0000000000000000  0000000000000000  00000140  2**2
                  CONTENTS, READONLY, EXCLUDE, GROUP, LINK_ONCE_DISCARD
 32 .group        00000008  0000000000000000  0000000000000000  00000148  2**2
                  CONTENTS, READONLY, EXCLUDE, GROUP, LINK_ONCE_DISCARD
 33 .group        00000008  0000000000000000  0000000000000000  00000150  2**2
                  CONTENTS, READONLY, EXCLUDE, GROUP, LINK_ONCE_DISCARD
 34 .group        00000008  0000000000000000  0000000000000000  00000158  2**2
                  CONTENTS, READONLY, EXCLUDE, GROUP, LINK_ONCE_DISCARD
 35 .group        00000008  0000000000000000  0000000000000000  00000160  2**2
                  CONTENTS, READONLY, EXCLUDE, GROUP, LINK_ONCE_DISCARD
 36 .group        00000008  0000000000000000  0000000000000000  00000168  2**2
                  CONTENTS, READONLY, EXCLUDE, GROUP, LINK_ONCE_DISCARD
 37 .group        00000008  0000000000000000  0000000000000000  00000170  2**2
                  CONTENTS, READONLY, EXCLUDE, GROUP, LINK_ONCE_DISCARD
 38 .group        00000008  0000000000000000  0000000000000000  00000178  2**2
                  CONTENTS, READONLY, EXCLUDE, GROUP, LINK_ONCE_DISCARD
 39 .group        00000008  0000000000000000  0000000000000000  00000180  2**2
                  CONTENTS, READONLY, EXCLUDE, GROUP, LINK_ONCE_DISCARD
 40 .group        00000008  0000000000000000  0000000000000000  00000188  2**2
                  CONTENTS, READONLY, EXCLUDE, GROUP, LINK_ONCE_DISCARD
 41 .group        00000008  0000000000000000  0000000000000000  00000190  2**2
                  CONTENTS, READONLY, EXCLUDE, GROUP, LINK_ONCE_DISCARD
 42 .group        00000008  0000000000000000  0000000000000000  00000198  2**2
                  CONTENTS, READONLY, EXCLUDE, GROUP, LINK_ONCE_DISCARD
 43 .group        00000008  0000000000000000  0000000000000000  000001a0  2**2
                  CONTENTS, READONLY, EXCLUDE, GROUP, LINK_ONCE_DISCARD
 44 .group        00000008  0000000000000000  0000000000000000  000001a8  2**2
                  CONTENTS, READONLY, EXCLUDE, GROUP, LINK_ONCE_DISCARD
 45 .group        00000008  0000000000000000  0000000000000000  000001b0  2**2
                  CONTENTS, READONLY, EXCLUDE, GROUP, LINK_ONCE_DISCARD
 46 .group        00000008  0000000000000000  0000000000000000  000001b8  2**2
                  CONTENTS, READONLY, EXCLUDE, GROUP, LINK_ONCE_DISCARD
 47 .group        00000008  0000000000000000  0000000000000000  000001c0  2**2
                  CONTENTS, READONLY, EXCLUDE, GROUP, LINK_ONCE_DISCARD
 48 .group        00000008  0000000000000000  0000000000000000  000001c8  2**2
                  CONTENTS, READONLY, EXCLUDE, GROUP, LINK_ONCE_DISCARD
 49 .group        00000008  0000000000000000  0000000000000000  000001d0  2**2
                  CONTENTS, READONLY, EXCLUDE, GROUP, LINK_ONCE_DISCARD
 50 .group        00000008  0000000000000000  0000000000000000  000001d8  2**2
                  CONTENTS, READONLY, EXCLUDE, GROUP, LINK_ONCE_DISCARD
 51 .group        00000008  0000000000000000  0000000000000000  000001e0  2**2
                  CONTENTS, READONLY, EXCLUDE, GROUP, LINK_ONCE_DISCARD
 52 .group        00000008  0000000000000000  0000000000000000  000001e8  2**2
                  CONTENTS, READONLY, EXCLUDE, GROUP, LINK_ONCE_DISCARD
 53 .group        00000008  0000000000000000  0000000000000000  000001f0  2**2
                  CONTENTS, READONLY, EXCLUDE, GROUP, LINK_ONCE_DISCARD
 54 .group        00000008  0000000000000000  0000000000000000  000001f8  2**2
                  CONTENTS, READONLY, EXCLUDE, GROUP, LINK_ONCE_DISCARD
 55 .group        00000008  0000000000000000  0000000000000000  00000200  2**2
                  CONTENTS, READONLY, EXCLUDE, GROUP, LINK_ONCE_DISCARD
 56 .group        00000008  0000000000000000  0000000000000000  00000208  2**2
                  CONTENTS, READONLY, EXCLUDE, GROUP, LINK_ONCE_DISCARD
 57 .group        00000008  0000000000000000  0000000000000000  00000210  2**2
                  CONTENTS, READONLY, EXCLUDE, GROUP, LINK_ONCE_DISCARD
 58 .group        00000008  0000000000000000  0000000000000000  00000218  2**2
                  CONTENTS, READONLY, EXCLUDE, GROUP, LINK_ONCE_DISCARD
 59 .group        00000008  0000000000000000  0000000000000000  00000220  2**2
                  CONTENTS, READONLY, EXCLUDE, GROUP, LINK_ONCE_DISCARD
 60 .group        00000008  0000000000000000  0000000000000000  00000228  2**2
                  CONTENTS, READONLY, EXCLUDE, GROUP, LINK_ONCE_DISCARD
 61 .group        00000008  0000000000000000  0000000000000000  00000230  2**2
                  CONTENTS, READONLY, EXCLUDE, GROUP, LINK_ONCE_DISCARD
 62 .group        00000008  0000000000000000  0000000000000000  00000238  2**2
                  CONTENTS, READONLY, EXCLUDE, GROUP, LINK_ONCE_DISCARD
 63 .group        00000008  0000000000000000  0000000000000000  00000240  2**2
                  CONTENTS, READONLY, EXCLUDE, GROUP, LINK_ONCE_DISCARD
 64 .group        00000008  0000000000000000  0000000000000000  00000248  2**2
                  CONTENTS, READONLY, EXCLUDE, GROUP, LINK_ONCE_DISCARD
 65 .group        00000008  0000000000000000  0000000000000000  00000250  2**2
                  CONTENTS, READONLY, EXCLUDE, GROUP, LINK_ONCE_DISCARD
 66 .group        00000008  0000000000000000  0000000000000000  00000258  2**2
                  CONTENTS, READONLY, EXCLUDE, GROUP, LINK_ONCE_DISCARD
 67 .group        00000008  0000000000000000  0000000000000000  00000260  2**2
                  CONTENTS, READONLY, EXCLUDE, GROUP, LINK_ONCE_DISCARD
 68 .group        00000008  0000000000000000  0000000000000000  00000268  2**2
                  CONTENTS, READONLY, EXCLUDE, GROUP, LINK_ONCE_DISCARD
 69 .group        00000008  0000000000000000  0000000000000000  00000270  2**2
                  CONTENTS, READONLY, EXCLUDE, GROUP, LINK_ONCE_DISCARD
 70 .group        00000008  0000000000000000  0000000000000000  00000278  2**2
                  CONTENTS, READONLY, EXCLUDE, GROUP, LINK_ONCE_DISCARD
 71 .group        00000008  0000000000000000  0000000000000000  00000280  2**2
                  CONTENTS, READONLY, EXCLUDE, GROUP, LINK_ONCE_DISCARD
 72 .group        00000008  0000000000000000  0000000000000000  00000288  2**2
                  CONTENTS, READONLY, EXCLUDE, GROUP, LINK_ONCE_DISCARD
 73 .group        00000008  0000000000000000  0000000000000000  00000290  2**2
                  CONTENTS, READONLY, EXCLUDE, GROUP, LINK_ONCE_DISCARD
 74 .group        00000008  0000000000000000  0000000000000000  00000298  2**2
                  CONTENTS, READONLY, EXCLUDE, GROUP, LINK_ONCE_DISCARD
 75 .group        00000008  0000000000000000  0000000000000000  000002a0  2**2
                  CONTENTS, READONLY, EXCLUDE, GROUP, LINK_ONCE_DISCARD
 76 .group        00000008  0000000000000000  0000000000000000  000002a8  2**2
                  CONTENTS, READONLY, EXCLUDE, GROUP, LINK_ONCE_DISCARD
 77 .group        00000008  0000000000000000  0000000000000000  000002b0  2**2
                  CONTENTS, READONLY, EXCLUDE, GROUP, LINK_ONCE_DISCARD
 78 .group        00000008  0000000000000000  0000000000000000  000002b8  2**2
                  CONTENTS, READONLY, EXCLUDE, GROUP, LINK_ONCE_DISCARD
 79 .group        00000008  0000000000000000  0000000000000000  000002c0  2**2
                  CONTENTS, READONLY, EXCLUDE, GROUP, LINK_ONCE_DISCARD
 80 .group        00000008  0000000000000000  0000000000000000  000002c8  2**2
                  CONTENTS, READONLY, EXCLUDE, GROUP, LINK_ONCE_DISCARD
 81 .group        00000008  0000000000000000  0000000000000000  000002d0  2**2
                  CONTENTS, READONLY, EXCLUDE, GROUP, LINK_ONCE_DISCARD
 82 .group        00000008  0000000000000000  0000000000000000  000002d8  2**2
                  CONTENTS, READONLY, EXCLUDE, GROUP, LINK_ONCE_DISCARD
 83 .group        00000008  0000000000000000  0000000000000000  000002e0  2**2
                  CONTENTS, READONLY, EXCLUDE, GROUP, LINK_ONCE_DISCARD
 84 .group        00000008  0000000000000000  0000000000000000  000002e8  2**2
                  CONTENTS, READONLY, EXCLUDE, GROUP, LINK_ONCE_DISCARD
 85 .group        00000008  0000000000000000  0000000000000000  000002f0  2**2
                  CONTENTS, READONLY, EXCLUDE, GROUP, LINK_ONCE_DISCARD
 86 .group        00000008  0000000000000000  0000000000000000  000002f8  2**2
                  CONTENTS, READONLY, EXCLUDE, GROUP, LINK_ONCE_DISCARD
 87 .group        00000008  0000000000000000  0000000000000000  00000300  2**2
                  CONTENTS, READONLY, EXCLUDE, GROUP, LINK_ONCE_DISCARD
 88 .group        00000008  0000000000000000  0000000000000000  00000308  2**2
                  CONTENTS, READONLY, EXCLUDE, GROUP, LINK_ONCE_DISCARD
 89 .group        00000008  0000000000000000  0000000000000000  00000310  2**2
                  CONTENTS, READONLY, EXCLUDE, GROUP, LINK_ONCE_DISCARD
 90 .group        00000008  0000000000000000  0000000000000000  00000318  2**2
                  CONTENTS, READONLY, EXCLUDE, GROUP, LINK_ONCE_DISCARD
 91 .group        00000008  0000000000000000  0000000000000000  00000320  2**2
                  CONTENTS, READONLY, EXCLUDE, GROUP, LINK_ONCE_DISCARD
 92 .group        00000008  0000000000000000  0000000000000000  00000328  2**2
                  CONTENTS, READONLY, EXCLUDE, GROUP, LINK_ONCE_DISCARD
 93 .group        00000008  0000000000000000  0000000000000000  00000330  2**2
                  CONTENTS, READONLY, EXCLUDE, GROUP, LINK_ONCE_DISCARD
 94 .group        00000008  0000000000000000  0000000000000000  00000338  2**2
                  CONTENTS, READONLY, EXCLUDE, GROUP, LINK_ONCE_DISCARD
 95 .group        00000008  0000000000000000  0000000000000000  00000340  2**2
                  CONTENTS, READONLY, EXCLUDE, GROUP, LINK_ONCE_DISCARD
 96 .group        00000008  0000000000000000  0000000000000000  00000348  2**2
                  CONTENTS, READONLY, EXCLUDE, GROUP, LINK_ONCE_DISCARD
 97 .group        00000008  0000000000000000  0000000000000000  00000350  2**2
                  CONTENTS, READONLY, EXCLUDE, GROUP, LINK_ONCE_DISCARD
 98 .group        00000008  0000000000000000  0000000000000000  00000358  2**2
                  CONTENTS, READONLY, EXCLUDE, GROUP, LINK_ONCE_DISCARD
 99 .group        00000008  0000000000000000  0000000000000000  00000360  2**2
                  CONTENTS, READONLY, EXCLUDE, GROUP, LINK_ONCE_DISCARD
100 .group        00000008  0000000000000000  0000000000000000  00000368  2**2
                  CONTENTS, READONLY, EXCLUDE, GROUP, LINK_ONCE_DISCARD
101 .group        00000008  0000000000000000  0000000000000000  00000370  2**2
                  CONTENTS, READONLY, EXCLUDE, GROUP, LINK_ONCE_DISCARD
102 .group        00000008  0000000000000000  0000000000000000  00000378  2**2
                  CONTENTS, READONLY, EXCLUDE, GROUP, LINK_ONCE_DISCARD
103 .group        00000008  0000000000000000  0000000000000000  00000380  2**2
                  CONTENTS, READONLY, EXCLUDE, GROUP, LINK_ONCE_DISCARD
104 .group        00000008  0000000000000000  0000000000000000  00000388  2**2
                  CONTENTS, READONLY, EXCLUDE, GROUP, LINK_ONCE_DISCARD
105 .group        00000008  0000000000000000  0000000000000000  00000390  2**2
                  CONTENTS, READONLY, EXCLUDE, GROUP, LINK_ONCE_DISCARD
106 .group        00000008  0000000000000000  0000000000000000  00000398  2**2
                  CONTENTS, READONLY, EXCLUDE, GROUP, LINK_ONCE_DISCARD
107 .group        00000008  0000000000000000  0000000000000000  000003a0  2**2
                  CONTENTS, READONLY, EXCLUDE, GROUP, LINK_ONCE_DISCARD
108 .group        00000008  0000000000000000  0000000000000000  000003a8  2**2
                  CONTENTS, READONLY, EXCLUDE, GROUP, LINK_ONCE_DISCARD
109 .group        00000008  0000000000000000  0000000000000000  000003b0  2**2
                  CONTENTS, READONLY, EXCLUDE, GROUP, LINK_ONCE_DISCARD
110 .group        00000008  0000000000000000  0000000000000000  000003b8  2**2
                  CONTENTS, READONLY, EXCLUDE, GROUP, LINK_ONCE_DISCARD
111 .group        00000008  0000000000000000  0000000000000000  000003c0  2**2
                  CONTENTS, READONLY, EXCLUDE, GROUP, LINK_ONCE_DISCARD
112 .group        00000008  0000000000000000  0000000000000000  000003c8  2**2
                  CONTENTS, READONLY, EXCLUDE, GROUP, LINK_ONCE_DISCARD
113 .group        00000008  0000000000000000  0000000000000000  000003d0  2**2
                  CONTENTS, READONLY, EXCLUDE, GROUP, LINK_ONCE_DISCARD
114 .group        00000008  0000000000000000  0000000000000000  000003d8  2**2
                  CONTENTS, READONLY, EXCLUDE, GROUP, LINK_ONCE_DISCARD
115 .group        00000008  0000000000000000  0000000000000000  000003e0  2**2
                  CONTENTS, READONLY, EXCLUDE, GROUP, LINK_ONCE_DISCARD
116 .group        00000008  0000000000000000  0000000000000000  000003e8  2**2
                  CONTENTS, READONLY, EXCLUDE, GROUP, LINK_ONCE_DISCARD
117 .group        00000008  0000000000000000  0000000000000000  000003f0  2**2
                  CONTENTS, READONLY, EXCLUDE, GROUP, LINK_ONCE_DISCARD
118 .group        00000008  0000000000000000  0000000000000000  000003f8  2**2
                  CONTENTS, READONLY, EXCLUDE, GROUP, LINK_ONCE_DISCARD
119 .group        00000008  0000000000000000  0000000000000000  00000400  2**2
                  CONTENTS, READONLY, EXCLUDE, GROUP, LINK_ONCE_DISCARD
120 .group        00000008  0000000000000000  0000000000000000  00000408  2**2
                  CONTENTS, READONLY, EXCLUDE, GROUP, LINK_ONCE_DISCARD
121 .group        00000008  0000000000000000  0000000000000000  00000410  2**2
                  CONTENTS, READONLY, EXCLUDE, GROUP, LINK_ONCE_DISCARD
122 .group        00000008  0000000000000000  0000000000000000  00000418  2**2
                  CONTENTS, READONLY, EXCLUDE, GROUP, LINK_ONCE_DISCARD
123 .group        00000008  0000000000000000  0000000000000000  00000420  2**2
                  CONTENTS, READONLY, EXCLUDE, GROUP, LINK_ONCE_DISCARD
124 .group        00000008  0000000000000000  0000000000000000  00000428  2**2
                  CONTENTS, READONLY, EXCLUDE, GROUP, LINK_ONCE_DISCARD
125 .group        00000008  0000000000000000  0000000000000000  00000430  2**2
                  CONTENTS, READONLY, EXCLUDE, GROUP, LINK_ONCE_DISCARD
126 .group        00000008  0000000000000000  0000000000000000  00000438  2**2
                  CONTENTS, READONLY, EXCLUDE, GROUP, LINK_ONCE_DISCARD
127 .group        00000008  0000000000000000  0000000000000000  00000440  2**2
                  CONTENTS, READONLY, EXCLUDE, GROUP, LINK_ONCE_DISCARD
128 .group        00000008  0000000000000000  0000000000000000  00000448  2**2
                  CONTENTS, READONLY, EXCLUDE, GROUP, LINK_ONCE_DISCARD
129 .group        00000008  0000000000000000  0000000000000000  00000450  2**2
                  CONTENTS, READONLY, EXCLUDE, GROUP, LINK_ONCE_DISCARD
130 .group        00000008  0000000000000000  0000000000000000  00000458  2**2
                  CONTENTS, READONLY, EXCLUDE, GROUP, LINK_ONCE_DISCARD
131 .group        00000008  0000000000000000  0000000000000000  00000460  2**2
                  CONTENTS, READONLY, EXCLUDE, GROUP, LINK_ONCE_DISCARD
132 .group        00000008  0000000000000000  0000000000000000  00000468  2**2
                  CONTENTS, READONLY, EXCLUDE, GROUP, LINK_ONCE_DISCARD
133 .group        00000008  0000000000000000  0000000000000000  00000470  2**2
                  CONTENTS, READONLY, EXCLUDE, GROUP, LINK_ONCE_DISCARD
134 .group        00000008  0000000000000000  0000000000000000  00000478  2**2
                  CONTENTS, READONLY, EXCLUDE, GROUP, LINK_ONCE_DISCARD
135 .group        00000008  0000000000000000  0000000000000000  00000480  2**2
                  CONTENTS, READONLY, EXCLUDE, GROUP, LINK_ONCE_DISCARD
136 .group        00000008  0000000000000000  0000000000000000  00000488  2**2
                  CONTENTS, READONLY, EXCLUDE, GROUP, LINK_ONCE_DISCARD
137 .group        00000008  0000000000000000  0000000000000000  00000490  2**2
                  CONTENTS, READONLY, EXCLUDE, GROUP, LINK_ONCE_DISCARD
138 .group        00000008  0000000000000000  0000000000000000  00000498  2**2
                  CONTENTS, READONLY, EXCLUDE, GROUP, LINK_ONCE_DISCARD
139 .group        00000008  0000000000000000  0000000000000000  000004a0  2**2
                  CONTENTS, READONLY, EXCLUDE, GROUP, LINK_ONCE_DISCARD
140 .group        00000008  0000000000000000  0000000000000000  000004a8  2**2
                  CONTENTS, READONLY, EXCLUDE, GROUP, LINK_ONCE_DISCARD
141 .group        00000008  0000000000000000  0000000000000000  000004b0  2**2
                  CONTENTS, READONLY, EXCLUDE, GROUP, LINK_ONCE_DISCARD
142 .group        00000008  0000000000000000  0000000000000000  000004b8  2**2
                  CONTENTS, READONLY, EXCLUDE, GROUP, LINK_ONCE_DISCARD
143 .group        00000008  0000000000000000  0000000000000000  000004c0  2**2
                  CONTENTS, READONLY, EXCLUDE, GROUP, LINK_ONCE_DISCARD
144 .group        00000008  0000000000000000  0000000000000000  000004c8  2**2
                  CONTENTS, READONLY, EXCLUDE, GROUP, LINK_ONCE_DISCARD
145 .group        00000008  0000000000000000  0000000000000000  000004d0  2**2
                  CONTENTS, READONLY, EXCLUDE, GROUP, LINK_ONCE_DISCARD
146 .group        00000008  0000000000000000  0000000000000000  000004d8  2**2
                  CONTENTS, READONLY, EXCLUDE, GROUP, LINK_ONCE_DISCARD
147 .group        00000008  0000000000000000  0000000000000000  000004e0  2**2
                  CONTENTS, READONLY, EXCLUDE, GROUP, LINK_ONCE_DISCARD
148 .group        00000008  0000000000000000  0000000000000000  000004e8  2**2
                  CONTENTS, READONLY, EXCLUDE, GROUP, LINK_ONCE_DISCARD
149 .group        00000008  0000000000000000  0000000000000000  000004f0  2**2
                  CONTENTS, READONLY, EXCLUDE, GROUP, LINK_ONCE_DISCARD
150 .group        00000008  0000000000000000  0000000000000000  000004f8  2**2
                  CONTENTS, READONLY, EXCLUDE, GROUP, LINK_ONCE_DISCARD
151 .group        00000008  0000000000000000  0000000000000000  00000500  2**2
                  CONTENTS, READONLY, EXCLUDE, GROUP, LINK_ONCE_DISCARD
152 .group        00000008  0000000000000000  0000000000000000  00000508  2**2
                  CONTENTS, READONLY, EXCLUDE, GROUP, LINK_ONCE_DISCARD
153 .group        00000008  0000000000000000  0000000000000000  00000510  2**2
                  CONTENTS, READONLY, EXCLUDE, GROUP, LINK_ONCE_DISCARD
154 .group        00000008  0000000000000000  0000000000000000  00000518  2**2
                  CONTENTS, READONLY, EXCLUDE, GROUP, LINK_ONCE_DISCARD
155 .group        00000008  0000000000000000  0000000000000000  00000520  2**2
                  CONTENTS, READONLY, EXCLUDE, GROUP, LINK_ONCE_DISCARD
156 .group        00000008  0000000000000000  0000000000000000  00000528  2**2
                  CONTENTS, READONLY, EXCLUDE, GROUP, LINK_ONCE_DISCARD
157 .group        00000008  0000000000000000  0000000000000000  00000530  2**2
                  CONTENTS, READONLY, EXCLUDE, GROUP, LINK_ONCE_DISCARD
158 .group        00000008  0000000000000000  0000000000000000  00000538  2**2
                  CONTENTS, READONLY, EXCLUDE, GROUP, LINK_ONCE_DISCARD
159 .group        00000008  0000000000000000  0000000000000000  00000540  2**2
                  CONTENTS, READONLY, EXCLUDE, GROUP, LINK_ONCE_DISCARD
160 .group        00000008  0000000000000000  0000000000000000  00000548  2**2
                  CONTENTS, READONLY, EXCLUDE, GROUP, LINK_ONCE_DISCARD
161 .group        00000008  0000000000000000  0000000000000000  00000550  2**2
                  CONTENTS, READONLY, EXCLUDE, GROUP, LINK_ONCE_DISCARD
162 .group        00000008  0000000000000000  0000000000000000  00000558  2**2
                  CONTENTS, READONLY, EXCLUDE, GROUP, LINK_ONCE_DISCARD
163 .group        00000008  0000000000000000  0000000000000000  00000560  2**2
                  CONTENTS, READONLY, EXCLUDE, GROUP, LINK_ONCE_DISCARD
164 .group        00000008  0000000000000000  0000000000000000  00000568  2**2
                  CONTENTS, READONLY, EXCLUDE, GROUP, LINK_ONCE_DISCARD
165 .group        00000008  0000000000000000  0000000000000000  00000570  2**2
                  CONTENTS, READONLY, EXCLUDE, GROUP, LINK_ONCE_DISCARD
166 .group        00000008  0000000000000000  0000000000000000  00000578  2**2
                  CONTENTS, READONLY, EXCLUDE, GROUP, LINK_ONCE_DISCARD
167 .group        00000008  0000000000000000  0000000000000000  00000580  2**2
                  CONTENTS, READONLY, EXCLUDE, GROUP, LINK_ONCE_DISCARD
168 .group        00000008  0000000000000000  0000000000000000  00000588  2**2
                  CONTENTS, READONLY, EXCLUDE, GROUP, LINK_ONCE_DISCARD
169 .group        00000008  0000000000000000  0000000000000000  00000590  2**2
                  CONTENTS, READONLY, EXCLUDE, GROUP, LINK_ONCE_DISCARD
170 .group        00000008  0000000000000000  0000000000000000  00000598  2**2
                  CONTENTS, READONLY, EXCLUDE, GROUP, LINK_ONCE_DISCARD
171 .group        00000008  0000000000000000  0000000000000000  000005a0  2**2
                  CONTENTS, READONLY, EXCLUDE, GROUP, LINK_ONCE_DISCARD
172 .group        00000008  0000000000000000  0000000000000000  000005a8  2**2
                  CONTENTS, READONLY, EXCLUDE, GROUP, LINK_ONCE_DISCARD
173 .group        00000008  0000000000000000  0000000000000000  000005b0  2**2
                  CONTENTS, READONLY, EXCLUDE, GROUP, LINK_ONCE_DISCARD
174 .group        00000008  0000000000000000  0000000000000000  000005b8  2**2
                  CONTENTS, READONLY, EXCLUDE, GROUP, LINK_ONCE_DISCARD
175 .group        00000008  0000000000000000  0000000000000000  000005c0  2**2
                  CONTENTS, READONLY, EXCLUDE, GROUP, LINK_ONCE_DISCARD
176 .group        00000008  0000000000000000  0000000000000000  000005c8  2**2
                  CONTENTS, READONLY, EXCLUDE, GROUP, LINK_ONCE_DISCARD
177 .group        00000008  0000000000000000  0000000000000000  000005d0  2**2
                  CONTENTS, READONLY, EXCLUDE, GROUP, LINK_ONCE_DISCARD
178 .group        00000008  0000000000000000  0000000000000000  000005d8  2**2
                  CONTENTS, READONLY, EXCLUDE, GROUP, LINK_ONCE_DISCARD
179 .group        00000008  0000000000000000  0000000000000000  000005e0  2**2
                  CONTENTS, READONLY, EXCLUDE, GROUP, LINK_ONCE_DISCARD
180 .group        00000008  0000000000000000  0000000000000000  000005e8  2**2
                  CONTENTS, READONLY, EXCLUDE, GROUP, LINK_ONCE_DISCARD
181 .group        00000008  0000000000000000  0000000000000000  000005f0  2**2
                  CONTENTS, READONLY, EXCLUDE, GROUP, LINK_ONCE_DISCARD
182 .group        00000008  0000000000000000  0000000000000000  000005f8  2**2
                  CONTENTS, READONLY, EXCLUDE, GROUP, LINK_ONCE_DISCARD
183 .group        00000008  0000000000000000  0000000000000000  00000600  2**2
                  CONTENTS, READONLY, EXCLUDE, GROUP, LINK_ONCE_DISCARD
184 .group        00000008  0000000000000000  0000000000000000  00000608  2**2
                  CONTENTS, READONLY, EXCLUDE, GROUP, LINK_ONCE_DISCARD
185 .group        00000008  0000000000000000  0000000000000000  00000610  2**2
                  CONTENTS, READONLY, EXCLUDE, GROUP, LINK_ONCE_DISCARD
186 .group        00000008  0000000000000000  0000000000000000  00000618  2**2
                  CONTENTS, READONLY, EXCLUDE, GROUP, LINK_ONCE_DISCARD
187 .group        00000008  0000000000000000  0000000000000000  00000620  2**2
                  CONTENTS, READONLY, EXCLUDE, GROUP, LINK_ONCE_DISCARD
188 .text         0000028c  0000000000000000  0000000000000000  00000628  2**1
                  CONTENTS, ALLOC, LOAD, RELOC, READONLY, CODE
189 .data         00000000  0000000000000000  0000000000000000  000008b4  2**0
                  CONTENTS, ALLOC, LOAD, DATA
190 .bss          00000000  0000000000000000  0000000000000000  000008b4  2**0
                  ALLOC
191 .text._ZN9QtPrivate8RefCount5derefEv 00000043  0000000000000000  0000000000000000  000008b4  2**1
                  CONTENTS, ALLOC, LOAD, RELOC, READONLY, CODE
192 .text._ZN10QArrayData10sharedNullEv 0000000d  0000000000000000  0000000000000000  000008f7  2**0
                  CONTENTS, ALLOC, LOAD, RELOC, READONLY, CODE
193 .text._ZN10QByteArrayC2Ev 0000001e  0000000000000000  0000000000000000  00000904  2**1
                  CONTENTS, ALLOC, LOAD, RELOC, READONLY, CODE
194 .text._ZN10QByteArrayD2Ev 00000034  0000000000000000  0000000000000000  00000922  2**1
                  CONTENTS, ALLOC, LOAD, RELOC, READONLY, CODE
195 .text._ZN7QString8fromUtf8EPKci 0000006c  0000000000000000  0000000000000000  00000956  2**0
                  CONTENTS, ALLOC, LOAD, RELOC, READONLY, CODE
196 .text._ZNK7QString7isEmptyEv 00000019  0000000000000000  0000000000000000  000009c2  2**1
                  CONTENTS, ALLOC, LOAD, READONLY, CODE
197 .text._ZN7QStringC2Ev 0000001e  0000000000000000  0000000000000000  000009dc  2**1
                  CONTENTS, ALLOC, LOAD, RELOC, READONLY, CODE
198 .text._ZN7QStringD2Ev 00000034  0000000000000000  0000000000000000  000009fa  2**1
                  CONTENTS, ALLOC, LOAD, RELOC, READONLY, CODE
199 .text._ZN19QListSpecialMethodsI7QStringED2Ev 0000000b  0000000000000000  0000000000000000  00000a2e  2**1
                  CONTENTS, ALLOC, LOAD, READONLY, CODE
200 .text._ZN11QStringListC2Ev 0000001b  0000000000000000  0000000000000000  00000a3a  2**1
                  CONTENTS, ALLOC, LOAD, RELOC, READONLY, CODE
201 .text._ZN11QStringListD2Ev 0000001b  0000000000000000  0000000000000000  00000a56  2**1
                  CONTENTS, ALLOC, LOAD, RELOC, READONLY, CODE
202 .text._ZN5QSizeC2Eii 00000024  0000000000000000  0000000000000000  00000a72  2**1
                  CONTENTS, ALLOC, LOAD, READONLY, CODE
203 .text._ZN5QRectC2Eiiii 0000004f  0000000000000000  0000000000000000  00000a96  2**1
                  CONTENTS, ALLOC, LOAD, READONLY, CODE
204 .rodata       00000877  0000000000000000  0000000000000000  00000ae8  2**3
                  CONTENTS, ALLOC, LOAD, READONLY, DATA
205 .text._ZN7QWidget6resizeEii 0000005f  0000000000000000  0000000000000000  00001360  2**1
                  CONTENTS, ALLOC, LOAD, RELOC, READONLY, CODE
206 .text._ZNK14QPlainTextEdit11toPlainTextEv 00000057  0000000000000000  0000000000000000  000013c0  2**1
                  CONTENTS, ALLOC, LOAD, RELOC, READONLY, CODE
207 .text._ZN13Ui_MainWindow7setupUiEP11QMainWindow 00000fd4  0000000000000000  0000000000000000  00001418  2**1
                  CONTENTS, ALLOC, LOAD, RELOC, READONLY, CODE
208 .gcc_except_table._ZN13Ui_MainWindow7setupUiEP11QMainWindow 0000021a  0000000000000000  0000000000000000  000023ec  2**0
                  CONTENTS, ALLOC, LOAD, READONLY, DATA
209 .text._ZN13Ui_MainWindow13retranslateUiEP11QMainWindow 00000540  0000000000000000  0000000000000000  00002606  2**1
                  CONTENTS, ALLOC, LOAD, RELOC, READONLY, CODE
210 .gcc_except_table._ZN13Ui_MainWindow13retranslateUiEP11QMainWindow 000000d7  0000000000000000  0000000000000000  00002b46  2**0
                  CONTENTS, ALLOC, LOAD, READONLY, DATA
211 .gcc_except_table 000000eb  0000000000000000  0000000000000000  00002c1d  2**0
                  CONTENTS, ALLOC, LOAD, READONLY, DATA
212 .text._ZN6ParserC2Ev 00000163  0000000000000000  0000000000000000  00002d08  2**1
                  CONTENTS, ALLOC, LOAD, RELOC, READONLY, CODE
213 .text._ZN6ParserD2Ev 0000031c  0000000000000000  0000000000000000  00002e6c  2**1
                  CONTENTS, ALLOC, LOAD, RELOC, READONLY, CODE
214 .text._ZNK19QBasicAtomicIntegerIiE4loadEv 00000019  0000000000000000  0000000000000000  00003188  2**1
                  CONTENTS, ALLOC, LOAD, READONLY, CODE
215 .text._ZN19QBasicAtomicIntegerIiE5derefEv 0000001a  0000000000000000  0000000000000000  000031a2  2**1
                  CONTENTS, ALLOC, LOAD, RELOC, READONLY, CODE
216 .text._ZN15QTypedArrayDataIcE10sharedNullEv 0000000b  0000000000000000  0000000000000000  000031bc  2**0
                  CONTENTS, ALLOC, LOAD, RELOC, READONLY, CODE
217 .text._ZN15QTypedArrayDataIcE10deallocateEP10QArrayData 00000025  0000000000000000  0000000000000000  000031c7  2**0
                  CONTENTS, ALLOC, LOAD, RELOC, READONLY, CODE
218 .text._ZN15QTypedArrayDataItE10sharedNullEv 0000000b  0000000000000000  0000000000000000  000031ec  2**0
                  CONTENTS, ALLOC, LOAD, RELOC, READONLY, CODE
219 .text._ZN15QTypedArrayDataItE10deallocateEP10QArrayData 00000025  0000000000000000  0000000000000000  000031f7  2**0
                  CONTENTS, ALLOC, LOAD, RELOC, READONLY, CODE
220 .text._ZN19QListSpecialMethodsI7QStringEC2Ev 0000000b  0000000000000000  0000000000000000  0000321c  2**1
                  CONTENTS, ALLOC, LOAD, READONLY, CODE
221 .text._ZN5QListI7QStringEC2Ev 00000029  0000000000000000  0000000000000000  00003228  2**1
                  CONTENTS, ALLOC, LOAD, RELOC, READONLY, CODE
222 .text._ZN5QListI7QStringED2Ev 00000068  0000000000000000  0000000000000000  00003252  2**1
                  CONTENTS, ALLOC, LOAD, RELOC, READONLY, CODE
223 .text._ZN6QFlagsIN2Qt13AlignmentFlagEEC2EMNS2_7PrivateEi 00000019  0000000000000000  0000000000000000  000032ba  2**1
                  CONTENTS, ALLOC, LOAD, READONLY, CODE
224 .text._ZN6QFlagsIN2Qt10WindowTypeEEC2EMNS2_7PrivateEi 00000019  0000000000000000  0000000000000000  000032d4  2**1
                  CONTENTS, ALLOC, LOAD, READONLY, CODE
225 .text._ZN5QHashI7QStringS0_EC2Ev 00000019  0000000000000000  0000000000000000  000032ee  2**1
                  CONTENTS, ALLOC, LOAD, RELOC, READONLY, CODE
226 .text._ZN5QHashI7QStringS0_ED2Ev 0000003f  0000000000000000  0000000000000000  00003308  2**1
                  CONTENTS, ALLOC, LOAD, RELOC, READONLY, CODE
227 .text._ZN5QHashI7QString11QStringListEC2Ev 00000019  0000000000000000  0000000000000000  00003348  2**1
                  CONTENTS, ALLOC, LOAD, RELOC, READONLY, CODE
228 .text._ZN5QHashI7QString11QStringListED2Ev 0000003f  0000000000000000  0000000000000000  00003362  2**1
                  CONTENTS, ALLOC, LOAD, RELOC, READONLY, CODE
229 .text._ZN5QHashI7QString10QByteArrayEC2Ev 00000019  0000000000000000  0000000000000000  000033a2  2**1
                  CONTENTS, ALLOC, LOAD, RELOC, READONLY, CODE
230 .text._ZN5QHashI7QString10QByteArrayED2Ev 0000003f  0000000000000000  0000000000000000  000033bc  2**1
                  CONTENTS, ALLOC, LOAD, RELOC, READONLY, CODE
231 .text._ZN4QMapI7QStringiEC2Ev 00000019  0000000000000000  0000000000000000  000033fc  2**1
                  CONTENTS, ALLOC, LOAD, RELOC, READONLY, CODE
232 .text._ZN4QMapI7QStringiED2Ev 00000034  0000000000000000  0000000000000000  00003416  2**1
                  CONTENTS, ALLOC, LOAD, RELOC, READONLY, CODE
233 .text._ZN15QBasicAtomicOpsILi4EE5derefIiEEbRT_ 00000023  0000000000000000  0000000000000000  0000344a  2**0
                  CONTENTS, ALLOC, LOAD, READONLY, CODE
234 .text._ZN5QListI7QStringE7deallocEPN9QListData4DataE 0000005e  0000000000000000  0000000000000000  0000346e  2**1
                  CONTENTS, ALLOC, LOAD, RELOC, READONLY, CODE
235 .text._ZN5QHashI7QStringS0_E8freeDataEP9QHashData 00000029  0000000000000000  0000000000000000  000034cc  2**1
                  CONTENTS, ALLOC, LOAD, RELOC, READONLY, CODE
236 .text._ZN5QHashI7QString11QStringListE8freeDataEP9QHashData 00000029  0000000000000000  0000000000000000  000034f6  2**1
                  CONTENTS, ALLOC, LOAD, RELOC, READONLY, CODE
237 .text._ZN5QHashI7QString10QByteArrayE8freeDataEP9QHashData 00000029  0000000000000000  0000000000000000  00003520  2**1
                  CONTENTS, ALLOC, LOAD, RELOC, READONLY, CODE
238 .text._ZN8QMapDataI7QStringiE7destroyEv 00000061  0000000000000000  0000000000000000  0000354a  2**1
                  CONTENTS, ALLOC, LOAD, RELOC, READONLY, CODE
239 .text._ZN5QListI7QStringE13node_destructEPNS1_4NodeES3_ 00000034  0000000000000000  0000000000000000  000035ac  2**1
                  CONTENTS, ALLOC, LOAD, RELOC, READONLY, CODE
240 .text._ZN9QHashNodeI7QStringS0_ED2Ev 00000054  0000000000000000  0000000000000000  000035e0  2**1
                  CONTENTS, ALLOC, LOAD, RELOC, READONLY, CODE
241 .text._ZN5QHashI7QStringS0_E11deleteNode2EPN9QHashData4NodeE 00000023  0000000000000000  0000000000000000  00003634  2**1
                  CONTENTS, ALLOC, LOAD, RELOC, READONLY, CODE
242 .text._ZN9QHashNodeI7QString11QStringListED2Ev 00000054  0000000000000000  0000000000000000  00003658  2**1
                  CONTENTS, ALLOC, LOAD, RELOC, READONLY, CODE
243 .text._ZN5QHashI7QString11QStringListE11deleteNode2EPN9QHashData4NodeE 00000023  0000000000000000  0000000000000000  000036ac  2**1
                  CONTENTS, ALLOC, LOAD, RELOC, READONLY, CODE
244 .text._ZN9QHashNodeI7QString10QByteArrayED2Ev 00000054  0000000000000000  0000000000000000  000036d0  2**1
                  CONTENTS, ALLOC, LOAD, RELOC, READONLY, CODE
245 .text._ZN5QHashI7QString10QByteArrayE11deleteNode2EPN9QHashData4NodeE 00000023  0000000000000000  0000000000000000  00003724  2**1
                  CONTENTS, ALLOC, LOAD, RELOC, READONLY, CODE
246 .text._ZNK8QMapDataI7QStringiE4rootEv 00000012  0000000000000000  0000000000000000  00003748  2**1
                  CONTENTS, ALLOC, LOAD, READONLY, CODE
247 .text._ZN8QMapNodeI7QStringiE14destroySubTreeEv 00000061  0000000000000000  0000000000000000  0000375a  2**1
                  CONTENTS, ALLOC, LOAD, RELOC, READONLY, CODE
248 .text._ZN5QHashI7QStringS0_E8concreteEPN9QHashData4NodeE 0000000e  0000000000000000  0000000000000000  000037bb  2**0
                  CONTENTS, ALLOC, LOAD, READONLY, CODE
249 .text._ZN5QHashI7QString11QStringListE8concreteEPN9QHashData4NodeE 0000000e  0000000000000000  0000000000000000  000037c9  2**0
                  CONTENTS, ALLOC, LOAD, READONLY, CODE
250 .text._ZN5QHashI7QString10QByteArrayE8concreteEPN9QHashData4NodeE 0000000e  0000000000000000  0000000000000000  000037d7  2**0
                  CONTENTS, ALLOC, LOAD, READONLY, CODE
251 .text._ZNK8QMapNodeI7QStringiE8leftNodeEv 00000012  0000000000000000  0000000000000000  000037e6  2**1
                  CONTENTS, ALLOC, LOAD, READONLY, CODE
252 .text._ZNK8QMapNodeI7QStringiE9rightNodeEv 00000012  0000000000000000  0000000000000000  000037f8  2**1
                  CONTENTS, ALLOC, LOAD, READONLY, CODE
253 .debug_info   0002b260  0000000000000000  0000000000000000  0000380a  2**0
                  CONTENTS, RELOC, READONLY, DEBUGGING
254 .debug_abbrev 00000b6a  0000000000000000  0000000000000000  0002ea6a  2**0
                  CONTENTS, READONLY, DEBUGGING
255 .debug_aranges 000003d0  0000000000000000  0000000000000000  0002f5d4  2**0
                  CONTENTS, RELOC, READONLY, DEBUGGING
256 .debug_ranges 000003c0  0000000000000000  0000000000000000  0002f9a4  2**0
                  CONTENTS, RELOC, READONLY, DEBUGGING
257 .debug_macro  00000f04  0000000000000000  0000000000000000  0002fd64  2**0
                  CONTENTS, RELOC, READONLY, DEBUGGING
258 .debug_macro  0000061c  0000000000000000  0000000000000000  00030c68  2**0
                  CONTENTS, RELOC, READONLY, DEBUGGING
259 .debug_macro  00000022  0000000000000000  0000000000000000  00031284  2**0
                  CONTENTS, RELOC, READONLY, DEBUGGING
260 .debug_macro  00000136  0000000000000000  0000000000000000  000312a6  2**0
                  CONTENTS, RELOC, READONLY, DEBUGGING
261 .debug_macro  00000010  0000000000000000  0000000000000000  000313dc  2**0
                  CONTENTS, RELOC, READONLY, DEBUGGING
262 .debug_macro  00000275  0000000000000000  0000000000000000  000313ec  2**0
                  CONTENTS, RELOC, READONLY, DEBUGGING
263 .debug_macro  0000016f  0000000000000000  0000000000000000  00031661  2**0
                  CONTENTS, RELOC, READONLY, DEBUGGING
264 .debug_macro  00000016  0000000000000000  0000000000000000  000317d0  2**0
                  CONTENTS, RELOC, READONLY, DEBUGGING
265 .debug_macro  00000035  0000000000000000  0000000000000000  000317e6  2**0
                  CONTENTS, RELOC, READONLY, DEBUGGING
266 .debug_macro  00000058  0000000000000000  0000000000000000  0003181b  2**0
                  CONTENTS, RELOC, READONLY, DEBUGGING
267 .debug_macro  000005b4  0000000000000000  0000000000000000  00031873  2**0
                  CONTENTS, RELOC, READONLY, DEBUGGING
268 .debug_macro  0000016d  0000000000000000  0000000000000000  00031e27  2**0
                  CONTENTS, RELOC, READONLY, DEBUGGING
269 .debug_macro  00000016  0000000000000000  0000000000000000  00031f94  2**0
                  CONTENTS, RELOC, READONLY, DEBUGGING
270 .debug_macro  0000009a  0000000000000000  0000000000000000  00031faa  2**0
                  CONTENTS, RELOC, READONLY, DEBUGGING
271 .debug_macro  00000016  0000000000000000  0000000000000000  00032044  2**0
                  CONTENTS, RELOC, READONLY, DEBUGGING
272 .debug_macro  00000018  0000000000000000  0000000000000000  0003205a  2**0
                  CONTENTS, RELOC, READONLY, DEBUGGING
273 .debug_macro  00000032  0000000000000000  0000000000000000  00032072  2**0
                  CONTENTS, RELOC, READONLY, DEBUGGING
274 .debug_macro  000000c0  0000000000000000  0000000000000000  000320a4  2**0
                  CONTENTS, RELOC, READONLY, DEBUGGING
275 .debug_macro  00000028  0000000000000000  0000000000000000  00032164  2**0
                  CONTENTS, RELOC, READONLY, DEBUGGING
276 .debug_macro  00000012  0000000000000000  0000000000000000  0003218c  2**0
                  CONTENTS, RELOC, READONLY, DEBUGGING
277 .debug_macro  000000cf  0000000000000000  0000000000000000  0003219e  2**0
                  CONTENTS, RELOC, READONLY, DEBUGGING
278 .debug_macro  0000001c  0000000000000000  0000000000000000  0003226d  2**0
                  CONTENTS, RELOC, READONLY, DEBUGGING
279 .debug_macro  00000018  0000000000000000  0000000000000000  00032289  2**0
                  CONTENTS, RELOC, READONLY, DEBUGGING
280 .debug_macro  0000006e  0000000000000000  0000000000000000  000322a1  2**0
                  CONTENTS, RELOC, READONLY, DEBUGGING
281 .debug_macro  00000082  0000000000000000  0000000000000000  0003230f  2**0
                  CONTENTS, RELOC, READONLY, DEBUGGING
282 .debug_macro  00000012  0000000000000000  0000000000000000  00032391  2**0
                  CONTENTS, RELOC, READONLY, DEBUGGING
283 .debug_macro  00000012  0000000000000000  0000000000000000  000323a3  2**0
                  CONTENTS, RELOC, READONLY, DEBUGGING
284 .debug_macro  00000016  0000000000000000  0000000000000000  000323b5  2**0
                  CONTENTS, RELOC, READONLY, DEBUGGING
285 .debug_macro  00000035  0000000000000000  0000000000000000  000323cb  2**0
                  CONTENTS, RELOC, READONLY, DEBUGGING
286 .debug_macro  00000052  0000000000000000  0000000000000000  00032400  2**0
                  CONTENTS, RELOC, READONLY, DEBUGGING
287 .debug_macro  0000004c  0000000000000000  0000000000000000  00032452  2**0
                  CONTENTS, RELOC, READONLY, DEBUGGING
288 .debug_macro  0000001c  0000000000000000  0000000000000000  0003249e  2**0
                  CONTENTS, RELOC, READONLY, DEBUGGING
289 .debug_macro  00000028  0000000000000000  0000000000000000  000324ba  2**0
                  CONTENTS, RELOC, READONLY, DEBUGGING
290 .debug_macro  0000005e  0000000000000000  0000000000000000  000324e2  2**0
                  CONTENTS, RELOC, READONLY, DEBUGGING
291 .debug_macro  000000e2  0000000000000000  0000000000000000  00032540  2**0
                  CONTENTS, RELOC, READONLY, DEBUGGING
292 .debug_macro  00000010  0000000000000000  0000000000000000  00032622  2**0
                  CONTENTS, RELOC, READONLY, DEBUGGING
293 .debug_macro  0000004c  0000000000000000  0000000000000000  00032632  2**0
                  CONTENTS, RELOC, READONLY, DEBUGGING
294 .debug_macro  00000022  0000000000000000  0000000000000000  0003267e  2**0
                  CONTENTS, RELOC, READONLY, DEBUGGING
295 .debug_macro  00000068  0000000000000000  0000000000000000  000326a0  2**0
                  CONTENTS, RELOC, READONLY, DEBUGGING
296 .debug_macro  0000007f  0000000000000000  0000000000000000  00032708  2**0
                  CONTENTS, RELOC, READONLY, DEBUGGING
297 .debug_macro  0000003a  0000000000000000  0000000000000000  00032787  2**0
                  CONTENTS, RELOC, READONLY, DEBUGGING
298 .debug_macro  00000019  0000000000000000  0000000000000000  000327c1  2**0
                  CONTENTS, RELOC, READONLY, DEBUGGING
299 .debug_macro  00000020  0000000000000000  0000000000000000  000327da  2**0
                  CONTENTS, RELOC, READONLY, DEBUGGING
300 .debug_macro  00000022  0000000000000000  0000000000000000  000327fa  2**0
                  CONTENTS, RELOC, READONLY, DEBUGGING
301 .debug_macro  00000010  0000000000000000  0000000000000000  0003281c  2**0
                  CONTENTS, RELOC, READONLY, DEBUGGING
302 .debug_macro  00000016  0000000000000000  0000000000000000  0003282c  2**0
                  CONTENTS, RELOC, READONLY, DEBUGGING
303 .debug_macro  00000028  0000000000000000  0000000000000000  00032842  2**0
                  CONTENTS, RELOC, READONLY, DEBUGGING
304 .debug_macro  00000010  0000000000000000  0000000000000000  0003286a  2**0
                  CONTENTS, RELOC, READONLY, DEBUGGING
305 .debug_macro  00000046  0000000000000000  0000000000000000  0003287a  2**0
                  CONTENTS, RELOC, READONLY, DEBUGGING
306 .debug_macro  0000001c  0000000000000000  0000000000000000  000328c0  2**0
                  CONTENTS, RELOC, READONLY, DEBUGGING
307 .debug_macro  00000020  0000000000000000  0000000000000000  000328dc  2**0
                  CONTENTS, RELOC, READONLY, DEBUGGING
308 .debug_macro  0000005a  0000000000000000  0000000000000000  000328fc  2**0
                  CONTENTS, RELOC, READONLY, DEBUGGING
309 .debug_macro  00000010  0000000000000000  0000000000000000  00032956  2**0
                  CONTENTS, RELOC, READONLY, DEBUGGING
310 .debug_macro  00000010  0000000000000000  0000000000000000  00032966  2**0
                  CONTENTS, RELOC, READONLY, DEBUGGING
311 .debug_macro  000000e4  0000000000000000  0000000000000000  00032976  2**0
                  CONTENTS, RELOC, READONLY, DEBUGGING
312 .debug_macro  0000025a  0000000000000000  0000000000000000  00032a5a  2**0
                  CONTENTS, RELOC, READONLY, DEBUGGING
313 .debug_macro  0000002d  0000000000000000  0000000000000000  00032cb4  2**0
                  CONTENTS, RELOC, READONLY, DEBUGGING
314 .debug_macro  00000016  0000000000000000  0000000000000000  00032ce1  2**0
                  CONTENTS, RELOC, READONLY, DEBUGGING
315 .debug_macro  00000050  0000000000000000  0000000000000000  00032cf7  2**0
                  CONTENTS, RELOC, READONLY, DEBUGGING
316 .debug_macro  00000019  0000000000000000  0000000000000000  00032d47  2**0
                  CONTENTS, RELOC, READONLY, DEBUGGING
317 .debug_macro  00000011  0000000000000000  0000000000000000  00032d60  2**0
                  CONTENTS, RELOC, READONLY, DEBUGGING
318 .debug_macro  0000014b  0000000000000000  0000000000000000  00032d71  2**0
                  CONTENTS, RELOC, READONLY, DEBUGGING
319 .debug_macro  0000001e  0000000000000000  0000000000000000  00032ebc  2**0
                  CONTENTS, RELOC, READONLY, DEBUGGING
320 .debug_macro  0000001c  0000000000000000  0000000000000000  00032eda  2**0
                  CONTENTS, RELOC, READONLY, DEBUGGING
321 .debug_macro  00000024  0000000000000000  0000000000000000  00032ef6  2**0
                  CONTENTS, RELOC, READONLY, DEBUGGING
322 .debug_macro  000000fc  0000000000000000  0000000000000000  00032f1a  2**0
                  CONTENTS, RELOC, READONLY, DEBUGGING
323 .debug_macro  00000016  0000000000000000  0000000000000000  00033016  2**0
                  CONTENTS, RELOC, READONLY, DEBUGGING
324 .debug_macro  00000018  0000000000000000  0000000000000000  0003302c  2**0
                  CONTENTS, RELOC, READONLY, DEBUGGING
325 .debug_macro  00000019  0000000000000000  0000000000000000  00033044  2**0
                  CONTENTS, RELOC, READONLY, DEBUGGING
326 .debug_macro  00000058  0000000000000000  0000000000000000  0003305d  2**0
                  CONTENTS, RELOC, READONLY, DEBUGGING
327 .debug_macro  00000016  0000000000000000  0000000000000000  000330b5  2**0
                  CONTENTS, RELOC, READONLY, DEBUGGING
328 .debug_macro  0000001c  0000000000000000  0000000000000000  000330cb  2**0
                  CONTENTS, RELOC, READONLY, DEBUGGING
329 .debug_macro  00000016  0000000000000000  0000000000000000  000330e7  2**0
                  CONTENTS, RELOC, READONLY, DEBUGGING
330 .debug_macro  00000022  0000000000000000  0000000000000000  000330fd  2**0
                  CONTENTS, RELOC, READONLY, DEBUGGING
331 .debug_macro  00000043  0000000000000000  0000000000000000  0003311f  2**0
                  CONTENTS, RELOC, READONLY, DEBUGGING
332 .debug_macro  0000003c  0000000000000000  0000000000000000  00033162  2**0
                  CONTENTS, RELOC, READONLY, DEBUGGING
333 .debug_macro  00000173  0000000000000000  0000000000000000  0003319e  2**0
                  CONTENTS, RELOC, READONLY, DEBUGGING
334 .debug_macro  00000012  0000000000000000  0000000000000000  00033311  2**0
                  CONTENTS, RELOC, READONLY, DEBUGGING
335 .debug_macro  00000010  0000000000000000  0000000000000000  00033323  2**0
                  CONTENTS, RELOC, READONLY, DEBUGGING
336 .debug_macro  00000058  0000000000000000  0000000000000000  00033333  2**0
                  CONTENTS, RELOC, READONLY, DEBUGGING
337 .debug_macro  000000b4  0000000000000000  0000000000000000  0003338b  2**0
                  CONTENTS, RELOC, READONLY, DEBUGGING
338 .debug_macro  00000016  0000000000000000  0000000000000000  0003343f  2**0
                  CONTENTS, RELOC, READONLY, DEBUGGING
339 .debug_macro  00000010  0000000000000000  0000000000000000  00033455  2**0
                  CONTENTS, RELOC, READONLY, DEBUGGING
340 .debug_macro  00000037  0000000000000000  0000000000000000  00033465  2**0
                  CONTENTS, RELOC, READONLY, DEBUGGING
341 .debug_macro  00000058  0000000000000000  0000000000000000  0003349c  2**0
                  CONTENTS, RELOC, READONLY, DEBUGGING
342 .debug_macro  00000011  0000000000000000  0000000000000000  000334f4  2**0
                  CONTENTS, RELOC, READONLY, DEBUGGING
343 .debug_macro  00000016  0000000000000000  0000000000000000  00033505  2**0
                  CONTENTS, RELOC, READONLY, DEBUGGING
344 .debug_macro  00000010  0000000000000000  0000000000000000  0003351b  2**0
                  CONTENTS, RELOC, READONLY, DEBUGGING
345 .debug_macro  00000010  0000000000000000  0000000000000000  0003352b  2**0
                  CONTENTS, RELOC, READONLY, DEBUGGING
346 .debug_macro  00000022  0000000000000000  0000000000000000  0003353b  2**0
                  CONTENTS, RELOC, READONLY, DEBUGGING
347 .debug_macro  00000122  0000000000000000  0000000000000000  0003355d  2**0
                  CONTENTS, RELOC, READONLY, DEBUGGING
348 .debug_macro  0000008e  0000000000000000  0000000000000000  0003367f  2**0
                  CONTENTS, RELOC, READONLY, DEBUGGING
349 .debug_macro  00000016  0000000000000000  0000000000000000  0003370d  2**0
                  CONTENTS, RELOC, READONLY, DEBUGGING
350 .debug_macro  00000058  0000000000000000  0000000000000000  00033723  2**0
                  CONTENTS, RELOC, READONLY, DEBUGGING
351 .debug_macro  000000fa  0000000000000000  0000000000000000  0003377b  2**0
                  CONTENTS, RELOC, READONLY, DEBUGGING
352 .debug_macro  00000030  0000000000000000  0000000000000000  00033875  2**0
                  CONTENTS, RELOC, READONLY, DEBUGGING
353 .debug_macro  000000c1  0000000000000000  0000000000000000  000338a5  2**0
                  CONTENTS, RELOC, READONLY, DEBUGGING
354 .debug_macro  0000004d  0000000000000000  0000000000000000  00033966  2**0
                  CONTENTS, RELOC, READONLY, DEBUGGING
355 .debug_macro  00000010  0000000000000000  0000000000000000  000339b3  2**0
                  CONTENTS, RELOC, READONLY, DEBUGGING
356 .debug_macro  00000019  0000000000000000  0000000000000000  000339c3  2**0
                  CONTENTS, RELOC, READONLY, DEBUGGING
357 .debug_macro  00000020  0000000000000000  0000000000000000  000339dc  2**0
                  CONTENTS, RELOC, READONLY, DEBUGGING
358 .debug_macro  00000018  0000000000000000  0000000000000000  000339fc  2**0
                  CONTENTS, RELOC, READONLY, DEBUGGING
359 .debug_macro  00000023  0000000000000000  0000000000000000  00033a14  2**0
                  CONTENTS, RELOC, READONLY, DEBUGGING
360 .debug_macro  00000010  0000000000000000  0000000000000000  00033a37  2**0
                  CONTENTS, RELOC, READONLY, DEBUGGING
361 .debug_macro  00000016  0000000000000000  0000000000000000  00033a47  2**0
                  CONTENTS, RELOC, READONLY, DEBUGGING
362 .debug_macro  00000076  0000000000000000  0000000000000000  00033a5d  2**0
                  CONTENTS, RELOC, READONLY, DEBUGGING
363 .debug_macro  00000016  0000000000000000  0000000000000000  00033ad3  2**0
                  CONTENTS, RELOC, READONLY, DEBUGGING
364 .debug_macro  00000025  0000000000000000  0000000000000000  00033ae9  2**0
                  CONTENTS, RELOC, READONLY, DEBUGGING
365 .debug_macro  000000de  0000000000000000  0000000000000000  00033b0e  2**0
                  CONTENTS, RELOC, READONLY, DEBUGGING
366 .debug_macro  0000001c  0000000000000000  0000000000000000  00033bec  2**0
                  CONTENTS, RELOC, READONLY, DEBUGGING
367 .debug_macro  00000058  0000000000000000  0000000000000000  00033c08  2**0
                  CONTENTS, RELOC, READONLY, DEBUGGING
368 .debug_macro  00000088  0000000000000000  0000000000000000  00033c60  2**0
                  CONTENTS, RELOC, READONLY, DEBUGGING
369 .debug_macro  00000076  0000000000000000  0000000000000000  00033ce8  2**0
                  CONTENTS, RELOC, READONLY, DEBUGGING
370 .debug_macro  00000010  0000000000000000  0000000000000000  00033d5e  2**0
                  CONTENTS, RELOC, READONLY, DEBUGGING
371 .debug_macro  00000041  0000000000000000  0000000000000000  00033d6e  2**0
                  CONTENTS, RELOC, READONLY, DEBUGGING
372 .debug_macro  000000ee  0000000000000000  0000000000000000  00033daf  2**0
                  CONTENTS, RELOC, READONLY, DEBUGGING
373 .debug_macro  00000010  0000000000000000  0000000000000000  00033e9d  2**0
                  CONTENTS, RELOC, READONLY, DEBUGGING
374 .debug_macro  000000e5  0000000000000000  0000000000000000  00033ead  2**0
                  CONTENTS, RELOC, READONLY, DEBUGGING
375 .debug_macro  00000012  0000000000000000  0000000000000000  00033f92  2**0
                  CONTENTS, RELOC, READONLY, DEBUGGING
376 .debug_macro  0000001f  0000000000000000  0000000000000000  00033fa4  2**0
                  CONTENTS, RELOC, READONLY, DEBUGGING
377 .debug_macro  00000016  0000000000000000  0000000000000000  00033fc3  2**0
                  CONTENTS, RELOC, READONLY, DEBUGGING
378 .debug_macro  00000010  0000000000000000  0000000000000000  00033fd9  2**0
                  CONTENTS, RELOC, READONLY, DEBUGGING
379 .debug_macro  00000016  0000000000000000  0000000000000000  00033fe9  2**0
                  CONTENTS, RELOC, READONLY, DEBUGGING
380 .debug_macro  00000022  0000000000000000  0000000000000000  00033fff  2**0
                  CONTENTS, RELOC, READONLY, DEBUGGING
381 .debug_macro  00000016  0000000000000000  0000000000000000  00034021  2**0
                  CONTENTS, RELOC, READONLY, DEBUGGING
382 .debug_macro  00000028  0000000000000000  0000000000000000  00034037  2**0
                  CONTENTS, RELOC, READONLY, DEBUGGING
383 .debug_macro  00000216  0000000000000000  0000000000000000  0003405f  2**0
                  CONTENTS, RELOC, READONLY, DEBUGGING
384 .debug_macro  00000046  0000000000000000  0000000000000000  00034275  2**0
                  CONTENTS, RELOC, READONLY, DEBUGGING
385 .debug_macro  0000002e  0000000000000000  0000000000000000  000342bb  2**0
                  CONTENTS, RELOC, READONLY, DEBUGGING
386 .debug_macro  00000027  0000000000000000  0000000000000000  000342e9  2**0
                  CONTENTS, RELOC, READONLY, DEBUGGING
387 .debug_line   00001e19  0000000000000000  0000000000000000  00034310  2**0
                  CONTENTS, RELOC, READONLY, DEBUGGING
388 .debug_str    000487cb  0000000000000000  0000000000000000  00036129  2**0
                  CONTENTS, READONLY, DEBUGGING
389 .data.DW.ref.__gxx_personality_v0 00000008  0000000000000000  0000000000000000  0007e8f8  2**3
                  CONTENTS, ALLOC, LOAD, RELOC, DATA
390 .comment      0000002e  0000000000000000  0000000000000000  0007e900  2**0
                  CONTENTS, READONLY
391 .note.GNU-stack 00000000  0000000000000000  0000000000000000  0007e92e  2**0
                  CONTENTS, READONLY
392 .eh_frame     00000888  0000000000000000  0000000000000000  0007e930  2**3
                  CONTENTS, ALLOC, LOAD, RELOC, READONLY, DATA

Дизассемблирование раздела .text:

0000000000000000 <_ZN10MainWindowC1EP7QWidget>:
#include "mainwindow.h"
#include "ui_mainwindow.h"
#include "parser.h"

MainWindow::MainWindow(QWidget *parent) :
   0:	55                   	push   %rbp
   1:	48 89 e5             	mov    %rsp,%rbp
   4:	53                   	push   %rbx
   5:	48 83 ec 28          	sub    $0x28,%rsp
   9:	48 89 7d d8          	mov    %rdi,-0x28(%rbp)
   d:	48 89 75 d0          	mov    %rsi,-0x30(%rbp)
  11:	64 48 8b 04 25 28 00 	mov    %fs:0x28,%rax
  18:	00 00 
  1a:	48 89 45 e8          	mov    %rax,-0x18(%rbp)
  1e:	31 c0                	xor    %eax,%eax
    QMainWindow(parent),
    ui(new Ui::MainWindow)
  20:	48 8d 45 e0          	lea    -0x20(%rbp),%rax
  24:	48 c7 c6 ff ff ff ff 	mov    $0xffffffffffffffff,%rsi
  2b:	48 89 c7             	mov    %rax,%rdi
  2e:	e8 00 00 00 00       	callq  33 <_ZN10MainWindowC1EP7QWidget+0x33>
  33:	48 8b 45 d8          	mov    -0x28(%rbp),%rax
  37:	8b 55 e0             	mov    -0x20(%rbp),%edx
  3a:	48 8b 4d d0          	mov    -0x30(%rbp),%rcx
  3e:	48 89 ce             	mov    %rcx,%rsi
  41:	48 89 c7             	mov    %rax,%rdi
  44:	e8 00 00 00 00       	callq  49 <_ZN10MainWindowC1EP7QWidget+0x49>
  49:	48 8b 05 00 00 00 00 	mov    0x0(%rip),%rax        # 50 <_ZN10MainWindowC1EP7QWidget+0x50>
  50:	48 8d 50 10          	lea    0x10(%rax),%rdx
  54:	48 8b 45 d8          	mov    -0x28(%rbp),%rax
  58:	48 89 10             	mov    %rdx,(%rax)
  5b:	48 8b 05 00 00 00 00 	mov    0x0(%rip),%rax        # 62 <_ZN10MainWindowC1EP7QWidget+0x62>
  62:	48 8d 90 c8 01 00 00 	lea    0x1c8(%rax),%rdx
  69:	48 8b 45 d8          	mov    -0x28(%rbp),%rax
  6d:	48 89 50 10          	mov    %rdx,0x10(%rax)
  71:	bf 98 00 00 00       	mov    $0x98,%edi
  76:	e8 00 00 00 00       	callq  7b <_ZN10MainWindowC1EP7QWidget+0x7b>
  7b:	48 89 c2             	mov    %rax,%rdx
  7e:	48 8b 45 d8          	mov    -0x28(%rbp),%rax
  82:	48 89 50 30          	mov    %rdx,0x30(%rax)
{
    ui->setupUi(this);
  86:	48 8b 45 d8          	mov    -0x28(%rbp),%rax
  8a:	48 8b 55 d8          	mov    -0x28(%rbp),%rdx
  8e:	48 8b 52 30          	mov    0x30(%rdx),%rdx
  92:	48 89 c6             	mov    %rax,%rsi
  95:	48 89 d7             	mov    %rdx,%rdi
  98:	e8 00 00 00 00       	callq  9d <_ZN10MainWindowC1EP7QWidget+0x9d>
}
  9d:	eb 1a                	jmp    b9 <_ZN10MainWindowC1EP7QWidget+0xb9>
  9f:	48 89 c3             	mov    %rax,%rbx
#include "ui_mainwindow.h"
#include "parser.h"

MainWindow::MainWindow(QWidget *parent) :
    QMainWindow(parent),
    ui(new Ui::MainWindow)
  a2:	48 8b 45 d8          	mov    -0x28(%rbp),%rax
  a6:	48 89 c7             	mov    %rax,%rdi
  a9:	e8 00 00 00 00       	callq  ae <_ZN10MainWindowC1EP7QWidget+0xae>
  ae:	48 89 d8             	mov    %rbx,%rax
  b1:	48 89 c7             	mov    %rax,%rdi
  b4:	e8 00 00 00 00       	callq  b9 <_ZN10MainWindowC1EP7QWidget+0xb9>
{
    ui->setupUi(this);
}
  b9:	48 8b 45 e8          	mov    -0x18(%rbp),%rax
  bd:	64 48 33 04 25 28 00 	xor    %fs:0x28,%rax
  c4:	00 00 
  c6:	74 05                	je     cd <_ZN10MainWindowC1EP7QWidget+0xcd>
  c8:	e8 00 00 00 00       	callq  cd <_ZN10MainWindowC1EP7QWidget+0xcd>
  cd:	48 83 c4 28          	add    $0x28,%rsp
  d1:	5b                   	pop    %rbx
  d2:	5d                   	pop    %rbp
  d3:	c3                   	retq   

00000000000000d4 <_ZN10MainWindowD1Ev>:

MainWindow::~MainWindow()
  d4:	55                   	push   %rbp
  d5:	48 89 e5             	mov    %rsp,%rbp
  d8:	48 83 ec 10          	sub    $0x10,%rsp
  dc:	48 89 7d f8          	mov    %rdi,-0x8(%rbp)
  e0:	48 8b 05 00 00 00 00 	mov    0x0(%rip),%rax        # e7 <_ZN10MainWindowD1Ev+0x13>
  e7:	48 8d 50 10          	lea    0x10(%rax),%rdx
  eb:	48 8b 45 f8          	mov    -0x8(%rbp),%rax
  ef:	48 89 10             	mov    %rdx,(%rax)
  f2:	48 8b 05 00 00 00 00 	mov    0x0(%rip),%rax        # f9 <_ZN10MainWindowD1Ev+0x25>
  f9:	48 8d 90 c8 01 00 00 	lea    0x1c8(%rax),%rdx
 100:	48 8b 45 f8          	mov    -0x8(%rbp),%rax
 104:	48 89 50 10          	mov    %rdx,0x10(%rax)
{
    delete ui;
 108:	48 8b 45 f8          	mov    -0x8(%rbp),%rax
 10c:	48 8b 40 30          	mov    0x30(%rax),%rax
 110:	48 89 c7             	mov    %rax,%rdi
 113:	e8 00 00 00 00       	callq  118 <_ZN10MainWindowD1Ev+0x44>
    ui(new Ui::MainWindow)
{
    ui->setupUi(this);
}

MainWindow::~MainWindow()
 118:	48 8b 45 f8          	mov    -0x8(%rbp),%rax
 11c:	48 89 c7             	mov    %rax,%rdi
 11f:	e8 00 00 00 00       	callq  124 <_ZN10MainWindowD1Ev+0x50>
{
    delete ui;
}
 124:	b8 00 00 00 00       	mov    $0x0,%eax
 129:	85 c0                	test   %eax,%eax
 12b:	74 0c                	je     139 <_ZN10MainWindowD1Ev+0x65>
 12d:	48 8b 45 f8          	mov    -0x8(%rbp),%rax
 131:	48 89 c7             	mov    %rax,%rdi
 134:	e8 00 00 00 00       	callq  139 <_ZN10MainWindowD1Ev+0x65>
 139:	c9                   	leaveq 
 13a:	c3                   	retq   

000000000000013b <_ZThn16_N10MainWindowD1Ev>:
{
    Q_OBJECT

public:
    explicit MainWindow(QWidget *parent = 0);
    ~MainWindow();
 13b:	48 83 ef 10          	sub    $0x10,%rdi
 13f:	eb 93                	jmp    d4 <_ZN10MainWindowD1Ev>
 141:	90                   	nop

0000000000000142 <_ZN10MainWindowD0Ev>:
    ui(new Ui::MainWindow)
{
    ui->setupUi(this);
}

MainWindow::~MainWindow()
 142:	55                   	push   %rbp
 143:	48 89 e5             	mov    %rsp,%rbp
 146:	48 83 ec 10          	sub    $0x10,%rsp
 14a:	48 89 7d f8          	mov    %rdi,-0x8(%rbp)
{
    delete ui;
}
 14e:	48 8b 45 f8          	mov    -0x8(%rbp),%rax
 152:	48 89 c7             	mov    %rax,%rdi
 155:	e8 00 00 00 00       	callq  15a <_ZN10MainWindowD0Ev+0x18>
 15a:	48 8b 45 f8          	mov    -0x8(%rbp),%rax
 15e:	48 89 c7             	mov    %rax,%rdi
 161:	e8 00 00 00 00       	callq  166 <_ZN10MainWindowD0Ev+0x24>
 166:	c9                   	leaveq 
 167:	c3                   	retq   

0000000000000168 <_ZThn16_N10MainWindowD0Ev>:
 168:	48 83 ef 10          	sub    $0x10,%rdi
 16c:	eb d4                	jmp    142 <_ZN10MainWindowD0Ev>

000000000000016e <_ZN10MainWindow2peE7QString>:

void MainWindow::pe(QString str){
 16e:	55                   	push   %rbp
 16f:	48 89 e5             	mov    %rsp,%rbp
 172:	48 83 ec 10          	sub    $0x10,%rsp
 176:	48 89 7d f8          	mov    %rdi,-0x8(%rbp)
 17a:	48 89 75 f0          	mov    %rsi,-0x10(%rbp)
    ui->plainTextEdit_2->appendPlainText(str);
 17e:	48 8b 45 f8          	mov    -0x8(%rbp),%rax
 182:	48 8b 40 30          	mov    0x30(%rax),%rax
 186:	48 8b 40 50          	mov    0x50(%rax),%rax
 18a:	48 8b 55 f0          	mov    -0x10(%rbp),%rdx
 18e:	48 89 d6             	mov    %rdx,%rsi
 191:	48 89 c7             	mov    %rax,%rdi
 194:	e8 00 00 00 00       	callq  199 <_ZN10MainWindow2peE7QString+0x2b>
}
 199:	90                   	nop
 19a:	c9                   	leaveq 
 19b:	c3                   	retq   

000000000000019c <_ZN10MainWindow21on_pushButton_clickedEv>:

void MainWindow::on_pushButton_clicked()
{
 19c:	55                   	push   %rbp
 19d:	48 89 e5             	mov    %rsp,%rbp
 1a0:	53                   	push   %rbx
 1a1:	48 81 ec e8 00 00 00 	sub    $0xe8,%rsp
 1a8:	48 89 bd 18 ff ff ff 	mov    %rdi,-0xe8(%rbp)
 1af:	64 48 8b 04 25 28 00 	mov    %fs:0x28,%rax
 1b6:	00 00 
 1b8:	48 89 45 e8          	mov    %rax,-0x18(%rbp)
 1bc:	31 c0                	xor    %eax,%eax
    Parser P;
 1be:	48 8d 85 40 ff ff ff 	lea    -0xc0(%rbp),%rax
 1c5:	48 89 c7             	mov    %rax,%rdi
 1c8:	e8 00 00 00 00       	callq  1cd <_ZN10MainWindow21on_pushButton_clickedEv+0x31>
    P.script = ui->plainTextEdit->toPlainText();
 1cd:	48 8b 85 18 ff ff ff 	mov    -0xe8(%rbp),%rax
 1d4:	48 8b 40 30          	mov    0x30(%rax),%rax
 1d8:	48 8b 50 58          	mov    0x58(%rax),%rdx
 1dc:	48 8d 85 30 ff ff ff 	lea    -0xd0(%rbp),%rax
 1e3:	48 89 d6             	mov    %rdx,%rsi
 1e6:	48 89 c7             	mov    %rax,%rdi
 1e9:	e8 00 00 00 00       	callq  1ee <_ZN10MainWindow21on_pushButton_clickedEv+0x52>
 1ee:	48 8d 95 30 ff ff ff 	lea    -0xd0(%rbp),%rdx
 1f5:	48 8d 85 40 ff ff ff 	lea    -0xc0(%rbp),%rax
 1fc:	48 89 d6             	mov    %rdx,%rsi
 1ff:	48 89 c7             	mov    %rax,%rdi
 202:	e8 00 00 00 00       	callq  207 <_ZN10MainWindow21on_pushButton_clickedEv+0x6b>
 207:	48 8d 85 30 ff ff ff 	lea    -0xd0(%rbp),%rax
 20e:	48 89 c7             	mov    %rax,%rdi
 211:	e8 00 00 00 00       	callq  216 <_ZN10MainWindow21on_pushButton_clickedEv+0x7a>
    int i = P.compile();
 216:	48 8d 85 40 ff ff ff 	lea    -0xc0(%rbp),%rax
 21d:	48 89 c7             	mov    %rax,%rdi
 220:	e8 00 00 00 00       	callq  225 <_ZN10MainWindow21on_pushButton_clickedEv+0x89>
 225:	89 85 2c ff ff ff    	mov    %eax,-0xd4(%rbp)
    ui->plainTextEdit_2->appendPlainText(str);
}

void MainWindow::on_pushButton_clicked()
{
    Parser P;
 22b:	48 8d 85 40 ff ff ff 	lea    -0xc0(%rbp),%rax
 232:	48 89 c7             	mov    %rax,%rdi
 235:	e8 00 00 00 00       	callq  23a <_ZN10MainWindow21on_pushButton_clickedEv+0x9e>
    P.script = ui->plainTextEdit->toPlainText();
    int i = P.compile();
}
 23a:	90                   	nop
 23b:	48 8b 45 e8          	mov    -0x18(%rbp),%rax
 23f:	64 48 33 04 25 28 00 	xor    %fs:0x28,%rax
 246:	00 00 
 248:	74 38                	je     282 <_ZN10MainWindow21on_pushButton_clickedEv+0xe6>
 24a:	eb 31                	jmp    27d <_ZN10MainWindow21on_pushButton_clickedEv+0xe1>
 24c:	48 89 c3             	mov    %rax,%rbx
}

void MainWindow::on_pushButton_clicked()
{
    Parser P;
    P.script = ui->plainTextEdit->toPlainText();
 24f:	48 8d 85 30 ff ff ff 	lea    -0xd0(%rbp),%rax
 256:	48 89 c7             	mov    %rax,%rdi
 259:	e8 00 00 00 00       	callq  25e <_ZN10MainWindow21on_pushButton_clickedEv+0xc2>
 25e:	eb 03                	jmp    263 <_ZN10MainWindow21on_pushButton_clickedEv+0xc7>
 260:	48 89 c3             	mov    %rax,%rbx
    ui->plainTextEdit_2->appendPlainText(str);
}

void MainWindow::on_pushButton_clicked()
{
    Parser P;
 263:	48 8d 85 40 ff ff ff 	lea    -0xc0(%rbp),%rax
 26a:	48 89 c7             	mov    %rax,%rdi
 26d:	e8 00 00 00 00       	callq  272 <_ZN10MainWindow21on_pushButton_clickedEv+0xd6>
 272:	48 89 d8             	mov    %rbx,%rax
 275:	48 89 c7             	mov    %rax,%rdi
 278:	e8 00 00 00 00       	callq  27d <_ZN10MainWindow21on_pushButton_clickedEv+0xe1>
    P.script = ui->plainTextEdit->toPlainText();
    int i = P.compile();
}
 27d:	e8 00 00 00 00       	callq  282 <_ZN10MainWindow21on_pushButton_clickedEv+0xe6>
 282:	48 81 c4 e8 00 00 00 	add    $0xe8,%rsp
 289:	5b                   	pop    %rbx
 28a:	5d                   	pop    %rbp
 28b:	c3                   	retq   

Дизассемблирование раздела .text._ZN9QtPrivate8RefCount5derefEv:

0000000000000000 <_ZN9QtPrivate8RefCount5derefEv>:
#include "mainwindow.h"
#include "ui_mainwindow.h"
#include "parser.h"

MainWindow::MainWindow(QWidget *parent) :
   0:	55                   	push   %rbp
   1:	48 89 e5             	mov    %rsp,%rbp
   4:	48 83 ec 20          	sub    $0x20,%rsp
   8:	48 89 7d e8          	mov    %rdi,-0x18(%rbp)
   c:	48 8b 45 e8          	mov    -0x18(%rbp),%rax
  10:	48 89 c7             	mov    %rax,%rdi
  13:	e8 00 00 00 00       	callq  18 <_ZN9QtPrivate8RefCount5derefEv+0x18>
  18:	89 45 fc             	mov    %eax,-0x4(%rbp)
  1b:	83 7d fc 00          	cmpl   $0x0,-0x4(%rbp)
  1f:	75 07                	jne    28 <_ZN9QtPrivate8RefCount5derefEv+0x28>
    QMainWindow(parent),
    ui(new Ui::MainWindow)
  21:	b8 00 00 00 00       	mov    $0x0,%eax
  26:	eb 19                	jmp    41 <_ZN9QtPrivate8RefCount5derefEv+0x41>
  28:	83 7d fc ff          	cmpl   $0xffffffff,-0x4(%rbp)
  2c:	75 07                	jne    35 <_ZN9QtPrivate8RefCount5derefEv+0x35>
  2e:	b8 01 00 00 00       	mov    $0x1,%eax
  33:	eb 0c                	jmp    41 <_ZN9QtPrivate8RefCount5derefEv+0x41>
  35:	48 8b 45 e8          	mov    -0x18(%rbp),%rax
  39:	48 89 c7             	mov    %rax,%rdi
  3c:	e8 00 00 00 00       	callq  41 <_ZN9QtPrivate8RefCount5derefEv+0x41>
  41:	c9                   	leaveq 
  42:	c3                   	retq   

Дизассемблирование раздела .text._ZN10QArrayData10sharedNullEv:

0000000000000000 <_ZN10QArrayData10sharedNullEv>:
#include "mainwindow.h"
#include "ui_mainwindow.h"
#include "parser.h"

MainWindow::MainWindow(QWidget *parent) :
   0:	55                   	push   %rbp
   1:	48 89 e5             	mov    %rsp,%rbp
   4:	48 8b 05 00 00 00 00 	mov    0x0(%rip),%rax        # b <_ZN10QArrayData10sharedNullEv+0xb>
   b:	5d                   	pop    %rbp
   c:	c3                   	retq   

Дизассемблирование раздела .text._ZN10QByteArrayC2Ev:

0000000000000000 <_ZN10QByteArrayC1Ev>:
   0:	55                   	push   %rbp
   1:	48 89 e5             	mov    %rsp,%rbp
   4:	48 83 ec 10          	sub    $0x10,%rsp
   8:	48 89 7d f8          	mov    %rdi,-0x8(%rbp)
   c:	e8 00 00 00 00       	callq  11 <_ZN10QByteArrayC1Ev+0x11>
  11:	48 89 c2             	mov    %rax,%rdx
  14:	48 8b 45 f8          	mov    -0x8(%rbp),%rax
  18:	48 89 10             	mov    %rdx,(%rax)
  1b:	90                   	nop
  1c:	c9                   	leaveq 
  1d:	c3                   	retq   

Дизассемблирование раздела .text._ZN10QByteArrayD2Ev:

0000000000000000 <_ZN10QByteArrayD1Ev>:
   0:	55                   	push   %rbp
   1:	48 89 e5             	mov    %rsp,%rbp
   4:	48 83 ec 10          	sub    $0x10,%rsp
   8:	48 89 7d f8          	mov    %rdi,-0x8(%rbp)
   c:	48 8b 45 f8          	mov    -0x8(%rbp),%rax
  10:	48 8b 00             	mov    (%rax),%rax
  13:	48 89 c7             	mov    %rax,%rdi
  16:	e8 00 00 00 00       	callq  1b <_ZN10QByteArrayD1Ev+0x1b>
  1b:	83 f0 01             	xor    $0x1,%eax
  1e:	84 c0                	test   %al,%al
    QMainWindow(parent),
    ui(new Ui::MainWindow)
  20:	74 0f                	je     31 <_ZN10QByteArrayD1Ev+0x31>
  22:	48 8b 45 f8          	mov    -0x8(%rbp),%rax
  26:	48 8b 00             	mov    (%rax),%rax
  29:	48 89 c7             	mov    %rax,%rdi
  2c:	e8 00 00 00 00       	callq  31 <_ZN10QByteArrayD1Ev+0x31>
  31:	90                   	nop
  32:	c9                   	leaveq 
  33:	c3                   	retq   

Дизассемблирование раздела .text._ZN7QString8fromUtf8EPKci:

0000000000000000 <_ZN7QString8fromUtf8EPKci>:
#include "mainwindow.h"
#include "ui_mainwindow.h"
#include "parser.h"

MainWindow::MainWindow(QWidget *parent) :
   0:	55                   	push   %rbp
   1:	48 89 e5             	mov    %rsp,%rbp
   4:	48 83 ec 30          	sub    $0x30,%rsp
   8:	48 89 7d e8          	mov    %rdi,-0x18(%rbp)
   c:	48 89 75 e0          	mov    %rsi,-0x20(%rbp)
  10:	89 55 dc             	mov    %edx,-0x24(%rbp)
  13:	64 48 8b 04 25 28 00 	mov    %fs:0x28,%rax
  1a:	00 00 
  1c:	48 89 45 f8          	mov    %rax,-0x8(%rbp)
    QMainWindow(parent),
    ui(new Ui::MainWindow)
  20:	31 c0                	xor    %eax,%eax
  22:	48 83 7d e0 00       	cmpq   $0x0,-0x20(%rbp)
  27:	74 14                	je     3d <_ZN7QString8fromUtf8EPKci+0x3d>
  29:	83 7d dc ff          	cmpl   $0xffffffff,-0x24(%rbp)
  2d:	75 0e                	jne    3d <_ZN7QString8fromUtf8EPKci+0x3d>
  2f:	48 8b 45 e0          	mov    -0x20(%rbp),%rax
  33:	48 89 c7             	mov    %rax,%rdi
  36:	e8 00 00 00 00       	callq  3b <_ZN7QString8fromUtf8EPKci+0x3b>
  3b:	eb 03                	jmp    40 <_ZN7QString8fromUtf8EPKci+0x40>
  3d:	8b 45 dc             	mov    -0x24(%rbp),%eax
  40:	48 8b 4d e8          	mov    -0x18(%rbp),%rcx
  44:	48 8b 75 e0          	mov    -0x20(%rbp),%rsi
  48:	89 c2                	mov    %eax,%edx
  4a:	48 89 cf             	mov    %rcx,%rdi
  4d:	e8 00 00 00 00       	callq  52 <_ZN7QString8fromUtf8EPKci+0x52>
  52:	48 8b 45 e8          	mov    -0x18(%rbp),%rax
  56:	48 8b 55 f8          	mov    -0x8(%rbp),%rdx
  5a:	64 48 33 14 25 28 00 	xor    %fs:0x28,%rdx
  61:	00 00 
  63:	74 05                	je     6a <_ZN7QString8fromUtf8EPKci+0x6a>
  65:	e8 00 00 00 00       	callq  6a <_ZN7QString8fromUtf8EPKci+0x6a>
  6a:	c9                   	leaveq 
  6b:	c3                   	retq   

Дизассемблирование раздела .text._ZNK7QString7isEmptyEv:

0000000000000000 <_ZNK7QString7isEmptyEv>:
#include "mainwindow.h"
#include "ui_mainwindow.h"
#include "parser.h"

MainWindow::MainWindow(QWidget *parent) :
   0:	55                   	push   %rbp
   1:	48 89 e5             	mov    %rsp,%rbp
   4:	48 89 7d f8          	mov    %rdi,-0x8(%rbp)
   8:	48 8b 45 f8          	mov    -0x8(%rbp),%rax
   c:	48 8b 00             	mov    (%rax),%rax
   f:	8b 40 04             	mov    0x4(%rax),%eax
  12:	85 c0                	test   %eax,%eax
  14:	0f 94 c0             	sete   %al
  17:	5d                   	pop    %rbp
  18:	c3                   	retq   

Дизассемблирование раздела .text._ZN7QStringC2Ev:

0000000000000000 <_ZN7QStringC1Ev>:
   0:	55                   	push   %rbp
   1:	48 89 e5             	mov    %rsp,%rbp
   4:	48 83 ec 10          	sub    $0x10,%rsp
   8:	48 89 7d f8          	mov    %rdi,-0x8(%rbp)
   c:	e8 00 00 00 00       	callq  11 <_ZN7QStringC1Ev+0x11>
  11:	48 89 c2             	mov    %rax,%rdx
  14:	48 8b 45 f8          	mov    -0x8(%rbp),%rax
  18:	48 89 10             	mov    %rdx,(%rax)
  1b:	90                   	nop
  1c:	c9                   	leaveq 
  1d:	c3                   	retq   

Дизассемблирование раздела .text._ZN7QStringD2Ev:

0000000000000000 <_ZN7QStringD1Ev>:
   0:	55                   	push   %rbp
   1:	48 89 e5             	mov    %rsp,%rbp
   4:	48 83 ec 10          	sub    $0x10,%rsp
   8:	48 89 7d f8          	mov    %rdi,-0x8(%rbp)
   c:	48 8b 45 f8          	mov    -0x8(%rbp),%rax
  10:	48 8b 00             	mov    (%rax),%rax
  13:	48 89 c7             	mov    %rax,%rdi
  16:	e8 00 00 00 00       	callq  1b <_ZN7QStringD1Ev+0x1b>
  1b:	83 f0 01             	xor    $0x1,%eax
  1e:	84 c0                	test   %al,%al
    QMainWindow(parent),
    ui(new Ui::MainWindow)
  20:	74 0f                	je     31 <_ZN7QStringD1Ev+0x31>
  22:	48 8b 45 f8          	mov    -0x8(%rbp),%rax
  26:	48 8b 00             	mov    (%rax),%rax
  29:	48 89 c7             	mov    %rax,%rdi
  2c:	e8 00 00 00 00       	callq  31 <_ZN7QStringD1Ev+0x31>
  31:	90                   	nop
  32:	c9                   	leaveq 
  33:	c3                   	retq   

Дизассемблирование раздела .text._ZN19QListSpecialMethodsI7QStringED2Ev:

0000000000000000 <_ZN19QListSpecialMethodsI7QStringED1Ev>:
#include "mainwindow.h"
#include "ui_mainwindow.h"
#include "parser.h"

MainWindow::MainWindow(QWidget *parent) :
   0:	55                   	push   %rbp
   1:	48 89 e5             	mov    %rsp,%rbp
   4:	48 89 7d f8          	mov    %rdi,-0x8(%rbp)
   8:	90                   	nop
   9:	5d                   	pop    %rbp
   a:	c3                   	retq   

Дизассемблирование раздела .text._ZN11QStringListC2Ev:

0000000000000000 <_ZN11QStringListC1Ev>:
   0:	55                   	push   %rbp
   1:	48 89 e5             	mov    %rsp,%rbp
   4:	48 83 ec 10          	sub    $0x10,%rsp
   8:	48 89 7d f8          	mov    %rdi,-0x8(%rbp)
   c:	48 8b 45 f8          	mov    -0x8(%rbp),%rax
  10:	48 89 c7             	mov    %rax,%rdi
  13:	e8 00 00 00 00       	callq  18 <_ZN11QStringListC1Ev+0x18>
  18:	90                   	nop
  19:	c9                   	leaveq 
  1a:	c3                   	retq   

Дизассемблирование раздела .text._ZN11QStringListD2Ev:

0000000000000000 <_ZN11QStringListD1Ev>:
   0:	55                   	push   %rbp
   1:	48 89 e5             	mov    %rsp,%rbp
   4:	48 83 ec 10          	sub    $0x10,%rsp
   8:	48 89 7d f8          	mov    %rdi,-0x8(%rbp)
   c:	48 8b 45 f8          	mov    -0x8(%rbp),%rax
  10:	48 89 c7             	mov    %rax,%rdi
  13:	e8 00 00 00 00       	callq  18 <_ZN11QStringListD1Ev+0x18>
  18:	90                   	nop
  19:	c9                   	leaveq 
  1a:	c3                   	retq   

Дизассемблирование раздела .text._ZN5QSizeC2Eii:

0000000000000000 <_ZN5QSizeC1Eii>:
   0:	55                   	push   %rbp
   1:	48 89 e5             	mov    %rsp,%rbp
   4:	48 89 7d f8          	mov    %rdi,-0x8(%rbp)
   8:	89 75 f4             	mov    %esi,-0xc(%rbp)
   b:	89 55 f0             	mov    %edx,-0x10(%rbp)
   e:	48 8b 45 f8          	mov    -0x8(%rbp),%rax
  12:	8b 55 f4             	mov    -0xc(%rbp),%edx
  15:	89 10                	mov    %edx,(%rax)
  17:	48 8b 45 f8          	mov    -0x8(%rbp),%rax
  1b:	8b 55 f0             	mov    -0x10(%rbp),%edx
  1e:	89 50 04             	mov    %edx,0x4(%rax)
    QMainWindow(parent),
    ui(new Ui::MainWindow)
  21:	90                   	nop
  22:	5d                   	pop    %rbp
  23:	c3                   	retq   

Дизассемблирование раздела .text._ZN5QRectC2Eiiii:

0000000000000000 <_ZN5QRectC1Eiiii>:
#include "mainwindow.h"
#include "ui_mainwindow.h"
#include "parser.h"

MainWindow::MainWindow(QWidget *parent) :
   0:	55                   	push   %rbp
   1:	48 89 e5             	mov    %rsp,%rbp
   4:	48 89 7d f8          	mov    %rdi,-0x8(%rbp)
   8:	89 75 f4             	mov    %esi,-0xc(%rbp)
   b:	89 55 f0             	mov    %edx,-0x10(%rbp)
   e:	89 4d ec             	mov    %ecx,-0x14(%rbp)
  11:	44 89 45 e8          	mov    %r8d,-0x18(%rbp)
  15:	48 8b 45 f8          	mov    -0x8(%rbp),%rax
  19:	8b 55 f4             	mov    -0xc(%rbp),%edx
  1c:	89 10                	mov    %edx,(%rax)
  1e:	48 8b 45 f8          	mov    -0x8(%rbp),%rax
    QMainWindow(parent),
    ui(new Ui::MainWindow)
  22:	8b 55 f0             	mov    -0x10(%rbp),%edx
  25:	89 50 04             	mov    %edx,0x4(%rax)
  28:	8b 55 f4             	mov    -0xc(%rbp),%edx
  2b:	8b 45 ec             	mov    -0x14(%rbp),%eax
  2e:	01 d0                	add    %edx,%eax
  30:	8d 50 ff             	lea    -0x1(%rax),%edx
  33:	48 8b 45 f8          	mov    -0x8(%rbp),%rax
  37:	89 50 08             	mov    %edx,0x8(%rax)
  3a:	8b 55 f0             	mov    -0x10(%rbp),%edx
  3d:	8b 45 e8             	mov    -0x18(%rbp),%eax
  40:	01 d0                	add    %edx,%eax
  42:	8d 50 ff             	lea    -0x1(%rax),%edx
  45:	48 8b 45 f8          	mov    -0x8(%rbp),%rax
  49:	89 50 0c             	mov    %edx,0xc(%rax)
  4c:	90                   	nop
  4d:	5d                   	pop    %rbp
  4e:	c3                   	retq   

Дизассемблирование раздела .text._ZN7QWidget6resizeEii:

0000000000000000 <_ZN7QWidget6resizeEii>:
#include "mainwindow.h"
#include "ui_mainwindow.h"
#include "parser.h"

MainWindow::MainWindow(QWidget *parent) :
   0:	55                   	push   %rbp
   1:	48 89 e5             	mov    %rsp,%rbp
   4:	48 83 ec 20          	sub    $0x20,%rsp
   8:	48 89 7d e8          	mov    %rdi,-0x18(%rbp)
   c:	89 75 e4             	mov    %esi,-0x1c(%rbp)
   f:	89 55 e0             	mov    %edx,-0x20(%rbp)
  12:	64 48 8b 04 25 28 00 	mov    %fs:0x28,%rax
  19:	00 00 
  1b:	48 89 45 f8          	mov    %rax,-0x8(%rbp)
  1f:	31 c0                	xor    %eax,%eax
    QMainWindow(parent),
    ui(new Ui::MainWindow)
  21:	8b 55 e0             	mov    -0x20(%rbp),%edx
  24:	8b 4d e4             	mov    -0x1c(%rbp),%ecx
  27:	48 8d 45 f0          	lea    -0x10(%rbp),%rax
  2b:	89 ce                	mov    %ecx,%esi
  2d:	48 89 c7             	mov    %rax,%rdi
  30:	e8 00 00 00 00       	callq  35 <_ZN7QWidget6resizeEii+0x35>
  35:	48 8d 55 f0          	lea    -0x10(%rbp),%rdx
  39:	48 8b 45 e8          	mov    -0x18(%rbp),%rax
  3d:	48 89 d6             	mov    %rdx,%rsi
  40:	48 89 c7             	mov    %rax,%rdi
  43:	e8 00 00 00 00       	callq  48 <_ZN7QWidget6resizeEii+0x48>
  48:	90                   	nop
  49:	48 8b 45 f8          	mov    -0x8(%rbp),%rax
  4d:	64 48 33 04 25 28 00 	xor    %fs:0x28,%rax
  54:	00 00 
  56:	74 05                	je     5d <_ZN7QWidget6resizeEii+0x5d>
  58:	e8 00 00 00 00       	callq  5d <_ZN7QWidget6resizeEii+0x5d>
  5d:	c9                   	leaveq 
  5e:	c3                   	retq   

Дизассемблирование раздела .text._ZNK14QPlainTextEdit11toPlainTextEv:

0000000000000000 <_ZNK14QPlainTextEdit11toPlainTextEv>:
#include "mainwindow.h"
#include "ui_mainwindow.h"
#include "parser.h"

MainWindow::MainWindow(QWidget *parent) :
   0:	55                   	push   %rbp
   1:	48 89 e5             	mov    %rsp,%rbp
   4:	48 83 ec 20          	sub    $0x20,%rsp
   8:	48 89 7d e8          	mov    %rdi,-0x18(%rbp)
   c:	48 89 75 e0          	mov    %rsi,-0x20(%rbp)
  10:	64 48 8b 04 25 28 00 	mov    %fs:0x28,%rax
  17:	00 00 
  19:	48 89 45 f8          	mov    %rax,-0x8(%rbp)
  1d:	31 c0                	xor    %eax,%eax
  1f:	48 8b 45 e0          	mov    -0x20(%rbp),%rax
    QMainWindow(parent),
    ui(new Ui::MainWindow)
  23:	48 89 c7             	mov    %rax,%rdi
  26:	e8 00 00 00 00       	callq  2b <_ZNK14QPlainTextEdit11toPlainTextEv+0x2b>
  2b:	48 89 c2             	mov    %rax,%rdx
  2e:	48 8b 45 e8          	mov    -0x18(%rbp),%rax
  32:	48 89 d6             	mov    %rdx,%rsi
  35:	48 89 c7             	mov    %rax,%rdi
  38:	e8 00 00 00 00       	callq  3d <_ZNK14QPlainTextEdit11toPlainTextEv+0x3d>
  3d:	48 8b 45 e8          	mov    -0x18(%rbp),%rax
  41:	48 8b 4d f8          	mov    -0x8(%rbp),%rcx
  45:	64 48 33 0c 25 28 00 	xor    %fs:0x28,%rcx
  4c:	00 00 
  4e:	74 05                	je     55 <_ZNK14QPlainTextEdit11toPlainTextEv+0x55>
  50:	e8 00 00 00 00       	callq  55 <_ZNK14QPlainTextEdit11toPlainTextEv+0x55>
  55:	c9                   	leaveq 
  56:	c3                   	retq   

Дизассемблирование раздела .text._ZN13Ui_MainWindow7setupUiEP11QMainWindow:

0000000000000000 <_ZN13Ui_MainWindow7setupUiEP11QMainWindow>:
#include "mainwindow.h"
#include "ui_mainwindow.h"
#include "parser.h"

MainWindow::MainWindow(QWidget *parent) :
   0:	55                   	push   %rbp
   1:	48 89 e5             	mov    %rsp,%rbp
   4:	41 54                	push   %r12
   6:	53                   	push   %rbx
   7:	48 83 ec 30          	sub    $0x30,%rsp
   b:	48 89 7d c8          	mov    %rdi,-0x38(%rbp)
   f:	48 89 75 c0          	mov    %rsi,-0x40(%rbp)
  13:	64 48 8b 04 25 28 00 	mov    %fs:0x28,%rax
  1a:	00 00 
  1c:	48 89 45 e8          	mov    %rax,-0x18(%rbp)
    QMainWindow(parent),
    ui(new Ui::MainWindow)
  20:	31 c0                	xor    %eax,%eax
  22:	48 8b 55 c0          	mov    -0x40(%rbp),%rdx
  26:	48 8d 45 d0          	lea    -0x30(%rbp),%rax
  2a:	48 89 d6             	mov    %rdx,%rsi
  2d:	48 89 c7             	mov    %rax,%rdi
  30:	e8 00 00 00 00       	callq  35 <_ZN13Ui_MainWindow7setupUiEP11QMainWindow+0x35>
  35:	48 8d 45 d0          	lea    -0x30(%rbp),%rax
  39:	48 89 c7             	mov    %rax,%rdi
  3c:	e8 00 00 00 00       	callq  41 <_ZN13Ui_MainWindow7setupUiEP11QMainWindow+0x41>
  41:	89 c3                	mov    %eax,%ebx
  43:	48 8d 45 d0          	lea    -0x30(%rbp),%rax
  47:	48 89 c7             	mov    %rax,%rdi
  4a:	e8 00 00 00 00       	callq  4f <_ZN13Ui_MainWindow7setupUiEP11QMainWindow+0x4f>
  4f:	84 db                	test   %bl,%bl
  51:	74 3c                	je     8f <_ZN13Ui_MainWindow7setupUiEP11QMainWindow+0x8f>
  53:	b8 0b 00 00 00       	mov    $0xb,%eax
  58:	83 e8 01             	sub    $0x1,%eax
  5b:	89 c2                	mov    %eax,%edx
  5d:	48 8d 45 d0          	lea    -0x30(%rbp),%rax
  61:	48 8d 35 00 00 00 00 	lea    0x0(%rip),%rsi        # 68 <_ZN13Ui_MainWindow7setupUiEP11QMainWindow+0x68>
  68:	48 89 c7             	mov    %rax,%rdi
  6b:	e8 00 00 00 00       	callq  70 <_ZN13Ui_MainWindow7setupUiEP11QMainWindow+0x70>
  70:	48 8b 45 c0          	mov    -0x40(%rbp),%rax
  74:	48 8d 55 d0          	lea    -0x30(%rbp),%rdx
  78:	48 89 d6             	mov    %rdx,%rsi
  7b:	48 89 c7             	mov    %rax,%rdi
  7e:	e8 00 00 00 00       	callq  83 <_ZN13Ui_MainWindow7setupUiEP11QMainWindow+0x83>
  83:	48 8d 45 d0          	lea    -0x30(%rbp),%rax
{
    ui->setupUi(this);
  87:	48 89 c7             	mov    %rax,%rdi
  8a:	e8 00 00 00 00       	callq  8f <_ZN13Ui_MainWindow7setupUiEP11QMainWindow+0x8f>
  8f:	48 8b 45 c0          	mov    -0x40(%rbp),%rax
  93:	ba 15 02 00 00       	mov    $0x215,%edx
  98:	be c2 02 00 00       	mov    $0x2c2,%esi
}
  9d:	48 89 c7             	mov    %rax,%rdi
  a0:	e8 00 00 00 00       	callq  a5 <_ZN13Ui_MainWindow7setupUiEP11QMainWindow+0xa5>
#include "ui_mainwindow.h"
#include "parser.h"

MainWindow::MainWindow(QWidget *parent) :
    QMainWindow(parent),
    ui(new Ui::MainWindow)
  a5:	bf 10 00 00 00       	mov    $0x10,%edi
  aa:	e8 00 00 00 00       	callq  af <_ZN13Ui_MainWindow7setupUiEP11QMainWindow+0xaf>
  af:	48 89 c3             	mov    %rax,%rbx
  b2:	48 8b 45 c0          	mov    -0x40(%rbp),%rax
  b6:	48 89 c6             	mov    %rax,%rsi
{
    ui->setupUi(this);
}
  b9:	48 89 df             	mov    %rbx,%rdi
  bc:	e8 00 00 00 00       	callq  c1 <_ZN13Ui_MainWindow7setupUiEP11QMainWindow+0xc1>
  c1:	48 8b 45 c8          	mov    -0x38(%rbp),%rax
  c5:	48 89 18             	mov    %rbx,(%rax)
  c8:	b8 0b 00 00 00       	mov    $0xb,%eax
  cd:	83 e8 01             	sub    $0x1,%eax
  d0:	89 c2                	mov    %eax,%edx
  d2:	48 8d 45 d0          	lea    -0x30(%rbp),%rax

MainWindow::~MainWindow()
  d6:	48 8d 35 00 00 00 00 	lea    0x0(%rip),%rsi        # dd <_ZN13Ui_MainWindow7setupUiEP11QMainWindow+0xdd>
  dd:	48 89 c7             	mov    %rax,%rdi
  e0:	e8 00 00 00 00       	callq  e5 <_ZN13Ui_MainWindow7setupUiEP11QMainWindow+0xe5>
  e5:	48 8b 45 c8          	mov    -0x38(%rbp),%rax
  e9:	48 8b 00             	mov    (%rax),%rax
  ec:	48 89 c2             	mov    %rax,%rdx
  ef:	48 8d 45 d0          	lea    -0x30(%rbp),%rax
  f3:	48 89 c6             	mov    %rax,%rsi
  f6:	48 89 d7             	mov    %rdx,%rdi
  f9:	e8 00 00 00 00       	callq  fe <_ZN13Ui_MainWindow7setupUiEP11QMainWindow+0xfe>
  fe:	48 8d 45 d0          	lea    -0x30(%rbp),%rax
 102:	48 89 c7             	mov    %rax,%rdi
 105:	e8 00 00 00 00       	callq  10a <_ZN13Ui_MainWindow7setupUiEP11QMainWindow+0x10a>
{
    delete ui;
 10a:	bf 10 00 00 00       	mov    $0x10,%edi
 10f:	e8 00 00 00 00       	callq  114 <_ZN13Ui_MainWindow7setupUiEP11QMainWindow+0x114>
 114:	48 89 c3             	mov    %rax,%rbx
 117:	48 8b 45 c0          	mov    -0x40(%rbp),%rax
    ui(new Ui::MainWindow)
{
    ui->setupUi(this);
}

MainWindow::~MainWindow()
 11b:	48 89 c6             	mov    %rax,%rsi
 11e:	48 89 df             	mov    %rbx,%rdi
 121:	e8 00 00 00 00       	callq  126 <_ZN13Ui_MainWindow7setupUiEP11QMainWindow+0x126>
{
    delete ui;
}
 126:	48 8b 45 c8          	mov    -0x38(%rbp),%rax
 12a:	48 89 58 08          	mov    %rbx,0x8(%rax)
 12e:	b8 0d 00 00 00       	mov    $0xd,%eax
 133:	83 e8 01             	sub    $0x1,%eax
 136:	89 c2                	mov    %eax,%edx
 138:	48 8d 45 d0          	lea    -0x30(%rbp),%rax
 13c:	48 8d 35 00 00 00 00 	lea    0x0(%rip),%rsi        # 143 <_ZN13Ui_MainWindow7setupUiEP11QMainWindow+0x143>
    ui(new Ui::MainWindow)
{
    ui->setupUi(this);
}

MainWindow::~MainWindow()
 143:	48 89 c7             	mov    %rax,%rdi
 146:	e8 00 00 00 00       	callq  14b <_ZN13Ui_MainWindow7setupUiEP11QMainWindow+0x14b>
 14b:	48 8b 45 c8          	mov    -0x38(%rbp),%rax
{
    delete ui;
}
 14f:	48 8b 40 08          	mov    0x8(%rax),%rax
 153:	48 89 c2             	mov    %rax,%rdx
 156:	48 8d 45 d0          	lea    -0x30(%rbp),%rax
 15a:	48 89 c6             	mov    %rax,%rsi
 15d:	48 89 d7             	mov    %rdx,%rdi
 160:	e8 00 00 00 00       	callq  165 <_ZN13Ui_MainWindow7setupUiEP11QMainWindow+0x165>
 165:	48 8d 45 d0          	lea    -0x30(%rbp),%rax
 169:	48 89 c7             	mov    %rax,%rdi
 16c:	e8 00 00 00 00       	callq  171 <_ZN13Ui_MainWindow7setupUiEP11QMainWindow+0x171>

void MainWindow::pe(QString str){
 171:	bf 10 00 00 00       	mov    $0x10,%edi
 176:	e8 00 00 00 00       	callq  17b <_ZN13Ui_MainWindow7setupUiEP11QMainWindow+0x17b>
 17b:	48 89 c3             	mov    %rax,%rbx
    ui->plainTextEdit_2->appendPlainText(str);
 17e:	48 8b 45 c0          	mov    -0x40(%rbp),%rax
 182:	48 89 c6             	mov    %rax,%rsi
 185:	48 89 df             	mov    %rbx,%rdi
 188:	e8 00 00 00 00       	callq  18d <_ZN13Ui_MainWindow7setupUiEP11QMainWindow+0x18d>
 18d:	48 8b 45 c8          	mov    -0x38(%rbp),%rax
 191:	48 89 58 10          	mov    %rbx,0x10(%rax)
 195:	b8 0b 00 00 00       	mov    $0xb,%eax
}
 19a:	83 e8 01             	sub    $0x1,%eax

void MainWindow::on_pushButton_clicked()
{
 19d:	89 c2                	mov    %eax,%edx
 19f:	48 8d 45 d0          	lea    -0x30(%rbp),%rax
 1a3:	48 8d 35 00 00 00 00 	lea    0x0(%rip),%rsi        # 1aa <_ZN13Ui_MainWindow7setupUiEP11QMainWindow+0x1aa>
 1aa:	48 89 c7             	mov    %rax,%rdi
 1ad:	e8 00 00 00 00       	callq  1b2 <_ZN13Ui_MainWindow7setupUiEP11QMainWindow+0x1b2>
 1b2:	48 8b 45 c8          	mov    -0x38(%rbp),%rax
 1b6:	48 8b 40 10          	mov    0x10(%rax),%rax
 1ba:	48 89 c2             	mov    %rax,%rdx
 1bd:	48 8d 45 d0          	lea    -0x30(%rbp),%rax
    Parser P;
 1c1:	48 89 c6             	mov    %rax,%rsi
 1c4:	48 89 d7             	mov    %rdx,%rdi
 1c7:	e8 00 00 00 00       	callq  1cc <_ZN13Ui_MainWindow7setupUiEP11QMainWindow+0x1cc>
 1cc:	48 8d 45 d0          	lea    -0x30(%rbp),%rax
    P.script = ui->plainTextEdit->toPlainText();
 1d0:	48 89 c7             	mov    %rax,%rdi
 1d3:	e8 00 00 00 00       	callq  1d8 <_ZN13Ui_MainWindow7setupUiEP11QMainWindow+0x1d8>
 1d8:	bf 10 00 00 00       	mov    $0x10,%edi
 1dd:	e8 00 00 00 00       	callq  1e2 <_ZN13Ui_MainWindow7setupUiEP11QMainWindow+0x1e2>
 1e2:	48 89 c3             	mov    %rax,%rbx
 1e5:	48 8b 45 c0          	mov    -0x40(%rbp),%rax
 1e9:	48 89 c6             	mov    %rax,%rsi
 1ec:	48 89 df             	mov    %rbx,%rdi
 1ef:	e8 00 00 00 00       	callq  1f4 <_ZN13Ui_MainWindow7setupUiEP11QMainWindow+0x1f4>
 1f4:	48 8b 45 c8          	mov    -0x38(%rbp),%rax
 1f8:	48 89 58 18          	mov    %rbx,0x18(%rax)
 1fc:	b8 0e 00 00 00       	mov    $0xe,%eax
 201:	83 e8 01             	sub    $0x1,%eax
 204:	89 c2                	mov    %eax,%edx
 206:	48 8d 45 d0          	lea    -0x30(%rbp),%rax
 20a:	48 8d 35 00 00 00 00 	lea    0x0(%rip),%rsi        # 211 <_ZN13Ui_MainWindow7setupUiEP11QMainWindow+0x211>
 211:	48 89 c7             	mov    %rax,%rdi
 214:	e8 00 00 00 00       	callq  219 <_ZN13Ui_MainWindow7setupUiEP11QMainWindow+0x219>
    int i = P.compile();
 219:	48 8b 45 c8          	mov    -0x38(%rbp),%rax
 21d:	48 8b 40 18          	mov    0x18(%rax),%rax
 221:	48 89 c2             	mov    %rax,%rdx
 224:	48 8d 45 d0          	lea    -0x30(%rbp),%rax
 228:	48 89 c6             	mov    %rax,%rsi
    ui->plainTextEdit_2->appendPlainText(str);
}

void MainWindow::on_pushButton_clicked()
{
    Parser P;
 22b:	48 89 d7             	mov    %rdx,%rdi
 22e:	e8 00 00 00 00       	callq  233 <_ZN13Ui_MainWindow7setupUiEP11QMainWindow+0x233>
 233:	48 8d 45 d0          	lea    -0x30(%rbp),%rax
 237:	48 89 c7             	mov    %rax,%rdi
    P.script = ui->plainTextEdit->toPlainText();
    int i = P.compile();
}
 23a:	e8 00 00 00 00       	callq  23f <_ZN13Ui_MainWindow7setupUiEP11QMainWindow+0x23f>
 23f:	bf 10 00 00 00       	mov    $0x10,%edi
 244:	e8 00 00 00 00       	callq  249 <_ZN13Ui_MainWindow7setupUiEP11QMainWindow+0x249>
 249:	48 89 c3             	mov    %rax,%rbx
 24c:	48 8b 45 c0          	mov    -0x40(%rbp),%rax
}

void MainWindow::on_pushButton_clicked()
{
    Parser P;
    P.script = ui->plainTextEdit->toPlainText();
 250:	48 89 c6             	mov    %rax,%rsi
 253:	48 89 df             	mov    %rbx,%rdi
 256:	e8 00 00 00 00       	callq  25b <_ZN13Ui_MainWindow7setupUiEP11QMainWindow+0x25b>
 25b:	48 8b 45 c8          	mov    -0x38(%rbp),%rax
 25f:	48 89 58 20          	mov    %rbx,0x20(%rax)
    ui->plainTextEdit_2->appendPlainText(str);
}

void MainWindow::on_pushButton_clicked()
{
    Parser P;
 263:	b8 0c 00 00 00       	mov    $0xc,%eax
 268:	83 e8 01             	sub    $0x1,%eax
 26b:	89 c2                	mov    %eax,%edx
 26d:	48 8d 45 d0          	lea    -0x30(%rbp),%rax
 271:	48 8d 35 00 00 00 00 	lea    0x0(%rip),%rsi        # 278 <_ZN13Ui_MainWindow7setupUiEP11QMainWindow+0x278>
 278:	48 89 c7             	mov    %rax,%rdi
 27b:	e8 00 00 00 00       	callq  280 <_ZN13Ui_MainWindow7setupUiEP11QMainWindow+0x280>
    P.script = ui->plainTextEdit->toPlainText();
    int i = P.compile();
}
 280:	48 8b 45 c8          	mov    -0x38(%rbp),%rax
 284:	48 8b 40 20          	mov    0x20(%rax),%rax
 288:	48 89 c2             	mov    %rax,%rdx
 28b:	48 8d 45 d0          	lea    -0x30(%rbp),%rax
        if (count != -1) // !isStatic
            atomic.ref();
        return true;
    }

    inline bool deref() Q_DECL_NOTHROW {
 28f:	48 89 c6             	mov    %rax,%rsi
 292:	48 89 d7             	mov    %rdx,%rdi
 295:	e8 00 00 00 00       	callq  29a <_ZN13Ui_MainWindow7setupUiEP11QMainWindow+0x29a>
        int count = atomic.load();
 29a:	48 8d 45 d0          	lea    -0x30(%rbp),%rax
 29e:	48 89 c7             	mov    %rax,%rdi
 2a1:	e8 00 00 00 00       	callq  2a6 <_ZN13Ui_MainWindow7setupUiEP11QMainWindow+0x2a6>
 2a6:	bf 10 00 00 00       	mov    $0x10,%edi
#if QT_SUPPORTS(UNSHARABLE_CONTAINERS)
        if (count == 0) // !isSharable
 2ab:	e8 00 00 00 00       	callq  2b0 <_ZN13Ui_MainWindow7setupUiEP11QMainWindow+0x2b0>
            return false;
 2b0:	48 89 c3             	mov    %rax,%rbx
 2b3:	48 8b 45 c0          	mov    -0x40(%rbp),%rax
#endif
        if (count == -1) // isStatic
 2b7:	48 89 c6             	mov    %rax,%rsi
            return true;
 2ba:	48 89 df             	mov    %rbx,%rdi
 2bd:	e8 00 00 00 00       	callq  2c2 <_ZN13Ui_MainWindow7setupUiEP11QMainWindow+0x2c2>
        return atomic.deref();
 2c2:	48 8b 45 c8          	mov    -0x38(%rbp),%rax
 2c6:	48 89 58 28          	mov    %rbx,0x28(%rax)
 2ca:	b8 0b 00 00 00       	mov    $0xb,%eax
        Q_DECL_NOTHROW Q_REQUIRED_RESULT;
    static void deallocate(QArrayData *data, size_t objectSize,
            size_t alignment) Q_DECL_NOTHROW;

    static const QArrayData shared_null[2];
    static QArrayData *sharedNull() Q_DECL_NOTHROW { return const_cast<QArrayData*>(shared_null); }
 2cf:	83 e8 01             	sub    $0x1,%eax
 2d2:	89 c2                	mov    %eax,%edx
 2d4:	48 8d 45 d0          	lea    -0x30(%rbp),%rax
 2d8:	48 8d 35 00 00 00 00 	lea    0x0(%rip),%rsi        # 2df <_ZN13Ui_MainWindow7setupUiEP11QMainWindow+0x2df>
    inline DataPtr &data_ptr() { return d; }
};

Q_DECLARE_OPERATORS_FOR_FLAGS(QByteArray::Base64Options)

inline QByteArray::QByteArray() Q_DECL_NOTHROW : d(Data::sharedNull()) { }
 2df:	48 89 c7             	mov    %rax,%rdi
 2e2:	e8 00 00 00 00       	callq  2e7 <_ZN13Ui_MainWindow7setupUiEP11QMainWindow+0x2e7>
 2e7:	48 8b 45 c8          	mov    -0x38(%rbp),%rax
 2eb:	48 8b 40 28          	mov    0x28(%rax),%rax
 2ef:	48 89 c2             	mov    %rax,%rdx
 2f2:	48 8d 45 d0          	lea    -0x30(%rbp),%rax
 2f6:	48 89 c6             	mov    %rax,%rsi
 2f9:	48 89 d7             	mov    %rdx,%rdi
inline QByteArray::~QByteArray() { if (!d->ref.deref()) Data::deallocate(d); }
 2fc:	e8 00 00 00 00       	callq  301 <_ZN13Ui_MainWindow7setupUiEP11QMainWindow+0x301>
 301:	48 8d 45 d0          	lea    -0x30(%rbp),%rax
 305:	48 89 c7             	mov    %rax,%rdi
 308:	e8 00 00 00 00       	callq  30d <_ZN13Ui_MainWindow7setupUiEP11QMainWindow+0x30d>
 30d:	bf 10 00 00 00       	mov    $0x10,%edi
 312:	e8 00 00 00 00       	callq  317 <_ZN13Ui_MainWindow7setupUiEP11QMainWindow+0x317>
 317:	48 89 c3             	mov    %rax,%rbx
 31a:	48 8b 45 c0          	mov    -0x40(%rbp),%rax
 31e:	48 89 c6             	mov    %rax,%rsi
 321:	48 89 df             	mov    %rbx,%rdi
 324:	e8 00 00 00 00       	callq  329 <_ZN13Ui_MainWindow7setupUiEP11QMainWindow+0x329>
 329:	48 8b 45 c8          	mov    -0x38(%rbp),%rax
 32d:	48 89 58 30          	mov    %rbx,0x30(%rax)
    static inline QString fromLatin1(const char *str, int size = -1)
    {
        QStringDataPtr dataPtr = { fromLatin1_helper(str, (str && size == -1) ? int(strlen(str)) : size) };
        return QString(dataPtr);
    }
    static inline QString fromUtf8(const char *str, int size = -1)
 331:	b8 0e 00 00 00       	mov    $0xe,%eax
 336:	83 e8 01             	sub    $0x1,%eax
 339:	89 c2                	mov    %eax,%edx
 33b:	48 8d 45 d0          	lea    -0x30(%rbp),%rax
 33f:	48 8d 35 00 00 00 00 	lea    0x0(%rip),%rsi        # 346 <_ZN13Ui_MainWindow7setupUiEP11QMainWindow+0x346>
 346:	48 89 c7             	mov    %rax,%rdi
 349:	e8 00 00 00 00       	callq  34e <_ZN13Ui_MainWindow7setupUiEP11QMainWindow+0x34e>
 34e:	48 8b 45 c8          	mov    -0x38(%rbp),%rax
    {
        return fromUtf8_helper(str, (str && size == -1) ? int(strlen(str)) : size);
 352:	48 8b 40 30          	mov    0x30(%rax),%rax
 356:	48 89 c2             	mov    %rax,%rdx
 359:	48 8d 45 d0          	lea    -0x30(%rbp),%rax
 35d:	48 89 c6             	mov    %rax,%rsi
 360:	48 89 d7             	mov    %rdx,%rdi
 363:	e8 00 00 00 00       	callq  368 <_ZN13Ui_MainWindow7setupUiEP11QMainWindow+0x368>
 368:	48 8d 45 d0          	lea    -0x30(%rbp),%rax
 36c:	48 89 c7             	mov    %rax,%rdi
 36f:	e8 00 00 00 00       	callq  374 <_ZN13Ui_MainWindow7setupUiEP11QMainWindow+0x374>
 374:	bf 10 00 00 00       	mov    $0x10,%edi
 379:	e8 00 00 00 00       	callq  37e <_ZN13Ui_MainWindow7setupUiEP11QMainWindow+0x37e>
 37e:	48 89 c3             	mov    %rax,%rbx
    }
 381:	48 8b 45 c0          	mov    -0x40(%rbp),%rax
 385:	48 89 c6             	mov    %rax,%rsi
 388:	48 89 df             	mov    %rbx,%rdi
 38b:	e8 00 00 00 00       	callq  390 <_ZN13Ui_MainWindow7setupUiEP11QMainWindow+0x390>
 390:	48 8b 45 c8          	mov    -0x38(%rbp),%rax
 394:	48 89 58 38          	mov    %rbx,0x38(%rax)
 398:	b8 0c 00 00 00       	mov    $0xc,%eax
inline const QChar QString::operator[](int i) const
{ Q_ASSERT(uint(i) < uint(size())); return d->data()[i]; }
inline const QChar QString::operator[](uint i) const
{ Q_ASSERT(i < uint(size())); return d->data()[i]; }
inline bool QString::isEmpty() const
{ return d->size == 0; }
 39d:	83 e8 01             	sub    $0x1,%eax
 3a0:	89 c2                	mov    %eax,%edx
 3a2:	48 8d 45 d0          	lea    -0x30(%rbp),%rax
 3a6:	48 8d 35 00 00 00 00 	lea    0x0(%rip),%rsi        # 3ad <_ZN13Ui_MainWindow7setupUiEP11QMainWindow+0x3ad>
 3ad:	48 89 c7             	mov    %rax,%rdi
 3b0:	e8 00 00 00 00       	callq  3b5 <_ZN13Ui_MainWindow7setupUiEP11QMainWindow+0x3b5>

inline void QCharRef::setRow(uchar arow) { QChar(*this).setRow(arow); }
inline void QCharRef::setCell(uchar acell) { QChar(*this).setCell(acell); }


inline QString::QString() Q_DECL_NOTHROW : d(Data::sharedNull()) {}
 3b5:	48 8b 45 c8          	mov    -0x38(%rbp),%rax
 3b9:	48 8b 40 38          	mov    0x38(%rax),%rax
 3bd:	48 89 c2             	mov    %rax,%rdx
 3c0:	48 8d 45 d0          	lea    -0x30(%rbp),%rax
 3c4:	48 89 c6             	mov    %rax,%rsi
 3c7:	48 89 d7             	mov    %rdx,%rdi
 3ca:	e8 00 00 00 00       	callq  3cf <_ZN13Ui_MainWindow7setupUiEP11QMainWindow+0x3cf>
 3cf:	48 8d 45 d0          	lea    -0x30(%rbp),%rax
inline QString::~QString() { if (!d->ref.deref()) Data::deallocate(d); }
 3d3:	48 89 c7             	mov    %rax,%rdi
 3d6:	e8 00 00 00 00       	callq  3db <_ZN13Ui_MainWindow7setupUiEP11QMainWindow+0x3db>
 3db:	48 8d 45 d0          	lea    -0x30(%rbp),%rax
 3df:	48 c7 c6 ff ff ff ff 	mov    $0xffffffffffffffff,%rsi
 3e6:	48 89 c7             	mov    %rax,%rdi
 3e9:	e8 00 00 00 00       	callq  3ee <_ZN13Ui_MainWindow7setupUiEP11QMainWindow+0x3ee>
 3ee:	bf 30 00 00 00       	mov    $0x30,%edi
 3f3:	e8 00 00 00 00       	callq  3f8 <_ZN13Ui_MainWindow7setupUiEP11QMainWindow+0x3f8>
 3f8:	48 89 c3             	mov    %rax,%rbx
 3fb:	8b 55 d0             	mov    -0x30(%rbp),%edx
 3fe:	48 8b 45 c0          	mov    -0x40(%rbp),%rax
 402:	48 89 c6             	mov    %rax,%rsi
 405:	48 89 df             	mov    %rbx,%rdi
template <> struct QListSpecialMethods<QString>
#endif
{
#ifndef Q_QDOC
protected:
    ~QListSpecialMethods() {}
 408:	e8 00 00 00 00       	callq  40d <_ZN13Ui_MainWindow7setupUiEP11QMainWindow+0x40d>
 40d:	48 8b 45 c8          	mov    -0x38(%rbp),%rax
 411:	48 89 58 40          	mov    %rbx,0x40(%rax)
// ### Qt6: check if there's a better way
class QStringList : public QList<QString>
{
#endif
public:
    inline QStringList() Q_DECL_NOTHROW { }
 415:	b8 0e 00 00 00       	mov    $0xe,%eax
 41a:	83 e8 01             	sub    $0x1,%eax
 41d:	89 c2                	mov    %eax,%edx
 41f:	48 8d 45 d0          	lea    -0x30(%rbp),%rax
 423:	48 8d 35 00 00 00 00 	lea    0x0(%rip),%rsi        # 42a <_ZN13Ui_MainWindow7setupUiEP11QMainWindow+0x42a>
 42a:	48 89 c7             	mov    %rax,%rdi
 42d:	e8 00 00 00 00       	callq  432 <_ZN13Ui_MainWindow7setupUiEP11QMainWindow+0x432>
    inline QStringList *self();
    inline const QStringList *self() const;
};

// ### Qt6: check if there's a better way
class QStringList : public QList<QString>
 432:	48 8b 45 c8          	mov    -0x38(%rbp),%rax
 436:	48 8b 40 40          	mov    0x40(%rax),%rax
 43a:	48 89 c2             	mov    %rax,%rdx
 43d:	48 8d 45 d0          	lea    -0x30(%rbp),%rax
 441:	48 89 c6             	mov    %rax,%rsi
 444:	48 89 d7             	mov    %rdx,%rdi
 447:	e8 00 00 00 00       	callq  44c <_ZN13Ui_MainWindow7setupUiEP11QMainWindow+0x44c>
  QSize inline functions
 *****************************************************************************/

Q_DECL_CONSTEXPR inline QSize::QSize() Q_DECL_NOTHROW : wd(-1), ht(-1) {}

Q_DECL_CONSTEXPR inline QSize::QSize(int w, int h) Q_DECL_NOTHROW : wd(w), ht(h) {}
 44c:	48 8d 45 d0          	lea    -0x30(%rbp),%rax
 450:	48 89 c7             	mov    %rax,%rdi
 453:	e8 00 00 00 00       	callq  458 <_ZN13Ui_MainWindow7setupUiEP11QMainWindow+0x458>
 458:	bf 20 00 00 00       	mov    $0x20,%edi
 45d:	e8 00 00 00 00       	callq  462 <_ZN13Ui_MainWindow7setupUiEP11QMainWindow+0x462>
 462:	48 89 c3             	mov    %rax,%rbx
 465:	48 8b 45 c8          	mov    -0x38(%rbp),%rax
 469:	48 8b 40 40          	mov    0x40(%rax),%rax
 46d:	48 89 c6             	mov    %rax,%rsi

/*****************************************************************************
  QRect inline member functions
 *****************************************************************************/

Q_DECL_CONSTEXPR inline QRect::QRect(int aleft, int atop, int awidth, int aheight) Q_DECL_NOTHROW
 470:	48 89 df             	mov    %rbx,%rdi
 473:	e8 00 00 00 00       	callq  478 <_ZN13Ui_MainWindow7setupUiEP11QMainWindow+0x478>
 478:	48 8b 45 c8          	mov    -0x38(%rbp),%rax
 47c:	48 89 58 48          	mov    %rbx,0x48(%rax)
 480:	48 8b 45 c8          	mov    -0x38(%rbp),%rax
    : x1(aleft), y1(atop), x2(aleft + awidth - 1), y2(atop + aheight - 1) {}
 484:	48 8b 40 48          	mov    0x48(%rax),%rax
 488:	be 06 00 00 00       	mov    $0x6,%esi
 48d:	48 89 c7             	mov    %rax,%rdi
 490:	e8 00 00 00 00       	callq  495 <_ZN13Ui_MainWindow7setupUiEP11QMainWindow+0x495>
 495:	48 8b 45 c8          	mov    -0x38(%rbp),%rax
 499:	48 8b 40 48          	mov    0x48(%rax),%rax
 49d:	41 b8 0b 00 00 00    	mov    $0xb,%r8d
 4a3:	b9 0b 00 00 00       	mov    $0xb,%ecx
 4a8:	ba 0b 00 00 00       	mov    $0xb,%edx
 4ad:	be 0b 00 00 00       	mov    $0xb,%esi
 4b2:	48 89 c7             	mov    %rax,%rdi
 4b5:	e8 00 00 00 00       	callq  4ba <_ZN13Ui_MainWindow7setupUiEP11QMainWindow+0x4ba>
 4ba:	b8 0b 00 00 00       	mov    $0xb,%eax
 4bf:	83 e8 01             	sub    $0x1,%eax
 4c2:	89 c2                	mov    %eax,%edx
 4c4:	48 8d 45 d0          	lea    -0x30(%rbp),%rax
 4c8:	48 8d 35 00 00 00 00 	lea    0x0(%rip),%rsi        # 4cf <_ZN13Ui_MainWindow7setupUiEP11QMainWindow+0x4cf>
 4cf:	48 89 c7             	mov    %rax,%rdi
 4d2:	e8 00 00 00 00       	callq  4d7 <_ZN13Ui_MainWindow7setupUiEP11QMainWindow+0x4d7>
 4d7:	48 8b 45 c8          	mov    -0x38(%rbp),%rax
 4db:	48 8b 40 48          	mov    0x48(%rax),%rax
 4df:	48 89 c2             	mov    %rax,%rdx
 4e2:	48 8d 45 d0          	lea    -0x30(%rbp),%rax
 4e6:	48 89 c6             	mov    %rax,%rsi
 4e9:	48 89 d7             	mov    %rdx,%rdi
 4ec:	e8 00 00 00 00       	callq  4f1 <_ZN13Ui_MainWindow7setupUiEP11QMainWindow+0x4f1>
 4f1:	48 8d 45 d0          	lea    -0x30(%rbp),%rax
 4f5:	48 89 c7             	mov    %rax,%rdi
 4f8:	e8 00 00 00 00       	callq  4fd <_ZN13Ui_MainWindow7setupUiEP11QMainWindow+0x4fd>
 4fd:	bf 30 00 00 00       	mov    $0x30,%edi
 502:	e8 00 00 00 00       	callq  507 <_ZN13Ui_MainWindow7setupUiEP11QMainWindow+0x507>
 507:	48 89 c3             	mov    %rax,%rbx
 50a:	48 8b 45 c8          	mov    -0x38(%rbp),%rax
 50e:	48 8b 40 40          	mov    0x40(%rax),%rax
 512:	48 89 c6             	mov    %rax,%rsi
 515:	48 89 df             	mov    %rbx,%rdi
 518:	e8 00 00 00 00       	callq  51d <_ZN13Ui_MainWindow7setupUiEP11QMainWindow+0x51d>
 51d:	48 8b 45 c8          	mov    -0x38(%rbp),%rax
 521:	48 89 58 50          	mov    %rbx,0x50(%rax)
 525:	b8 10 00 00 00       	mov    $0x10,%eax
 52a:	83 e8 01             	sub    $0x1,%eax
 52d:	89 c2                	mov    %eax,%edx
 52f:	48 8d 45 d0          	lea    -0x30(%rbp),%rax
 533:	48 8d 35 00 00 00 00 	lea    0x0(%rip),%rsi        # 53a <_ZN13Ui_MainWindow7setupUiEP11QMainWindow+0x53a>
 53a:	48 89 c7             	mov    %rax,%rdi
 53d:	e8 00 00 00 00       	callq  542 <_ZN13Ui_MainWindow7setupUiEP11QMainWindow+0x542>
 542:	48 8b 45 c8          	mov    -0x38(%rbp),%rax
 546:	48 8b 40 50          	mov    0x50(%rax),%rax
 54a:	48 89 c2             	mov    %rax,%rdx
 54d:	48 8d 45 d0          	lea    -0x30(%rbp),%rax
 551:	48 89 c6             	mov    %rax,%rsi
 554:	48 89 d7             	mov    %rdx,%rdi
 557:	e8 00 00 00 00       	callq  55c <_ZN13Ui_MainWindow7setupUiEP11QMainWindow+0x55c>
 55c:	48 8d 45 d0          	lea    -0x30(%rbp),%rax
 560:	48 89 c7             	mov    %rax,%rdi
 563:	e8 00 00 00 00       	callq  568 <_ZN13Ui_MainWindow7setupUiEP11QMainWindow+0x568>
 568:	48 8d 45 d0          	lea    -0x30(%rbp),%rax
 56c:	48 c7 c6 ff ff ff ff 	mov    $0xffffffffffffffff,%rsi
 573:	48 89 c7             	mov    %rax,%rdi
 576:	e8 00 00 00 00       	callq  57b <_ZN13Ui_MainWindow7setupUiEP11QMainWindow+0x57b>
 57b:	48 8b 45 c8          	mov    -0x38(%rbp),%rax
 57f:	48 8b 70 50          	mov    0x50(%rax),%rsi
 583:	48 8b 45 c8          	mov    -0x38(%rbp),%rax
 587:	48 8b 40 48          	mov    0x48(%rax),%rax
 58b:	48 83 ec 08          	sub    $0x8,%rsp
 58f:	8b 55 d0             	mov    -0x30(%rbp),%edx
 592:	52                   	push   %rdx
 593:	41 b9 01 00 00 00    	mov    $0x1,%r9d
 599:	41 b8 01 00 00 00    	mov    $0x1,%r8d
 59f:	b9 00 00 00 00       	mov    $0x0,%ecx
 5a4:	ba 03 00 00 00       	mov    $0x3,%edx
 5a9:	48 89 c7             	mov    %rax,%rdi
 5ac:	e8 00 00 00 00       	callq  5b1 <_ZN13Ui_MainWindow7setupUiEP11QMainWindow+0x5b1>
 5b1:	48 83 c4 10          	add    $0x10,%rsp
 5b5:	bf 30 00 00 00       	mov    $0x30,%edi
 5ba:	e8 00 00 00 00       	callq  5bf <_ZN13Ui_MainWindow7setupUiEP11QMainWindow+0x5bf>
 5bf:	48 89 c3             	mov    %rax,%rbx
 5c2:	48 8b 45 c8          	mov    -0x38(%rbp),%rax
 5c6:	48 8b 40 40          	mov    0x40(%rax),%rax
 5ca:	48 89 c6             	mov    %rax,%rsi
 5cd:	48 89 df             	mov    %rbx,%rdi
 5d0:	e8 00 00 00 00       	callq  5d5 <_ZN13Ui_MainWindow7setupUiEP11QMainWindow+0x5d5>
 5d5:	48 8b 45 c8          	mov    -0x38(%rbp),%rax
 5d9:	48 89 58 58          	mov    %rbx,0x58(%rax)
 5dd:	b8 0e 00 00 00       	mov    $0xe,%eax
 5e2:	83 e8 01             	sub    $0x1,%eax
 5e5:	89 c2                	mov    %eax,%edx
 5e7:	48 8d 45 d0          	lea    -0x30(%rbp),%rax
 5eb:	48 8d 35 00 00 00 00 	lea    0x0(%rip),%rsi        # 5f2 <_ZN13Ui_MainWindow7setupUiEP11QMainWindow+0x5f2>
 5f2:	48 89 c7             	mov    %rax,%rdi
 5f5:	e8 00 00 00 00       	callq  5fa <_ZN13Ui_MainWindow7setupUiEP11QMainWindow+0x5fa>
 5fa:	48 8b 45 c8          	mov    -0x38(%rbp),%rax
 5fe:	48 8b 40 58          	mov    0x58(%rax),%rax
 602:	48 89 c2             	mov    %rax,%rdx
 605:	48 8d 45 d0          	lea    -0x30(%rbp),%rax
 609:	48 89 c6             	mov    %rax,%rsi
 60c:	48 89 d7             	mov    %rdx,%rdi
 60f:	e8 00 00 00 00       	callq  614 <_ZN13Ui_MainWindow7setupUiEP11QMainWindow+0x614>
 614:	48 8d 45 d0          	lea    -0x30(%rbp),%rax
 618:	48 89 c7             	mov    %rax,%rdi
 61b:	e8 00 00 00 00       	callq  620 <_ZN13Ui_MainWindow7setupUiEP11QMainWindow+0x620>
 620:	48 8d 45 d0          	lea    -0x30(%rbp),%rax
 624:	48 c7 c6 ff ff ff ff 	mov    $0xffffffffffffffff,%rsi
 62b:	48 89 c7             	mov    %rax,%rdi
 62e:	e8 00 00 00 00       	callq  633 <_ZN13Ui_MainWindow7setupUiEP11QMainWindow+0x633>
 633:	48 8b 45 c8          	mov    -0x38(%rbp),%rax
 637:	48 8b 70 58          	mov    0x58(%rax),%rsi
 63b:	48 8b 45 c8          	mov    -0x38(%rbp),%rax
 63f:	48 8b 40 48          	mov    0x48(%rax),%rax
 643:	48 83 ec 08          	sub    $0x8,%rsp
 647:	8b 55 d0             	mov    -0x30(%rbp),%edx
 64a:	52                   	push   %rdx
 64b:	41 b9 01 00 00 00    	mov    $0x1,%r9d
 651:	41 b8 01 00 00 00    	mov    $0x1,%r8d
 657:	b9 00 00 00 00       	mov    $0x0,%ecx
 65c:	ba 01 00 00 00       	mov    $0x1,%edx
 661:	48 89 c7             	mov    %rax,%rdi
 664:	e8 00 00 00 00       	callq  669 <_ZN13Ui_MainWindow7setupUiEP11QMainWindow+0x669>
 669:	48 83 c4 10          	add    $0x10,%rsp
 66d:	bf 30 00 00 00       	mov    $0x30,%edi
 672:	e8 00 00 00 00       	callq  677 <_ZN13Ui_MainWindow7setupUiEP11QMainWindow+0x677>
 677:	48 89 c3             	mov    %rax,%rbx
 67a:	48 8b 45 c8          	mov    -0x38(%rbp),%rax
 67e:	48 8b 40 40          	mov    0x40(%rax),%rax
 682:	48 89 c6             	mov    %rax,%rsi
 685:	48 89 df             	mov    %rbx,%rdi
 688:	e8 00 00 00 00       	callq  68d <_ZN13Ui_MainWindow7setupUiEP11QMainWindow+0x68d>
 68d:	48 8b 45 c8          	mov    -0x38(%rbp),%rax
 691:	48 89 58 60          	mov    %rbx,0x60(%rax)
 695:	b8 09 00 00 00       	mov    $0x9,%eax
 69a:	83 e8 01             	sub    $0x1,%eax
 69d:	89 c2                	mov    %eax,%edx
 69f:	48 8d 45 d0          	lea    -0x30(%rbp),%rax
 6a3:	48 8d 35 00 00 00 00 	lea    0x0(%rip),%rsi        # 6aa <_ZN13Ui_MainWindow7setupUiEP11QMainWindow+0x6aa>
 6aa:	48 89 c7             	mov    %rax,%rdi
 6ad:	e8 00 00 00 00       	callq  6b2 <_ZN13Ui_MainWindow7setupUiEP11QMainWindow+0x6b2>
 6b2:	48 8b 45 c8          	mov    -0x38(%rbp),%rax
 6b6:	48 8b 40 60          	mov    0x60(%rax),%rax
 6ba:	48 89 c2             	mov    %rax,%rdx
 6bd:	48 8d 45 d0          	lea    -0x30(%rbp),%rax
 6c1:	48 89 c6             	mov    %rax,%rsi
 6c4:	48 89 d7             	mov    %rdx,%rdi
 6c7:	e8 00 00 00 00       	callq  6cc <_ZN13Ui_MainWindow7setupUiEP11QMainWindow+0x6cc>
 6cc:	48 8d 45 d0          	lea    -0x30(%rbp),%rax
 6d0:	48 89 c7             	mov    %rax,%rdi
 6d3:	e8 00 00 00 00       	callq  6d8 <_ZN13Ui_MainWindow7setupUiEP11QMainWindow+0x6d8>
 6d8:	48 8d 45 d0          	lea    -0x30(%rbp),%rax
 6dc:	48 c7 c6 ff ff ff ff 	mov    $0xffffffffffffffff,%rsi
 6e3:	48 89 c7             	mov    %rax,%rdi
 6e6:	e8 00 00 00 00       	callq  6eb <_ZN13Ui_MainWindow7setupUiEP11QMainWindow+0x6eb>
 6eb:	48 8b 45 c8          	mov    -0x38(%rbp),%rax
 6ef:	48 8b 70 60          	mov    0x60(%rax),%rsi
 6f3:	48 8b 45 c8          	mov    -0x38(%rbp),%rax
 6f7:	48 8b 40 48          	mov    0x48(%rax),%rax
 6fb:	48 83 ec 08          	sub    $0x8,%rsp
 6ff:	8b 55 d0             	mov    -0x30(%rbp),%edx
 702:	52                   	push   %rdx
 703:	41 b9 01 00 00 00    	mov    $0x1,%r9d
 709:	41 b8 01 00 00 00    	mov    $0x1,%r8d
 70f:	b9 00 00 00 00       	mov    $0x0,%ecx
 714:	ba 04 00 00 00       	mov    $0x4,%edx
 719:	48 89 c7             	mov    %rax,%rdi
 71c:	e8 00 00 00 00       	callq  721 <_ZN13Ui_MainWindow7setupUiEP11QMainWindow+0x721>
 721:	48 83 c4 10          	add    $0x10,%rsp
 725:	bf 30 00 00 00       	mov    $0x30,%edi
 72a:	e8 00 00 00 00       	callq  72f <_ZN13Ui_MainWindow7setupUiEP11QMainWindow+0x72f>
 72f:	48 89 c3             	mov    %rax,%rbx
 732:	48 8b 45 c8          	mov    -0x38(%rbp),%rax
 736:	48 8b 40 40          	mov    0x40(%rax),%rax
 73a:	48 89 c6             	mov    %rax,%rsi
 73d:	48 89 df             	mov    %rbx,%rdi
 740:	e8 00 00 00 00       	callq  745 <_ZN13Ui_MainWindow7setupUiEP11QMainWindow+0x745>
 745:	48 8b 45 c8          	mov    -0x38(%rbp),%rax
 749:	48 89 58 68          	mov    %rbx,0x68(%rax)
 74d:	b8 0b 00 00 00       	mov    $0xb,%eax
 752:	83 e8 01             	sub    $0x1,%eax
 755:	89 c2                	mov    %eax,%edx
 757:	48 8d 45 d0          	lea    -0x30(%rbp),%rax
 75b:	48 8d 35 00 00 00 00 	lea    0x0(%rip),%rsi        # 762 <_ZN13Ui_MainWindow7setupUiEP11QMainWindow+0x762>
 762:	48 89 c7             	mov    %rax,%rdi
 765:	e8 00 00 00 00       	callq  76a <_ZN13Ui_MainWindow7setupUiEP11QMainWindow+0x76a>
 76a:	48 8b 45 c8          	mov    -0x38(%rbp),%rax
 76e:	48 8b 40 68          	mov    0x68(%rax),%rax
 772:	48 89 c2             	mov    %rax,%rdx
 775:	48 8d 45 d0          	lea    -0x30(%rbp),%rax
 779:	48 89 c6             	mov    %rax,%rsi
 77c:	48 89 d7             	mov    %rdx,%rdi
 77f:	e8 00 00 00 00       	callq  784 <_ZN13Ui_MainWindow7setupUiEP11QMainWindow+0x784>
 784:	48 8d 45 d0          	lea    -0x30(%rbp),%rax
 788:	48 89 c7             	mov    %rax,%rdi
 78b:	e8 00 00 00 00       	callq  790 <_ZN13Ui_MainWindow7setupUiEP11QMainWindow+0x790>
 790:	48 8d 45 d0          	lea    -0x30(%rbp),%rax
 794:	48 c7 c6 ff ff ff ff 	mov    $0xffffffffffffffff,%rsi
 79b:	48 89 c7             	mov    %rax,%rdi
 79e:	e8 00 00 00 00       	callq  7a3 <_ZN13Ui_MainWindow7setupUiEP11QMainWindow+0x7a3>
 7a3:	48 8b 45 c8          	mov    -0x38(%rbp),%rax
 7a7:	48 8b 70 68          	mov    0x68(%rax),%rsi
 7ab:	48 8b 45 c8          	mov    -0x38(%rbp),%rax
 7af:	48 8b 40 48          	mov    0x48(%rax),%rax
 7b3:	48 83 ec 08          	sub    $0x8,%rsp
 7b7:	8b 55 d0             	mov    -0x30(%rbp),%edx
 7ba:	52                   	push   %rdx
 7bb:	41 b9 01 00 00 00    	mov    $0x1,%r9d
 7c1:	41 b8 01 00 00 00    	mov    $0x1,%r8d
 7c7:	b9 00 00 00 00       	mov    $0x0,%ecx
 7cc:	ba 02 00 00 00       	mov    $0x2,%edx
 7d1:	48 89 c7             	mov    %rax,%rdi
 7d4:	e8 00 00 00 00       	callq  7d9 <_ZN13Ui_MainWindow7setupUiEP11QMainWindow+0x7d9>
 7d9:	48 83 c4 10          	add    $0x10,%rsp
 7dd:	48 8b 45 c8          	mov    -0x38(%rbp),%rax
 7e1:	48 8b 50 40          	mov    0x40(%rax),%rdx
 7e5:	48 8b 45 c0          	mov    -0x40(%rbp),%rax
 7e9:	48 89 d6             	mov    %rdx,%rsi
 7ec:	48 89 c7             	mov    %rax,%rdi
 7ef:	e8 00 00 00 00       	callq  7f4 <_ZN13Ui_MainWindow7setupUiEP11QMainWindow+0x7f4>
 7f4:	bf 30 00 00 00       	mov    $0x30,%edi
 7f9:	e8 00 00 00 00       	callq  7fe <_ZN13Ui_MainWindow7setupUiEP11QMainWindow+0x7fe>
 7fe:	48 89 c3             	mov    %rax,%rbx
 801:	48 8b 45 c0          	mov    -0x40(%rbp),%rax
 805:	48 89 c6             	mov    %rax,%rsi
 808:	48 89 df             	mov    %rbx,%rdi
 80b:	e8 00 00 00 00       	callq  810 <_ZN13Ui_MainWindow7setupUiEP11QMainWindow+0x810>
 810:	48 8b 45 c8          	mov    -0x38(%rbp),%rax
 814:	48 89 58 70          	mov    %rbx,0x70(%rax)
 818:	b8 08 00 00 00       	mov    $0x8,%eax
 81d:	83 e8 01             	sub    $0x1,%eax
 820:	89 c2                	mov    %eax,%edx
 822:	48 8d 45 d0          	lea    -0x30(%rbp),%rax
 826:	48 8d 35 00 00 00 00 	lea    0x0(%rip),%rsi        # 82d <_ZN13Ui_MainWindow7setupUiEP11QMainWindow+0x82d>
 82d:	48 89 c7             	mov    %rax,%rdi
 830:	e8 00 00 00 00       	callq  835 <_ZN13Ui_MainWindow7setupUiEP11QMainWindow+0x835>
 835:	48 8b 45 c8          	mov    -0x38(%rbp),%rax
 839:	48 8b 40 70          	mov    0x70(%rax),%rax
 83d:	48 89 c2             	mov    %rax,%rdx
 840:	48 8d 45 d0          	lea    -0x30(%rbp),%rax
 844:	48 89 c6             	mov    %rax,%rsi
 847:	48 89 d7             	mov    %rdx,%rdi
 84a:	e8 00 00 00 00       	callq  84f <_ZN13Ui_MainWindow7setupUiEP11QMainWindow+0x84f>
 84f:	48 8d 45 d0          	lea    -0x30(%rbp),%rax
 853:	48 89 c7             	mov    %rax,%rdi
 856:	e8 00 00 00 00       	callq  85b <_ZN13Ui_MainWindow7setupUiEP11QMainWindow+0x85b>
 85b:	48 8d 45 d0          	lea    -0x30(%rbp),%rax
 85f:	41 b8 14 00 00 00    	mov    $0x14,%r8d
 865:	b9 c2 02 00 00       	mov    $0x2c2,%ecx
 86a:	ba 00 00 00 00       	mov    $0x0,%edx
 86f:	be 00 00 00 00       	mov    $0x0,%esi
 874:	48 89 c7             	mov    %rax,%rdi
 877:	e8 00 00 00 00       	callq  87c <_ZN13Ui_MainWindow7setupUiEP11QMainWindow+0x87c>
 87c:	48 8b 45 c8          	mov    -0x38(%rbp),%rax
 880:	48 8b 40 70          	mov    0x70(%rax),%rax
 884:	48 89 c2             	mov    %rax,%rdx
 887:	48 8d 45 d0          	lea    -0x30(%rbp),%rax
 88b:	48 89 c6             	mov    %rax,%rsi
 88e:	48 89 d7             	mov    %rdx,%rdi
 891:	e8 00 00 00 00       	callq  896 <_ZN13Ui_MainWindow7setupUiEP11QMainWindow+0x896>
 896:	bf 30 00 00 00       	mov    $0x30,%edi
 89b:	e8 00 00 00 00       	callq  8a0 <_ZN13Ui_MainWindow7setupUiEP11QMainWindow+0x8a0>
 8a0:	48 89 c3             	mov    %rax,%rbx
 8a3:	48 8b 45 c8          	mov    -0x38(%rbp),%rax
 8a7:	48 8b 40 70          	mov    0x70(%rax),%rax
 8ab:	48 89 c6             	mov    %rax,%rsi
 8ae:	48 89 df             	mov    %rbx,%rdi
 8b1:	e8 00 00 00 00       	callq  8b6 <_ZN13Ui_MainWindow7setupUiEP11QMainWindow+0x8b6>
 8b6:	48 8b 45 c8          	mov    -0x38(%rbp),%rax
 8ba:	48 89 58 78          	mov    %rbx,0x78(%rax)
 8be:	b8 0b 00 00 00       	mov    $0xb,%eax
 8c3:	83 e8 01             	sub    $0x1,%eax
 8c6:	89 c2                	mov    %eax,%edx
 8c8:	48 8d 45 d0          	lea    -0x30(%rbp),%rax
 8cc:	48 8d 35 00 00 00 00 	lea    0x0(%rip),%rsi        # 8d3 <_ZN13Ui_MainWindow7setupUiEP11QMainWindow+0x8d3>
 8d3:	48 89 c7             	mov    %rax,%rdi
 8d6:	e8 00 00 00 00       	callq  8db <_ZN13Ui_MainWindow7setupUiEP11QMainWindow+0x8db>
 8db:	48 8b 45 c8          	mov    -0x38(%rbp),%rax
 8df:	48 8b 40 78          	mov    0x78(%rax),%rax
 8e3:	48 89 c2             	mov    %rax,%rdx
 8e6:	48 8d 45 d0          	lea    -0x30(%rbp),%rax
 8ea:	48 89 c6             	mov    %rax,%rsi
 8ed:	48 89 d7             	mov    %rdx,%rdi
 8f0:	e8 00 00 00 00       	callq  8f5 <_ZN13Ui_MainWindow7setupUiEP11QMainWindow+0x8f5>
 8f5:	48 8d 45 d0          	lea    -0x30(%rbp),%rax
 8f9:	48 89 c7             	mov    %rax,%rdi
 8fc:	e8 00 00 00 00       	callq  901 <_ZN13Ui_MainWindow7setupUiEP11QMainWindow+0x901>
 901:	bf 30 00 00 00       	mov    $0x30,%edi
 906:	e8 00 00 00 00       	callq  90b <_ZN13Ui_MainWindow7setupUiEP11QMainWindow+0x90b>
 90b:	48 89 c3             	mov    %rax,%rbx
 90e:	48 8b 45 c8          	mov    -0x38(%rbp),%rax
 912:	48 8b 40 70          	mov    0x70(%rax),%rax
 916:	48 89 c6             	mov    %rax,%rsi
 919:	48 89 df             	mov    %rbx,%rdi
 91c:	e8 00 00 00 00       	callq  921 <_ZN13Ui_MainWindow7setupUiEP11QMainWindow+0x921>
 921:	48 8b 45 c8          	mov    -0x38(%rbp),%rax
 925:	48 89 98 80 00 00 00 	mov    %rbx,0x80(%rax)
 92c:	b8 09 00 00 00       	mov    $0x9,%eax
 931:	83 e8 01             	sub    $0x1,%eax
 934:	89 c2                	mov    %eax,%edx
 936:	48 8d 45 d0          	lea    -0x30(%rbp),%rax
 93a:	48 8d 35 00 00 00 00 	lea    0x0(%rip),%rsi        # 941 <_ZN13Ui_MainWindow7setupUiEP11QMainWindow+0x941>
 941:	48 89 c7             	mov    %rax,%rdi
 944:	e8 00 00 00 00       	callq  949 <_ZN13Ui_MainWindow7setupUiEP11QMainWindow+0x949>
 949:	48 8b 45 c8          	mov    -0x38(%rbp),%rax
 94d:	48 8b 80 80 00 00 00 	mov    0x80(%rax),%rax
 954:	48 89 c2             	mov    %rax,%rdx
 957:	48 8d 45 d0          	lea    -0x30(%rbp),%rax
 95b:	48 89 c6             	mov    %rax,%rsi
 95e:	48 89 d7             	mov    %rdx,%rdi
 961:	e8 00 00 00 00       	callq  966 <_ZN13Ui_MainWindow7setupUiEP11QMainWindow+0x966>
 966:	48 8d 45 d0          	lea    -0x30(%rbp),%rax
 96a:	48 89 c7             	mov    %rax,%rdi
 96d:	e8 00 00 00 00       	callq  972 <_ZN13Ui_MainWindow7setupUiEP11QMainWindow+0x972>
 972:	48 8b 45 c8          	mov    -0x38(%rbp),%rax
 976:	48 8b 50 70          	mov    0x70(%rax),%rdx
 97a:	48 8b 45 c0          	mov    -0x40(%rbp),%rax
 97e:	48 89 d6             	mov    %rdx,%rsi
 981:	48 89 c7             	mov    %rax,%rdi
 984:	e8 00 00 00 00       	callq  989 <_ZN13Ui_MainWindow7setupUiEP11QMainWindow+0x989>
 989:	bf 30 00 00 00       	mov    $0x30,%edi
 98e:	e8 00 00 00 00       	callq  993 <_ZN13Ui_MainWindow7setupUiEP11QMainWindow+0x993>
 993:	48 89 c3             	mov    %rax,%rbx
 996:	48 8b 45 c0          	mov    -0x40(%rbp),%rax
 99a:	48 89 c6             	mov    %rax,%rsi
 99d:	48 89 df             	mov    %rbx,%rdi
 9a0:	e8 00 00 00 00       	callq  9a5 <_ZN13Ui_MainWindow7setupUiEP11QMainWindow+0x9a5>
 9a5:	48 8b 45 c8          	mov    -0x38(%rbp),%rax
 9a9:	48 89 98 88 00 00 00 	mov    %rbx,0x88(%rax)
 9b0:	b8 0c 00 00 00       	mov    $0xc,%eax
 9b5:	83 e8 01             	sub    $0x1,%eax
 9b8:	89 c2                	mov    %eax,%edx
 9ba:	48 8d 45 d0          	lea    -0x30(%rbp),%rax
 9be:	48 8d 35 00 00 00 00 	lea    0x0(%rip),%rsi        # 9c5 <_ZN13Ui_MainWindow7setupUiEP11QMainWindow+0x9c5>
 9c5:	48 89 c7             	mov    %rax,%rdi
 9c8:	e8 00 00 00 00       	callq  9cd <_ZN13Ui_MainWindow7setupUiEP11QMainWindow+0x9cd>
 9cd:	48 8b 45 c8          	mov    -0x38(%rbp),%rax
 9d1:	48 8b 80 88 00 00 00 	mov    0x88(%rax),%rax
 9d8:	48 89 c2             	mov    %rax,%rdx
 9db:	48 8d 45 d0          	lea    -0x30(%rbp),%rax
 9df:	48 89 c6             	mov    %rax,%rsi
 9e2:	48 89 d7             	mov    %rdx,%rdi
 9e5:	e8 00 00 00 00       	callq  9ea <_ZN13Ui_MainWindow7setupUiEP11QMainWindow+0x9ea>
 9ea:	48 8d 45 d0          	lea    -0x30(%rbp),%rax
 9ee:	48 89 c7             	mov    %rax,%rdi
 9f1:	e8 00 00 00 00       	callq  9f6 <_ZN13Ui_MainWindow7setupUiEP11QMainWindow+0x9f6>
 9f6:	48 8b 45 c8          	mov    -0x38(%rbp),%rax
 9fa:	48 8b 90 88 00 00 00 	mov    0x88(%rax),%rdx
 a01:	48 8b 45 c0          	mov    -0x40(%rbp),%rax
 a05:	be 04 00 00 00       	mov    $0x4,%esi
 a0a:	48 89 c7             	mov    %rax,%rdi
 a0d:	e8 00 00 00 00       	callq  a12 <_ZN13Ui_MainWindow7setupUiEP11QMainWindow+0xa12>
 a12:	bf 30 00 00 00       	mov    $0x30,%edi
 a17:	e8 00 00 00 00       	callq  a1c <_ZN13Ui_MainWindow7setupUiEP11QMainWindow+0xa1c>
 a1c:	48 89 c3             	mov    %rax,%rbx
 a1f:	48 8b 45 c0          	mov    -0x40(%rbp),%rax
 a23:	48 89 c6             	mov    %rax,%rsi
 a26:	48 89 df             	mov    %rbx,%rdi
 a29:	e8 00 00 00 00       	callq  a2e <_ZN13Ui_MainWindow7setupUiEP11QMainWindow+0xa2e>
 a2e:	48 8b 45 c8          	mov    -0x38(%rbp),%rax
 a32:	48 89 98 90 00 00 00 	mov    %rbx,0x90(%rax)
 a39:	b8 0a 00 00 00       	mov    $0xa,%eax
 a3e:	83 e8 01             	sub    $0x1,%eax
 a41:	89 c2                	mov    %eax,%edx
 a43:	48 8d 45 d0          	lea    -0x30(%rbp),%rax
 a47:	48 8d 35 00 00 00 00 	lea    0x0(%rip),%rsi        # a4e <_ZN13Ui_MainWindow7setupUiEP11QMainWindow+0xa4e>
 a4e:	48 89 c7             	mov    %rax,%rdi
 a51:	e8 00 00 00 00       	callq  a56 <_ZN13Ui_MainWindow7setupUiEP11QMainWindow+0xa56>
 a56:	48 8b 45 c8          	mov    -0x38(%rbp),%rax
 a5a:	48 8b 80 90 00 00 00 	mov    0x90(%rax),%rax
 a61:	48 89 c2             	mov    %rax,%rdx
 a64:	48 8d 45 d0          	lea    -0x30(%rbp),%rax
 a68:	48 89 c6             	mov    %rax,%rsi
 a6b:	48 89 d7             	mov    %rdx,%rdi
 a6e:	e8 00 00 00 00       	callq  a73 <_ZN13Ui_MainWindow7setupUiEP11QMainWindow+0xa73>
 a73:	48 8d 45 d0          	lea    -0x30(%rbp),%rax
 a77:	48 89 c7             	mov    %rax,%rdi
 a7a:	e8 00 00 00 00       	callq  a7f <_ZN13Ui_MainWindow7setupUiEP11QMainWindow+0xa7f>
 a7f:	48 8b 45 c8          	mov    -0x38(%rbp),%rax
 a83:	48 8b 90 90 00 00 00 	mov    0x90(%rax),%rdx
 a8a:	48 8b 45 c0          	mov    -0x40(%rbp),%rax
 a8e:	48 89 d6             	mov    %rdx,%rsi
 a91:	48 89 c7             	mov    %rax,%rdi
 a94:	e8 00 00 00 00       	callq  a99 <_ZN13Ui_MainWindow7setupUiEP11QMainWindow+0xa99>
 a99:	48 8b 45 c8          	mov    -0x38(%rbp),%rax
 a9d:	48 8b 80 80 00 00 00 	mov    0x80(%rax),%rax
 aa4:	48 89 c7             	mov    %rax,%rdi
 aa7:	e8 00 00 00 00       	callq  aac <_ZN13Ui_MainWindow7setupUiEP11QMainWindow+0xaac>
 aac:	48 89 c2             	mov    %rax,%rdx
 aaf:	48 8b 45 c8          	mov    -0x38(%rbp),%rax
 ab3:	48 8b 40 70          	mov    0x70(%rax),%rax
 ab7:	48 89 d6             	mov    %rdx,%rsi
 aba:	48 89 c7             	mov    %rax,%rdi
 abd:	e8 00 00 00 00       	callq  ac2 <_ZN13Ui_MainWindow7setupUiEP11QMainWindow+0xac2>
 ac2:	48 8b 45 c8          	mov    -0x38(%rbp),%rax
 ac6:	48 8b 40 78          	mov    0x78(%rax),%rax
 aca:	48 89 c7             	mov    %rax,%rdi
 acd:	e8 00 00 00 00       	callq  ad2 <_ZN13Ui_MainWindow7setupUiEP11QMainWindow+0xad2>
 ad2:	48 89 c2             	mov    %rax,%rdx
 ad5:	48 8b 45 c8          	mov    -0x38(%rbp),%rax
 ad9:	48 8b 40 70          	mov    0x70(%rax),%rax
 add:	48 89 d6             	mov    %rdx,%rsi
 ae0:	48 89 c7             	mov    %rax,%rdi
 ae3:	e8 00 00 00 00       	callq  ae8 <_ZN13Ui_MainWindow7setupUiEP11QMainWindow+0xae8>
 ae8:	48 8b 45 c8          	mov    -0x38(%rbp),%rax
 aec:	48 8b 40 30          	mov    0x30(%rax),%rax
 af0:	48 8b 55 c8          	mov    -0x38(%rbp),%rdx
 af4:	48 8b 52 78          	mov    0x78(%rdx),%rdx
 af8:	48 89 c6             	mov    %rax,%rsi
 afb:	48 89 d7             	mov    %rdx,%rdi
 afe:	e8 00 00 00 00       	callq  b03 <_ZN13Ui_MainWindow7setupUiEP11QMainWindow+0xb03>
 b03:	48 8b 45 c8          	mov    -0x38(%rbp),%rax
 b07:	48 8b 40 38          	mov    0x38(%rax),%rax
 b0b:	48 8b 55 c8          	mov    -0x38(%rbp),%rdx
 b0f:	48 8b 52 78          	mov    0x78(%rdx),%rdx
 b13:	48 89 c6             	mov    %rax,%rsi
 b16:	48 89 d7             	mov    %rdx,%rdi
 b19:	e8 00 00 00 00       	callq  b1e <_ZN13Ui_MainWindow7setupUiEP11QMainWindow+0xb1e>
 b1e:	48 8b 45 c8          	mov    -0x38(%rbp),%rax
 b22:	48 8b 00             	mov    (%rax),%rax
 b25:	48 8b 55 c8          	mov    -0x38(%rbp),%rdx
 b29:	48 8b 92 80 00 00 00 	mov    0x80(%rdx),%rdx
 b30:	48 89 c6             	mov    %rax,%rsi
 b33:	48 89 d7             	mov    %rdx,%rdi
 b36:	e8 00 00 00 00       	callq  b3b <_ZN13Ui_MainWindow7setupUiEP11QMainWindow+0xb3b>
 b3b:	48 8b 45 c8          	mov    -0x38(%rbp),%rax
 b3f:	48 8b 40 08          	mov    0x8(%rax),%rax
 b43:	48 8b 55 c8          	mov    -0x38(%rbp),%rdx
 b47:	48 8b 92 80 00 00 00 	mov    0x80(%rdx),%rdx
 b4e:	48 89 c6             	mov    %rax,%rsi
 b51:	48 89 d7             	mov    %rdx,%rdi
 b54:	e8 00 00 00 00       	callq  b59 <_ZN13Ui_MainWindow7setupUiEP11QMainWindow+0xb59>
 b59:	48 8b 45 c8          	mov    -0x38(%rbp),%rax
 b5d:	48 8b 40 10          	mov    0x10(%rax),%rax
 b61:	48 8b 55 c8          	mov    -0x38(%rbp),%rdx
 b65:	48 8b 92 80 00 00 00 	mov    0x80(%rdx),%rdx
 b6c:	48 89 c6             	mov    %rax,%rsi
 b6f:	48 89 d7             	mov    %rdx,%rdi
 b72:	e8 00 00 00 00       	callq  b77 <_ZN13Ui_MainWindow7setupUiEP11QMainWindow+0xb77>
 b77:	48 8b 45 c8          	mov    -0x38(%rbp),%rax
 b7b:	48 8b 40 18          	mov    0x18(%rax),%rax
 b7f:	48 8b 55 c8          	mov    -0x38(%rbp),%rdx
 b83:	48 8b 92 80 00 00 00 	mov    0x80(%rdx),%rdx
 b8a:	48 89 c6             	mov    %rax,%rsi
 b8d:	48 89 d7             	mov    %rdx,%rdi
 b90:	e8 00 00 00 00       	callq  b95 <_ZN13Ui_MainWindow7setupUiEP11QMainWindow+0xb95>
 b95:	48 8b 45 c8          	mov    -0x38(%rbp),%rax
 b99:	48 8b 40 20          	mov    0x20(%rax),%rax
 b9d:	48 8b 55 c8          	mov    -0x38(%rbp),%rdx
 ba1:	48 8b 92 80 00 00 00 	mov    0x80(%rdx),%rdx
 ba8:	48 89 c6             	mov    %rax,%rsi
 bab:	48 89 d7             	mov    %rdx,%rdi
 bae:	e8 00 00 00 00       	callq  bb3 <_ZN13Ui_MainWindow7setupUiEP11QMainWindow+0xbb3>
 bb3:	48 8b 45 c8          	mov    -0x38(%rbp),%rax
 bb7:	48 8b 40 28          	mov    0x28(%rax),%rax
 bbb:	48 8b 55 c8          	mov    -0x38(%rbp),%rdx
 bbf:	48 8b 92 80 00 00 00 	mov    0x80(%rdx),%rdx
 bc6:	48 89 c6             	mov    %rax,%rsi
 bc9:	48 89 d7             	mov    %rdx,%rdi
 bcc:	e8 00 00 00 00       	callq  bd1 <_ZN13Ui_MainWindow7setupUiEP11QMainWindow+0xbd1>
 bd1:	48 8b 45 c8          	mov    -0x38(%rbp),%rax
 bd5:	48 8b 80 88 00 00 00 	mov    0x88(%rax),%rax
 bdc:	48 89 c7             	mov    %rax,%rdi
 bdf:	e8 00 00 00 00       	callq  be4 <_ZN13Ui_MainWindow7setupUiEP11QMainWindow+0xbe4>
 be4:	48 8b 55 c0          	mov    -0x40(%rbp),%rdx
 be8:	48 8b 45 c8          	mov    -0x38(%rbp),%rax
 bec:	48 89 d6             	mov    %rdx,%rsi
 bef:	48 89 c7             	mov    %rax,%rdi
 bf2:	e8 00 00 00 00       	callq  bf7 <_ZN13Ui_MainWindow7setupUiEP11QMainWindow+0xbf7>
 bf7:	48 8b 45 c0          	mov    -0x40(%rbp),%rax
 bfb:	48 89 c7             	mov    %rax,%rdi
 bfe:	e8 00 00 00 00       	callq  c03 <_ZN13Ui_MainWindow7setupUiEP11QMainWindow+0xc03>
 c03:	90                   	nop
 c04:	48 8b 45 e8          	mov    -0x18(%rbp),%rax
 c08:	64 48 33 04 25 28 00 	xor    %fs:0x28,%rax
 c0f:	00 00 
 c11:	0f 84 b4 03 00 00    	je     fcb <_ZN13Ui_MainWindow7setupUiEP11QMainWindow+0xfcb>
 c17:	e9 aa 03 00 00       	jmpq   fc6 <_ZN13Ui_MainWindow7setupUiEP11QMainWindow+0xfc6>
 c1c:	48 89 c3             	mov    %rax,%rbx
 c1f:	48 8d 45 d0          	lea    -0x30(%rbp),%rax
 c23:	48 89 c7             	mov    %rax,%rdi
 c26:	e8 00 00 00 00       	callq  c2b <_ZN13Ui_MainWindow7setupUiEP11QMainWindow+0xc2b>
 c2b:	48 89 d8             	mov    %rbx,%rax
 c2e:	48 89 c7             	mov    %rax,%rdi
 c31:	e8 00 00 00 00       	callq  c36 <_ZN13Ui_MainWindow7setupUiEP11QMainWindow+0xc36>
 c36:	49 89 c4             	mov    %rax,%r12
 c39:	48 89 df             	mov    %rbx,%rdi
 c3c:	e8 00 00 00 00       	callq  c41 <_ZN13Ui_MainWindow7setupUiEP11QMainWindow+0xc41>
 c41:	4c 89 e0             	mov    %r12,%rax
 c44:	48 89 c7             	mov    %rax,%rdi
 c47:	e8 00 00 00 00       	callq  c4c <_ZN13Ui_MainWindow7setupUiEP11QMainWindow+0xc4c>
 c4c:	48 89 c3             	mov    %rax,%rbx
 c4f:	48 8d 45 d0          	lea    -0x30(%rbp),%rax
 c53:	48 89 c7             	mov    %rax,%rdi
 c56:	e8 00 00 00 00       	callq  c5b <_ZN13Ui_MainWindow7setupUiEP11QMainWindow+0xc5b>
 c5b:	48 89 d8             	mov    %rbx,%rax
 c5e:	48 89 c7             	mov    %rax,%rdi
 c61:	e8 00 00 00 00       	callq  c66 <_ZN13Ui_MainWindow7setupUiEP11QMainWindow+0xc66>
 c66:	49 89 c4             	mov    %rax,%r12
 c69:	48 89 df             	mov    %rbx,%rdi
 c6c:	e8 00 00 00 00       	callq  c71 <_ZN13Ui_MainWindow7setupUiEP11QMainWindow+0xc71>
 c71:	4c 89 e0             	mov    %r12,%rax
 c74:	48 89 c7             	mov    %rax,%rdi
 c77:	e8 00 00 00 00       	callq  c7c <_ZN13Ui_MainWindow7setupUiEP11QMainWindow+0xc7c>
 c7c:	48 89 c3             	mov    %rax,%rbx
 c7f:	48 8d 45 d0          	lea    -0x30(%rbp),%rax
 c83:	48 89 c7             	mov    %rax,%rdi
 c86:	e8 00 00 00 00       	callq  c8b <_ZN13Ui_MainWindow7setupUiEP11QMainWindow+0xc8b>
 c8b:	48 89 d8             	mov    %rbx,%rax
 c8e:	48 89 c7             	mov    %rax,%rdi
 c91:	e8 00 00 00 00       	callq  c96 <_ZN13Ui_MainWindow7setupUiEP11QMainWindow+0xc96>
 c96:	49 89 c4             	mov    %rax,%r12
 c99:	48 89 df             	mov    %rbx,%rdi
 c9c:	e8 00 00 00 00       	callq  ca1 <_ZN13Ui_MainWindow7setupUiEP11QMainWindow+0xca1>
 ca1:	4c 89 e0             	mov    %r12,%rax
 ca4:	48 89 c7             	mov    %rax,%rdi
 ca7:	e8 00 00 00 00       	callq  cac <_ZN13Ui_MainWindow7setupUiEP11QMainWindow+0xcac>
 cac:	48 89 c3             	mov    %rax,%rbx
 caf:	48 8d 45 d0          	lea    -0x30(%rbp),%rax
 cb3:	48 89 c7             	mov    %rax,%rdi
 cb6:	e8 00 00 00 00       	callq  cbb <_ZN13Ui_MainWindow7setupUiEP11QMainWindow+0xcbb>
 cbb:	48 89 d8             	mov    %rbx,%rax
 cbe:	48 89 c7             	mov    %rax,%rdi
 cc1:	e8 00 00 00 00       	callq  cc6 <_ZN13Ui_MainWindow7setupUiEP11QMainWindow+0xcc6>
 cc6:	49 89 c4             	mov    %rax,%r12
 cc9:	48 89 df             	mov    %rbx,%rdi
 ccc:	e8 00 00 00 00       	callq  cd1 <_ZN13Ui_MainWindow7setupUiEP11QMainWindow+0xcd1>
 cd1:	4c 89 e0             	mov    %r12,%rax
 cd4:	48 89 c7             	mov    %rax,%rdi
 cd7:	e8 00 00 00 00       	callq  cdc <_ZN13Ui_MainWindow7setupUiEP11QMainWindow+0xcdc>
 cdc:	48 89 c3             	mov    %rax,%rbx
 cdf:	48 8d 45 d0          	lea    -0x30(%rbp),%rax
 ce3:	48 89 c7             	mov    %rax,%rdi
 ce6:	e8 00 00 00 00       	callq  ceb <_ZN13Ui_MainWindow7setupUiEP11QMainWindow+0xceb>
 ceb:	48 89 d8             	mov    %rbx,%rax
 cee:	48 89 c7             	mov    %rax,%rdi
 cf1:	e8 00 00 00 00       	callq  cf6 <_ZN13Ui_MainWindow7setupUiEP11QMainWindow+0xcf6>
 cf6:	49 89 c4             	mov    %rax,%r12
 cf9:	48 89 df             	mov    %rbx,%rdi
 cfc:	e8 00 00 00 00       	callq  d01 <_ZN13Ui_MainWindow7setupUiEP11QMainWindow+0xd01>
 d01:	4c 89 e0             	mov    %r12,%rax
 d04:	48 89 c7             	mov    %rax,%rdi
 d07:	e8 00 00 00 00       	callq  d0c <_ZN13Ui_MainWindow7setupUiEP11QMainWindow+0xd0c>
 d0c:	48 89 c3             	mov    %rax,%rbx
 d0f:	48 8d 45 d0          	lea    -0x30(%rbp),%rax
 d13:	48 89 c7             	mov    %rax,%rdi
 d16:	e8 00 00 00 00       	callq  d1b <_ZN13Ui_MainWindow7setupUiEP11QMainWindow+0xd1b>
 d1b:	48 89 d8             	mov    %rbx,%rax
 d1e:	48 89 c7             	mov    %rax,%rdi
 d21:	e8 00 00 00 00       	callq  d26 <_ZN13Ui_MainWindow7setupUiEP11QMainWindow+0xd26>
 d26:	49 89 c4             	mov    %rax,%r12
 d29:	48 89 df             	mov    %rbx,%rdi
 d2c:	e8 00 00 00 00       	callq  d31 <_ZN13Ui_MainWindow7setupUiEP11QMainWindow+0xd31>
 d31:	4c 89 e0             	mov    %r12,%rax
 d34:	48 89 c7             	mov    %rax,%rdi
 d37:	e8 00 00 00 00       	callq  d3c <_ZN13Ui_MainWindow7setupUiEP11QMainWindow+0xd3c>

inline void QWidget::move(int ax, int ay)
{ move(QPoint(ax, ay)); }

inline void QWidget::resize(int w, int h)
{ resize(QSize(w, h)); }
 d3c:	48 89 c3             	mov    %rax,%rbx
 d3f:	48 8d 45 d0          	lea    -0x30(%rbp),%rax
 d43:	48 89 c7             	mov    %rax,%rdi
 d46:	e8 00 00 00 00       	callq  d4b <_ZN13Ui_MainWindow7setupUiEP11QMainWindow+0xd4b>
 d4b:	48 89 d8             	mov    %rbx,%rax
 d4e:	48 89 c7             	mov    %rax,%rdi
 d51:	e8 00 00 00 00       	callq  d56 <_ZN13Ui_MainWindow7setupUiEP11QMainWindow+0xd56>
 d56:	49 89 c4             	mov    %rax,%r12
 d59:	48 89 df             	mov    %rbx,%rdi
 d5c:	e8 00 00 00 00       	callq  d61 <_ZN13Ui_MainWindow7setupUiEP11QMainWindow+0xd61>
 d61:	4c 89 e0             	mov    %r12,%rax
 d64:	48 89 c7             	mov    %rax,%rdi
 d67:	e8 00 00 00 00       	callq  d6c <_ZN13Ui_MainWindow7setupUiEP11QMainWindow+0xd6c>
 d6c:	48 89 c3             	mov    %rax,%rbx
 d6f:	48 8d 45 d0          	lea    -0x30(%rbp),%rax
 d73:	48 89 c7             	mov    %rax,%rdi
 d76:	e8 00 00 00 00       	callq  d7b <_ZN13Ui_MainWindow7setupUiEP11QMainWindow+0xd7b>
 d7b:	48 89 d8             	mov    %rbx,%rax
 d7e:	48 89 c7             	mov    %rax,%rdi
 d81:	e8 00 00 00 00       	callq  d86 <_ZN13Ui_MainWindow7setupUiEP11QMainWindow+0xd86>
 d86:	49 89 c4             	mov    %rax,%r12
 d89:	48 89 df             	mov    %rbx,%rdi
 d8c:	e8 00 00 00 00       	callq  d91 <_ZN13Ui_MainWindow7setupUiEP11QMainWindow+0xd91>
 d91:	4c 89 e0             	mov    %r12,%rax
 d94:	48 89 c7             	mov    %rax,%rdi
 d97:	e8 00 00 00 00       	callq  d9c <_ZN13Ui_MainWindow7setupUiEP11QMainWindow+0xd9c>
    bool find(const QString &exp, QTextDocument::FindFlags options = 0);
#ifndef QT_NO_REGEXP
    bool find(const QRegExp &exp, QTextDocument::FindFlags options = 0);
#endif

    inline QString toPlainText() const
 d9c:	48 89 c3             	mov    %rax,%rbx
 d9f:	48 8d 45 d0          	lea    -0x30(%rbp),%rax
 da3:	48 89 c7             	mov    %rax,%rdi
 da6:	e8 00 00 00 00       	callq  dab <_ZN13Ui_MainWindow7setupUiEP11QMainWindow+0xdab>
 dab:	48 89 d8             	mov    %rbx,%rax
 dae:	48 89 c7             	mov    %rax,%rdi
 db1:	e8 00 00 00 00       	callq  db6 <_ZN13Ui_MainWindow7setupUiEP11QMainWindow+0xdb6>
 db6:	49 89 c4             	mov    %rax,%r12
    { return document()->toPlainText(); }
 db9:	48 89 df             	mov    %rbx,%rdi
 dbc:	e8 00 00 00 00       	callq  dc1 <_ZN13Ui_MainWindow7setupUiEP11QMainWindow+0xdc1>
 dc1:	4c 89 e0             	mov    %r12,%rax
 dc4:	48 89 c7             	mov    %rax,%rdi
 dc7:	e8 00 00 00 00       	callq  dcc <_ZN13Ui_MainWindow7setupUiEP11QMainWindow+0xdcc>
 dcc:	48 89 c3             	mov    %rax,%rbx
 dcf:	48 8d 45 d0          	lea    -0x30(%rbp),%rax
 dd3:	48 89 c7             	mov    %rax,%rdi
 dd6:	e8 00 00 00 00       	callq  ddb <_ZN13Ui_MainWindow7setupUiEP11QMainWindow+0xddb>
 ddb:	48 89 d8             	mov    %rbx,%rax
 dde:	48 89 c7             	mov    %rax,%rdi
 de1:	e8 00 00 00 00       	callq  de6 <_ZN13Ui_MainWindow7setupUiEP11QMainWindow+0xde6>
 de6:	49 89 c4             	mov    %rax,%r12
 de9:	48 89 df             	mov    %rbx,%rdi
 dec:	e8 00 00 00 00       	callq  df1 <_ZN13Ui_MainWindow7setupUiEP11QMainWindow+0xdf1>
    QMenu *menuPARSER;
    QMenu *menuFILE;
    QToolBar *mainToolBar;
    QStatusBar *statusBar;

    void setupUi(QMainWindow *MainWindow)
 df1:	4c 89 e0             	mov    %r12,%rax
 df4:	48 89 c7             	mov    %rax,%rdi
 df7:	e8 00 00 00 00       	callq  dfc <_ZN13Ui_MainWindow7setupUiEP11QMainWindow+0xdfc>
 dfc:	48 89 c3             	mov    %rax,%rbx
 dff:	48 8d 45 d0          	lea    -0x30(%rbp),%rax
 e03:	48 89 c7             	mov    %rax,%rdi
 e06:	e8 00 00 00 00       	callq  e0b <_ZN13Ui_MainWindow7setupUiEP11QMainWindow+0xe0b>
 e0b:	48 89 d8             	mov    %rbx,%rax
 e0e:	48 89 c7             	mov    %rax,%rdi
 e11:	e8 00 00 00 00       	callq  e16 <_ZN13Ui_MainWindow7setupUiEP11QMainWindow+0xe16>
    {
        if (MainWindow->objectName().isEmpty())
 e16:	49 89 c4             	mov    %rax,%r12
 e19:	48 89 df             	mov    %rbx,%rdi
 e1c:	e8 00 00 00 00       	callq  e21 <_ZN13Ui_MainWindow7setupUiEP11QMainWindow+0xe21>
 e21:	4c 89 e0             	mov    %r12,%rax
 e24:	48 89 c7             	mov    %rax,%rdi
 e27:	e8 00 00 00 00       	callq  e2c <_ZN13Ui_MainWindow7setupUiEP11QMainWindow+0xe2c>
 e2c:	48 89 c3             	mov    %rax,%rbx
 e2f:	48 8d 45 d0          	lea    -0x30(%rbp),%rax
 e33:	48 89 c7             	mov    %rax,%rdi
 e36:	e8 00 00 00 00       	callq  e3b <_ZN13Ui_MainWindow7setupUiEP11QMainWindow+0xe3b>
 e3b:	48 89 d8             	mov    %rbx,%rax
 e3e:	48 89 c7             	mov    %rax,%rdi
 e41:	e8 00 00 00 00       	callq  e46 <_ZN13Ui_MainWindow7setupUiEP11QMainWindow+0xe46>
            MainWindow->setObjectName(QStringLiteral("MainWindow"));
 e46:	49 89 c4             	mov    %rax,%r12
 e49:	48 89 df             	mov    %rbx,%rdi
 e4c:	e8 00 00 00 00       	callq  e51 <_ZN13Ui_MainWindow7setupUiEP11QMainWindow+0xe51>
 e51:	4c 89 e0             	mov    %r12,%rax
 e54:	48 89 c7             	mov    %rax,%rdi
 e57:	e8 00 00 00 00       	callq  e5c <_ZN13Ui_MainWindow7setupUiEP11QMainWindow+0xe5c>
 e5c:	48 89 c3             	mov    %rax,%rbx
 e5f:	48 8d 45 d0          	lea    -0x30(%rbp),%rax
 e63:	48 89 c7             	mov    %rax,%rdi
 e66:	e8 00 00 00 00       	callq  e6b <_ZN13Ui_MainWindow7setupUiEP11QMainWindow+0xe6b>
 e6b:	48 89 d8             	mov    %rbx,%rax
 e6e:	48 89 c7             	mov    %rax,%rdi
 e71:	e8 00 00 00 00       	callq  e76 <_ZN13Ui_MainWindow7setupUiEP11QMainWindow+0xe76>
 e76:	49 89 c4             	mov    %rax,%r12
 e79:	48 89 df             	mov    %rbx,%rdi
 e7c:	e8 00 00 00 00       	callq  e81 <_ZN13Ui_MainWindow7setupUiEP11QMainWindow+0xe81>
        MainWindow->resize(706, 533);
 e81:	4c 89 e0             	mov    %r12,%rax
 e84:	48 89 c7             	mov    %rax,%rdi
 e87:	e8 00 00 00 00       	callq  e8c <_ZN13Ui_MainWindow7setupUiEP11QMainWindow+0xe8c>
 e8c:	48 89 c3             	mov    %rax,%rbx
 e8f:	48 8d 45 d0          	lea    -0x30(%rbp),%rax
 e93:	48 89 c7             	mov    %rax,%rdi
        actionOPEN = new QAction(MainWindow);
 e96:	e8 00 00 00 00       	callq  e9b <_ZN13Ui_MainWindow7setupUiEP11QMainWindow+0xe9b>
 e9b:	48 89 d8             	mov    %rbx,%rax
 e9e:	48 89 c7             	mov    %rax,%rdi
 ea1:	e8 00 00 00 00       	callq  ea6 <_ZN13Ui_MainWindow7setupUiEP11QMainWindow+0xea6>
 ea6:	49 89 c4             	mov    %rax,%r12
 ea9:	48 89 df             	mov    %rbx,%rdi
 eac:	e8 00 00 00 00       	callq  eb1 <_ZN13Ui_MainWindow7setupUiEP11QMainWindow+0xeb1>
 eb1:	4c 89 e0             	mov    %r12,%rax
 eb4:	48 89 c7             	mov    %rax,%rdi
 eb7:	e8 00 00 00 00       	callq  ebc <_ZN13Ui_MainWindow7setupUiEP11QMainWindow+0xebc>
        actionOPEN->setObjectName(QStringLiteral("actionOPEN"));
 ebc:	48 89 c3             	mov    %rax,%rbx
 ebf:	48 8d 45 d0          	lea    -0x30(%rbp),%rax
 ec3:	48 89 c7             	mov    %rax,%rdi
 ec6:	e8 00 00 00 00       	callq  ecb <_ZN13Ui_MainWindow7setupUiEP11QMainWindow+0xecb>
 ecb:	48 89 d8             	mov    %rbx,%rax
 ece:	48 89 c7             	mov    %rax,%rdi
 ed1:	e8 00 00 00 00       	callq  ed6 <_ZN13Ui_MainWindow7setupUiEP11QMainWindow+0xed6>
 ed6:	49 89 c4             	mov    %rax,%r12
 ed9:	48 89 df             	mov    %rbx,%rdi
 edc:	e8 00 00 00 00       	callq  ee1 <_ZN13Ui_MainWindow7setupUiEP11QMainWindow+0xee1>
 ee1:	4c 89 e0             	mov    %r12,%rax
 ee4:	48 89 c7             	mov    %rax,%rdi
 ee7:	e8 00 00 00 00       	callq  eec <_ZN13Ui_MainWindow7setupUiEP11QMainWindow+0xeec>
 eec:	48 89 c3             	mov    %rax,%rbx
 eef:	48 8d 45 d0          	lea    -0x30(%rbp),%rax
 ef3:	48 89 c7             	mov    %rax,%rdi
 ef6:	e8 00 00 00 00       	callq  efb <_ZN13Ui_MainWindow7setupUiEP11QMainWindow+0xefb>
        actionOPEN_2 = new QAction(MainWindow);
 efb:	48 89 d8             	mov    %rbx,%rax
 efe:	48 89 c7             	mov    %rax,%rdi
 f01:	e8 00 00 00 00       	callq  f06 <_ZN13Ui_MainWindow7setupUiEP11QMainWindow+0xf06>
 f06:	49 89 c4             	mov    %rax,%r12
 f09:	48 89 df             	mov    %rbx,%rdi
 f0c:	e8 00 00 00 00       	callq  f11 <_ZN13Ui_MainWindow7setupUiEP11QMainWindow+0xf11>
 f11:	4c 89 e0             	mov    %r12,%rax
 f14:	48 89 c7             	mov    %rax,%rdi
 f17:	e8 00 00 00 00       	callq  f1c <_ZN13Ui_MainWindow7setupUiEP11QMainWindow+0xf1c>
 f1c:	48 89 c3             	mov    %rax,%rbx
        actionOPEN_2->setObjectName(QStringLiteral("actionOPEN_2"));
 f1f:	48 8d 45 d0          	lea    -0x30(%rbp),%rax
 f23:	48 89 c7             	mov    %rax,%rdi
 f26:	e8 00 00 00 00       	callq  f2b <_ZN13Ui_MainWindow7setupUiEP11QMainWindow+0xf2b>
 f2b:	48 89 d8             	mov    %rbx,%rax
 f2e:	48 89 c7             	mov    %rax,%rdi
 f31:	e8 00 00 00 00       	callq  f36 <_ZN13Ui_MainWindow7setupUiEP11QMainWindow+0xf36>
 f36:	49 89 c4             	mov    %rax,%r12
 f39:	48 89 df             	mov    %rbx,%rdi
 f3c:	e8 00 00 00 00       	callq  f41 <_ZN13Ui_MainWindow7setupUiEP11QMainWindow+0xf41>
 f41:	4c 89 e0             	mov    %r12,%rax
 f44:	48 89 c7             	mov    %rax,%rdi
 f47:	e8 00 00 00 00       	callq  f4c <_ZN13Ui_MainWindow7setupUiEP11QMainWindow+0xf4c>
 f4c:	48 89 c3             	mov    %rax,%rbx
 f4f:	48 8d 45 d0          	lea    -0x30(%rbp),%rax
 f53:	48 89 c7             	mov    %rax,%rdi
 f56:	e8 00 00 00 00       	callq  f5b <_ZN13Ui_MainWindow7setupUiEP11QMainWindow+0xf5b>
 f5b:	48 89 d8             	mov    %rbx,%rax
 f5e:	48 89 c7             	mov    %rax,%rdi
        actionSAVE = new QAction(MainWindow);
 f61:	e8 00 00 00 00       	callq  f66 <_ZN13Ui_MainWindow7setupUiEP11QMainWindow+0xf66>
 f66:	49 89 c4             	mov    %rax,%r12
 f69:	48 89 df             	mov    %rbx,%rdi
 f6c:	e8 00 00 00 00       	callq  f71 <_ZN13Ui_MainWindow7setupUiEP11QMainWindow+0xf71>
 f71:	4c 89 e0             	mov    %r12,%rax
 f74:	48 89 c7             	mov    %rax,%rdi
 f77:	e8 00 00 00 00       	callq  f7c <_ZN13Ui_MainWindow7setupUiEP11QMainWindow+0xf7c>
 f7c:	48 89 c3             	mov    %rax,%rbx
 f7f:	48 8d 45 d0          	lea    -0x30(%rbp),%rax
 f83:	48 89 c7             	mov    %rax,%rdi
        actionSAVE->setObjectName(QStringLiteral("actionSAVE"));
 f86:	e8 00 00 00 00       	callq  f8b <_ZN13Ui_MainWindow7setupUiEP11QMainWindow+0xf8b>
 f8b:	48 89 d8             	mov    %rbx,%rax
 f8e:	48 89 c7             	mov    %rax,%rdi
 f91:	e8 00 00 00 00       	callq  f96 <_ZN13Ui_MainWindow7setupUiEP11QMainWindow+0xf96>
 f96:	49 89 c4             	mov    %rax,%r12
 f99:	48 89 df             	mov    %rbx,%rdi
 f9c:	e8 00 00 00 00       	callq  fa1 <_ZN13Ui_MainWindow7setupUiEP11QMainWindow+0xfa1>
 fa1:	4c 89 e0             	mov    %r12,%rax
 fa4:	48 89 c7             	mov    %rax,%rdi
 fa7:	e8 00 00 00 00       	callq  fac <_ZN13Ui_MainWindow7setupUiEP11QMainWindow+0xfac>
 fac:	48 89 c3             	mov    %rax,%rbx
 faf:	48 8d 45 d0          	lea    -0x30(%rbp),%rax
 fb3:	48 89 c7             	mov    %rax,%rdi
 fb6:	e8 00 00 00 00       	callq  fbb <_ZN13Ui_MainWindow7setupUiEP11QMainWindow+0xfbb>
 fbb:	48 89 d8             	mov    %rbx,%rax
 fbe:	48 89 c7             	mov    %rax,%rdi
 fc1:	e8 00 00 00 00       	callq  fc6 <_ZN13Ui_MainWindow7setupUiEP11QMainWindow+0xfc6>
 fc6:	e8 00 00 00 00       	callq  fcb <_ZN13Ui_MainWindow7setupUiEP11QMainWindow+0xfcb>
        actionSAVE_AS = new QAction(MainWindow);
 fcb:	48 8d 65 f0          	lea    -0x10(%rbp),%rsp
 fcf:	5b                   	pop    %rbx
 fd0:	41 5c                	pop    %r12
 fd2:	5d                   	pop    %rbp
 fd3:	c3                   	retq   

Дизассемблирование раздела .text._ZN13Ui_MainWindow13retranslateUiEP11QMainWindow:

0000000000000000 <_ZN13Ui_MainWindow13retranslateUiEP11QMainWindow>:
#include "mainwindow.h"
#include "ui_mainwindow.h"
#include "parser.h"

MainWindow::MainWindow(QWidget *parent) :
   0:	55                   	push   %rbp
   1:	48 89 e5             	mov    %rsp,%rbp
   4:	53                   	push   %rbx
   5:	48 83 ec 28          	sub    $0x28,%rsp
   9:	48 89 7d d8          	mov    %rdi,-0x28(%rbp)
   d:	48 89 75 d0          	mov    %rsi,-0x30(%rbp)
  11:	64 48 8b 04 25 28 00 	mov    %fs:0x28,%rax
  18:	00 00 
  1a:	48 89 45 e8          	mov    %rax,-0x18(%rbp)
  1e:	31 c0                	xor    %eax,%eax
    QMainWindow(parent),
    ui(new Ui::MainWindow)
  20:	48 8d 45 e0          	lea    -0x20(%rbp),%rax
  24:	41 b8 ff ff ff ff    	mov    $0xffffffff,%r8d
  2a:	b9 00 00 00 00       	mov    $0x0,%ecx
  2f:	48 8d 15 00 00 00 00 	lea    0x0(%rip),%rdx        # 36 <_ZN13Ui_MainWindow13retranslateUiEP11QMainWindow+0x36>
  36:	48 8d 35 00 00 00 00 	lea    0x0(%rip),%rsi        # 3d <_ZN13Ui_MainWindow13retranslateUiEP11QMainWindow+0x3d>
  3d:	48 89 c7             	mov    %rax,%rdi
  40:	e8 00 00 00 00       	callq  45 <_ZN13Ui_MainWindow13retranslateUiEP11QMainWindow+0x45>
  45:	48 8b 45 d0          	mov    -0x30(%rbp),%rax
  49:	48 8d 55 e0          	lea    -0x20(%rbp),%rdx
  4d:	48 89 d6             	mov    %rdx,%rsi
  50:	48 89 c7             	mov    %rax,%rdi
  53:	e8 00 00 00 00       	callq  58 <_ZN13Ui_MainWindow13retranslateUiEP11QMainWindow+0x58>
  58:	48 8d 45 e0          	lea    -0x20(%rbp),%rax
  5c:	48 89 c7             	mov    %rax,%rdi
  5f:	e8 00 00 00 00       	callq  64 <_ZN13Ui_MainWindow13retranslateUiEP11QMainWindow+0x64>
  64:	48 8d 45 e0          	lea    -0x20(%rbp),%rax
  68:	41 b8 ff ff ff ff    	mov    $0xffffffff,%r8d
  6e:	b9 00 00 00 00       	mov    $0x0,%ecx
  73:	48 8d 15 00 00 00 00 	lea    0x0(%rip),%rdx        # 7a <_ZN13Ui_MainWindow13retranslateUiEP11QMainWindow+0x7a>
  7a:	48 8d 35 00 00 00 00 	lea    0x0(%rip),%rsi        # 81 <_ZN13Ui_MainWindow13retranslateUiEP11QMainWindow+0x81>
  81:	48 89 c7             	mov    %rax,%rdi
  84:	e8 00 00 00 00       	callq  89 <_ZN13Ui_MainWindow13retranslateUiEP11QMainWindow+0x89>
{
    ui->setupUi(this);
  89:	48 8b 45 d8          	mov    -0x28(%rbp),%rax
  8d:	48 8b 00             	mov    (%rax),%rax
  90:	48 8d 55 e0          	lea    -0x20(%rbp),%rdx
  94:	48 89 d6             	mov    %rdx,%rsi
  97:	48 89 c7             	mov    %rax,%rdi
  9a:	e8 00 00 00 00       	callq  9f <_ZN13Ui_MainWindow13retranslateUiEP11QMainWindow+0x9f>
}
  9f:	48 8d 45 e0          	lea    -0x20(%rbp),%rax
#include "ui_mainwindow.h"
#include "parser.h"

MainWindow::MainWindow(QWidget *parent) :
    QMainWindow(parent),
    ui(new Ui::MainWindow)
  a3:	48 89 c7             	mov    %rax,%rdi
  a6:	e8 00 00 00 00       	callq  ab <_ZN13Ui_MainWindow13retranslateUiEP11QMainWindow+0xab>
  ab:	48 8d 45 e0          	lea    -0x20(%rbp),%rax
  af:	41 b8 ff ff ff ff    	mov    $0xffffffff,%r8d
  b5:	b9 00 00 00 00       	mov    $0x0,%ecx
{
    ui->setupUi(this);
}
  ba:	48 8d 15 00 00 00 00 	lea    0x0(%rip),%rdx        # c1 <_ZN13Ui_MainWindow13retranslateUiEP11QMainWindow+0xc1>
  c1:	48 8d 35 00 00 00 00 	lea    0x0(%rip),%rsi        # c8 <_ZN13Ui_MainWindow13retranslateUiEP11QMainWindow+0xc8>
  c8:	48 89 c7             	mov    %rax,%rdi
  cb:	e8 00 00 00 00       	callq  d0 <_ZN13Ui_MainWindow13retranslateUiEP11QMainWindow+0xd0>
  d0:	48 8b 45 d8          	mov    -0x28(%rbp),%rax

MainWindow::~MainWindow()
  d4:	48 8b 40 08          	mov    0x8(%rax),%rax
  d8:	48 8d 55 e0          	lea    -0x20(%rbp),%rdx
  dc:	48 89 d6             	mov    %rdx,%rsi
  df:	48 89 c7             	mov    %rax,%rdi
  e2:	e8 00 00 00 00       	callq  e7 <_ZN13Ui_MainWindow13retranslateUiEP11QMainWindow+0xe7>
  e7:	48 8d 45 e0          	lea    -0x20(%rbp),%rax
  eb:	48 89 c7             	mov    %rax,%rdi
  ee:	e8 00 00 00 00       	callq  f3 <_ZN13Ui_MainWindow13retranslateUiEP11QMainWindow+0xf3>
  f3:	48 8d 45 e0          	lea    -0x20(%rbp),%rax
  f7:	41 b8 ff ff ff ff    	mov    $0xffffffff,%r8d
  fd:	b9 00 00 00 00       	mov    $0x0,%ecx
 102:	48 8d 15 00 00 00 00 	lea    0x0(%rip),%rdx        # 109 <_ZN13Ui_MainWindow13retranslateUiEP11QMainWindow+0x109>
{
    delete ui;
 109:	48 8d 35 00 00 00 00 	lea    0x0(%rip),%rsi        # 110 <_ZN13Ui_MainWindow13retranslateUiEP11QMainWindow+0x110>
 110:	48 89 c7             	mov    %rax,%rdi
 113:	e8 00 00 00 00       	callq  118 <_ZN13Ui_MainWindow13retranslateUiEP11QMainWindow+0x118>
    ui(new Ui::MainWindow)
{
    ui->setupUi(this);
}

MainWindow::~MainWindow()
 118:	48 8b 45 d8          	mov    -0x28(%rbp),%rax
 11c:	48 8b 40 10          	mov    0x10(%rax),%rax
 120:	48 8d 55 e0          	lea    -0x20(%rbp),%rdx
{
    delete ui;
}
 124:	48 89 d6             	mov    %rdx,%rsi
 127:	48 89 c7             	mov    %rax,%rdi
 12a:	e8 00 00 00 00       	callq  12f <_ZN13Ui_MainWindow13retranslateUiEP11QMainWindow+0x12f>
 12f:	48 8d 45 e0          	lea    -0x20(%rbp),%rax
 133:	48 89 c7             	mov    %rax,%rdi
 136:	e8 00 00 00 00       	callq  13b <_ZN13Ui_MainWindow13retranslateUiEP11QMainWindow+0x13b>
 13b:	48 8d 45 e0          	lea    -0x20(%rbp),%rax
 13f:	41 b8 ff ff ff ff    	mov    $0xffffffff,%r8d
    ui(new Ui::MainWindow)
{
    ui->setupUi(this);
}

MainWindow::~MainWindow()
 145:	b9 00 00 00 00       	mov    $0x0,%ecx
 14a:	48 8d 15 00 00 00 00 	lea    0x0(%rip),%rdx        # 151 <_ZN13Ui_MainWindow13retranslateUiEP11QMainWindow+0x151>
{
    delete ui;
}
 151:	48 8d 35 00 00 00 00 	lea    0x0(%rip),%rsi        # 158 <_ZN13Ui_MainWindow13retranslateUiEP11QMainWindow+0x158>
 158:	48 89 c7             	mov    %rax,%rdi
 15b:	e8 00 00 00 00       	callq  160 <_ZN13Ui_MainWindow13retranslateUiEP11QMainWindow+0x160>
 160:	48 8b 45 d8          	mov    -0x28(%rbp),%rax
 164:	48 8b 40 18          	mov    0x18(%rax),%rax
 168:	48 8d 55 e0          	lea    -0x20(%rbp),%rdx
 16c:	48 89 d6             	mov    %rdx,%rsi

void MainWindow::pe(QString str){
 16f:	48 89 c7             	mov    %rax,%rdi
 172:	e8 00 00 00 00       	callq  177 <_ZN13Ui_MainWindow13retranslateUiEP11QMainWindow+0x177>
 177:	48 8d 45 e0          	lea    -0x20(%rbp),%rax
 17b:	48 89 c7             	mov    %rax,%rdi
    ui->plainTextEdit_2->appendPlainText(str);
 17e:	e8 00 00 00 00       	callq  183 <_ZN13Ui_MainWindow13retranslateUiEP11QMainWindow+0x183>
 183:	48 8d 45 e0          	lea    -0x20(%rbp),%rax
 187:	41 b8 ff ff ff ff    	mov    $0xffffffff,%r8d
 18d:	b9 00 00 00 00       	mov    $0x0,%ecx
 192:	48 8d 15 00 00 00 00 	lea    0x0(%rip),%rdx        # 199 <_ZN13Ui_MainWindow13retranslateUiEP11QMainWindow+0x199>
}
 199:	48 8d 35 00 00 00 00 	lea    0x0(%rip),%rsi        # 1a0 <_ZN13Ui_MainWindow13retranslateUiEP11QMainWindow+0x1a0>

void MainWindow::on_pushButton_clicked()
{
 1a0:	48 89 c7             	mov    %rax,%rdi
 1a3:	e8 00 00 00 00       	callq  1a8 <_ZN13Ui_MainWindow13retranslateUiEP11QMainWindow+0x1a8>
 1a8:	48 8b 45 d8          	mov    -0x28(%rbp),%rax
 1ac:	48 8b 40 20          	mov    0x20(%rax),%rax
 1b0:	48 8d 55 e0          	lea    -0x20(%rbp),%rdx
 1b4:	48 89 d6             	mov    %rdx,%rsi
 1b7:	48 89 c7             	mov    %rax,%rdi
 1ba:	e8 00 00 00 00       	callq  1bf <_ZN13Ui_MainWindow13retranslateUiEP11QMainWindow+0x1bf>
    Parser P;
 1bf:	48 8d 45 e0          	lea    -0x20(%rbp),%rax
 1c3:	48 89 c7             	mov    %rax,%rdi
 1c6:	e8 00 00 00 00       	callq  1cb <_ZN13Ui_MainWindow13retranslateUiEP11QMainWindow+0x1cb>
 1cb:	48 8d 45 e0          	lea    -0x20(%rbp),%rax
    P.script = ui->plainTextEdit->toPlainText();
 1cf:	41 b8 ff ff ff ff    	mov    $0xffffffff,%r8d
 1d5:	b9 00 00 00 00       	mov    $0x0,%ecx
 1da:	48 8d 15 00 00 00 00 	lea    0x0(%rip),%rdx        # 1e1 <_ZN13Ui_MainWindow13retranslateUiEP11QMainWindow+0x1e1>
 1e1:	48 8d 35 00 00 00 00 	lea    0x0(%rip),%rsi        # 1e8 <_ZN13Ui_MainWindow13retranslateUiEP11QMainWindow+0x1e8>
 1e8:	48 89 c7             	mov    %rax,%rdi
 1eb:	e8 00 00 00 00       	callq  1f0 <_ZN13Ui_MainWindow13retranslateUiEP11QMainWindow+0x1f0>
 1f0:	48 8b 45 d8          	mov    -0x28(%rbp),%rax
 1f4:	48 8b 40 28          	mov    0x28(%rax),%rax
 1f8:	48 8d 55 e0          	lea    -0x20(%rbp),%rdx
 1fc:	48 89 d6             	mov    %rdx,%rsi
 1ff:	48 89 c7             	mov    %rax,%rdi
 202:	e8 00 00 00 00       	callq  207 <_ZN13Ui_MainWindow13retranslateUiEP11QMainWindow+0x207>
 207:	48 8d 45 e0          	lea    -0x20(%rbp),%rax
 20b:	48 89 c7             	mov    %rax,%rdi
 20e:	e8 00 00 00 00       	callq  213 <_ZN13Ui_MainWindow13retranslateUiEP11QMainWindow+0x213>
 213:	48 8d 45 e0          	lea    -0x20(%rbp),%rax
    int i = P.compile();
 217:	41 b8 ff ff ff ff    	mov    $0xffffffff,%r8d
 21d:	b9 00 00 00 00       	mov    $0x0,%ecx
 222:	48 8d 15 00 00 00 00 	lea    0x0(%rip),%rdx        # 229 <_ZN13Ui_MainWindow13retranslateUiEP11QMainWindow+0x229>
 229:	48 8d 35 00 00 00 00 	lea    0x0(%rip),%rsi        # 230 <_ZN13Ui_MainWindow13retranslateUiEP11QMainWindow+0x230>
    ui->plainTextEdit_2->appendPlainText(str);
}

void MainWindow::on_pushButton_clicked()
{
    Parser P;
 230:	48 89 c7             	mov    %rax,%rdi
 233:	e8 00 00 00 00       	callq  238 <_ZN13Ui_MainWindow13retranslateUiEP11QMainWindow+0x238>
 238:	48 8b 45 d8          	mov    -0x28(%rbp),%rax
    P.script = ui->plainTextEdit->toPlainText();
    int i = P.compile();
}
 23c:	48 8b 40 30          	mov    0x30(%rax),%rax
 240:	48 8d 55 e0          	lea    -0x20(%rbp),%rdx
 244:	48 89 d6             	mov    %rdx,%rsi
 247:	48 89 c7             	mov    %rax,%rdi
 24a:	e8 00 00 00 00       	callq  24f <_ZN13Ui_MainWindow13retranslateUiEP11QMainWindow+0x24f>
}

void MainWindow::on_pushButton_clicked()
{
    Parser P;
    P.script = ui->plainTextEdit->toPlainText();
 24f:	48 8d 45 e0          	lea    -0x20(%rbp),%rax
 253:	48 89 c7             	mov    %rax,%rdi
 256:	e8 00 00 00 00       	callq  25b <_ZN13Ui_MainWindow13retranslateUiEP11QMainWindow+0x25b>
 25b:	48 8d 45 e0          	lea    -0x20(%rbp),%rax
 25f:	41 b8 ff ff ff ff    	mov    $0xffffffff,%r8d
    ui->plainTextEdit_2->appendPlainText(str);
}

void MainWindow::on_pushButton_clicked()
{
    Parser P;
 265:	b9 00 00 00 00       	mov    $0x0,%ecx
 26a:	48 8d 15 00 00 00 00 	lea    0x0(%rip),%rdx        # 271 <_ZN13Ui_MainWindow13retranslateUiEP11QMainWindow+0x271>
 271:	48 8d 35 00 00 00 00 	lea    0x0(%rip),%rsi        # 278 <_ZN13Ui_MainWindow13retranslateUiEP11QMainWindow+0x278>
 278:	48 89 c7             	mov    %rax,%rdi
 27b:	e8 00 00 00 00       	callq  280 <_ZN13Ui_MainWindow13retranslateUiEP11QMainWindow+0x280>
    P.script = ui->plainTextEdit->toPlainText();
    int i = P.compile();
}
 280:	48 8b 45 d8          	mov    -0x28(%rbp),%rax
 284:	48 8b 40 38          	mov    0x38(%rax),%rax
 288:	48 8d 55 e0          	lea    -0x20(%rbp),%rdx
        if (count != -1) // !isStatic
            atomic.ref();
        return true;
    }

    inline bool deref() Q_DECL_NOTHROW {
 28c:	48 89 d6             	mov    %rdx,%rsi
 28f:	48 89 c7             	mov    %rax,%rdi
 292:	e8 00 00 00 00       	callq  297 <_ZN13Ui_MainWindow13retranslateUiEP11QMainWindow+0x297>
 297:	48 8d 45 e0          	lea    -0x20(%rbp),%rax
        int count = atomic.load();
 29b:	48 89 c7             	mov    %rax,%rdi
 29e:	e8 00 00 00 00       	callq  2a3 <_ZN13Ui_MainWindow13retranslateUiEP11QMainWindow+0x2a3>
 2a3:	48 8d 45 e0          	lea    -0x20(%rbp),%rax
#if QT_SUPPORTS(UNSHARABLE_CONTAINERS)
        if (count == 0) // !isSharable
 2a7:	41 b8 ff ff ff ff    	mov    $0xffffffff,%r8d
            return false;
 2ad:	b9 00 00 00 00       	mov    $0x0,%ecx
 2b2:	48 8d 15 00 00 00 00 	lea    0x0(%rip),%rdx        # 2b9 <_ZN13Ui_MainWindow13retranslateUiEP11QMainWindow+0x2b9>
#endif
        if (count == -1) // isStatic
 2b9:	48 8d 35 00 00 00 00 	lea    0x0(%rip),%rsi        # 2c0 <_ZN13Ui_MainWindow13retranslateUiEP11QMainWindow+0x2c0>
            return true;
 2c0:	48 89 c7             	mov    %rax,%rdi
        return atomic.deref();
 2c3:	e8 00 00 00 00       	callq  2c8 <_ZN13Ui_MainWindow13retranslateUiEP11QMainWindow+0x2c8>
 2c8:	48 8b 45 d8          	mov    -0x28(%rbp),%rax
 2cc:	48 8b 40 58          	mov    0x58(%rax),%rax
 2d0:	48 8d 55 e0          	lea    -0x20(%rbp),%rdx
 2d4:	48 89 d6             	mov    %rdx,%rsi
 2d7:	48 89 c7             	mov    %rax,%rdi
 2da:	e8 00 00 00 00       	callq  2df <_ZN13Ui_MainWindow13retranslateUiEP11QMainWindow+0x2df>
    inline DataPtr &data_ptr() { return d; }
};

Q_DECLARE_OPERATORS_FOR_FLAGS(QByteArray::Base64Options)

inline QByteArray::QByteArray() Q_DECL_NOTHROW : d(Data::sharedNull()) { }
 2df:	48 8d 45 e0          	lea    -0x20(%rbp),%rax
 2e3:	48 89 c7             	mov    %rax,%rdi
 2e6:	e8 00 00 00 00       	callq  2eb <_ZN13Ui_MainWindow13retranslateUiEP11QMainWindow+0x2eb>
 2eb:	48 8d 45 e0          	lea    -0x20(%rbp),%rax
 2ef:	41 b8 ff ff ff ff    	mov    $0xffffffff,%r8d
 2f5:	b9 00 00 00 00       	mov    $0x0,%ecx
inline QByteArray::~QByteArray() { if (!d->ref.deref()) Data::deallocate(d); }
 2fa:	48 8d 15 00 00 00 00 	lea    0x0(%rip),%rdx        # 301 <_ZN13Ui_MainWindow13retranslateUiEP11QMainWindow+0x301>
 301:	48 8d 35 00 00 00 00 	lea    0x0(%rip),%rsi        # 308 <_ZN13Ui_MainWindow13retranslateUiEP11QMainWindow+0x308>
 308:	48 89 c7             	mov    %rax,%rdi
 30b:	e8 00 00 00 00       	callq  310 <_ZN13Ui_MainWindow13retranslateUiEP11QMainWindow+0x310>
 310:	48 8b 45 d8          	mov    -0x28(%rbp),%rax
 314:	48 8b 40 68          	mov    0x68(%rax),%rax
 318:	48 89 c2             	mov    %rax,%rdx
 31b:	48 8d 45 e0          	lea    -0x20(%rbp),%rax
 31f:	48 89 c6             	mov    %rax,%rsi
 322:	48 89 d7             	mov    %rdx,%rdi
 325:	e8 00 00 00 00       	callq  32a <_ZN13Ui_MainWindow13retranslateUiEP11QMainWindow+0x32a>
 32a:	48 8d 45 e0          	lea    -0x20(%rbp),%rax
    static inline QString fromLatin1(const char *str, int size = -1)
    {
        QStringDataPtr dataPtr = { fromLatin1_helper(str, (str && size == -1) ? int(strlen(str)) : size) };
        return QString(dataPtr);
    }
    static inline QString fromUtf8(const char *str, int size = -1)
 32e:	48 89 c7             	mov    %rax,%rdi
 331:	e8 00 00 00 00       	callq  336 <_ZN13Ui_MainWindow13retranslateUiEP11QMainWindow+0x336>
 336:	48 8d 45 e0          	lea    -0x20(%rbp),%rax
 33a:	41 b8 ff ff ff ff    	mov    $0xffffffff,%r8d
 340:	b9 00 00 00 00       	mov    $0x0,%ecx
 345:	48 8d 15 00 00 00 00 	lea    0x0(%rip),%rdx        # 34c <_ZN13Ui_MainWindow13retranslateUiEP11QMainWindow+0x34c>
 34c:	48 8d 35 00 00 00 00 	lea    0x0(%rip),%rsi        # 353 <_ZN13Ui_MainWindow13retranslateUiEP11QMainWindow+0x353>
    {
        return fromUtf8_helper(str, (str && size == -1) ? int(strlen(str)) : size);
 353:	48 89 c7             	mov    %rax,%rdi
 356:	e8 00 00 00 00       	callq  35b <_ZN13Ui_MainWindow13retranslateUiEP11QMainWindow+0x35b>
 35b:	48 8b 45 d8          	mov    -0x28(%rbp),%rax
 35f:	48 8b 40 78          	mov    0x78(%rax),%rax
 363:	48 8d 55 e0          	lea    -0x20(%rbp),%rdx
 367:	48 89 d6             	mov    %rdx,%rsi
 36a:	48 89 c7             	mov    %rax,%rdi
 36d:	e8 00 00 00 00       	callq  372 <_ZN13Ui_MainWindow13retranslateUiEP11QMainWindow+0x372>
 372:	48 8d 45 e0          	lea    -0x20(%rbp),%rax
 376:	48 89 c7             	mov    %rax,%rdi
 379:	e8 00 00 00 00       	callq  37e <_ZN13Ui_MainWindow13retranslateUiEP11QMainWindow+0x37e>
 37e:	48 8d 45 e0          	lea    -0x20(%rbp),%rax
    }
 382:	41 b8 ff ff ff ff    	mov    $0xffffffff,%r8d
 388:	b9 00 00 00 00       	mov    $0x0,%ecx
 38d:	48 8d 15 00 00 00 00 	lea    0x0(%rip),%rdx        # 394 <_ZN13Ui_MainWindow13retranslateUiEP11QMainWindow+0x394>
 394:	48 8d 35 00 00 00 00 	lea    0x0(%rip),%rsi        # 39b <_ZN13Ui_MainWindow13retranslateUiEP11QMainWindow+0x39b>
inline const QChar QString::operator[](int i) const
{ Q_ASSERT(uint(i) < uint(size())); return d->data()[i]; }
inline const QChar QString::operator[](uint i) const
{ Q_ASSERT(i < uint(size())); return d->data()[i]; }
inline bool QString::isEmpty() const
{ return d->size == 0; }
 39b:	48 89 c7             	mov    %rax,%rdi
 39e:	e8 00 00 00 00       	callq  3a3 <_ZN13Ui_MainWindow13retranslateUiEP11QMainWindow+0x3a3>
 3a3:	48 8b 45 d8          	mov    -0x28(%rbp),%rax
 3a7:	48 8b 80 80 00 00 00 	mov    0x80(%rax),%rax
 3ae:	48 8d 55 e0          	lea    -0x20(%rbp),%rdx
 3b2:	48 89 d6             	mov    %rdx,%rsi

inline void QCharRef::setRow(uchar arow) { QChar(*this).setRow(arow); }
inline void QCharRef::setCell(uchar acell) { QChar(*this).setCell(acell); }


inline QString::QString() Q_DECL_NOTHROW : d(Data::sharedNull()) {}
 3b5:	48 89 c7             	mov    %rax,%rdi
 3b8:	e8 00 00 00 00       	callq  3bd <_ZN13Ui_MainWindow13retranslateUiEP11QMainWindow+0x3bd>
 3bd:	48 8d 45 e0          	lea    -0x20(%rbp),%rax
 3c1:	48 89 c7             	mov    %rax,%rdi
 3c4:	e8 00 00 00 00       	callq  3c9 <_ZN13Ui_MainWindow13retranslateUiEP11QMainWindow+0x3c9>
 3c9:	90                   	nop
 3ca:	48 8b 45 e8          	mov    -0x18(%rbp),%rax
 3ce:	64 48 33 04 25 28 00 	xor    %fs:0x28,%rax
 3d5:	00 00 
inline QString::~QString() { if (!d->ref.deref()) Data::deallocate(d); }
 3d7:	0f 84 5c 01 00 00    	je     539 <_ZN13Ui_MainWindow13retranslateUiEP11QMainWindow+0x539>
 3dd:	e9 52 01 00 00       	jmpq   534 <_ZN13Ui_MainWindow13retranslateUiEP11QMainWindow+0x534>
 3e2:	48 89 c3             	mov    %rax,%rbx
 3e5:	48 8d 45 e0          	lea    -0x20(%rbp),%rax
 3e9:	48 89 c7             	mov    %rax,%rdi
 3ec:	e8 00 00 00 00       	callq  3f1 <_ZN13Ui_MainWindow13retranslateUiEP11QMainWindow+0x3f1>
 3f1:	48 89 d8             	mov    %rbx,%rax
 3f4:	48 89 c7             	mov    %rax,%rdi
 3f7:	e8 00 00 00 00       	callq  3fc <_ZN13Ui_MainWindow13retranslateUiEP11QMainWindow+0x3fc>
 3fc:	48 89 c3             	mov    %rax,%rbx
 3ff:	48 8d 45 e0          	lea    -0x20(%rbp),%rax
 403:	48 89 c7             	mov    %rax,%rdi
template <> struct QListSpecialMethods<QString>
#endif
{
#ifndef Q_QDOC
protected:
    ~QListSpecialMethods() {}
 406:	e8 00 00 00 00       	callq  40b <_ZN13Ui_MainWindow13retranslateUiEP11QMainWindow+0x40b>
 40b:	48 89 d8             	mov    %rbx,%rax
 40e:	48 89 c7             	mov    %rax,%rdi
 411:	e8 00 00 00 00       	callq  416 <_ZN13Ui_MainWindow13retranslateUiEP11QMainWindow+0x416>
// ### Qt6: check if there's a better way
class QStringList : public QList<QString>
{
#endif
public:
    inline QStringList() Q_DECL_NOTHROW { }
 416:	48 89 c3             	mov    %rax,%rbx
 419:	48 8d 45 e0          	lea    -0x20(%rbp),%rax
 41d:	48 89 c7             	mov    %rax,%rdi
 420:	e8 00 00 00 00       	callq  425 <_ZN13Ui_MainWindow13retranslateUiEP11QMainWindow+0x425>
 425:	48 89 d8             	mov    %rbx,%rax
 428:	48 89 c7             	mov    %rax,%rdi
 42b:	e8 00 00 00 00       	callq  430 <_ZN13Ui_MainWindow13retranslateUiEP11QMainWindow+0x430>
    inline QStringList *self();
    inline const QStringList *self() const;
};

// ### Qt6: check if there's a better way
class QStringList : public QList<QString>
 430:	48 89 c3             	mov    %rax,%rbx
 433:	48 8d 45 e0          	lea    -0x20(%rbp),%rax
 437:	48 89 c7             	mov    %rax,%rdi
 43a:	e8 00 00 00 00       	callq  43f <_ZN13Ui_MainWindow13retranslateUiEP11QMainWindow+0x43f>
 43f:	48 89 d8             	mov    %rbx,%rax
 442:	48 89 c7             	mov    %rax,%rdi
 445:	e8 00 00 00 00       	callq  44a <_ZN13Ui_MainWindow13retranslateUiEP11QMainWindow+0x44a>
 44a:	48 89 c3             	mov    %rax,%rbx
 44d:	48 8d 45 e0          	lea    -0x20(%rbp),%rax
 451:	48 89 c7             	mov    %rax,%rdi
 454:	e8 00 00 00 00       	callq  459 <_ZN13Ui_MainWindow13retranslateUiEP11QMainWindow+0x459>
 459:	48 89 d8             	mov    %rbx,%rax
 45c:	48 89 c7             	mov    %rax,%rdi
 45f:	e8 00 00 00 00       	callq  464 <_ZN13Ui_MainWindow13retranslateUiEP11QMainWindow+0x464>
 464:	48 89 c3             	mov    %rax,%rbx
 467:	48 8d 45 e0          	lea    -0x20(%rbp),%rax
 46b:	48 89 c7             	mov    %rax,%rdi

/*****************************************************************************
  QRect inline member functions
 *****************************************************************************/

Q_DECL_CONSTEXPR inline QRect::QRect(int aleft, int atop, int awidth, int aheight) Q_DECL_NOTHROW
 46e:	e8 00 00 00 00       	callq  473 <_ZN13Ui_MainWindow13retranslateUiEP11QMainWindow+0x473>
 473:	48 89 d8             	mov    %rbx,%rax
 476:	48 89 c7             	mov    %rax,%rdi
 479:	e8 00 00 00 00       	callq  47e <_ZN13Ui_MainWindow13retranslateUiEP11QMainWindow+0x47e>
 47e:	48 89 c3             	mov    %rax,%rbx
 481:	48 8d 45 e0          	lea    -0x20(%rbp),%rax
    : x1(aleft), y1(atop), x2(aleft + awidth - 1), y2(atop + aheight - 1) {}
 485:	48 89 c7             	mov    %rax,%rdi
 488:	e8 00 00 00 00       	callq  48d <_ZN13Ui_MainWindow13retranslateUiEP11QMainWindow+0x48d>
 48d:	48 89 d8             	mov    %rbx,%rax
 490:	48 89 c7             	mov    %rax,%rdi
 493:	e8 00 00 00 00       	callq  498 <_ZN13Ui_MainWindow13retranslateUiEP11QMainWindow+0x498>
 498:	48 89 c3             	mov    %rax,%rbx
 49b:	48 8d 45 e0          	lea    -0x20(%rbp),%rax
 49f:	48 89 c7             	mov    %rax,%rdi
 4a2:	e8 00 00 00 00       	callq  4a7 <_ZN13Ui_MainWindow13retranslateUiEP11QMainWindow+0x4a7>
 4a7:	48 89 d8             	mov    %rbx,%rax
 4aa:	48 89 c7             	mov    %rax,%rdi
 4ad:	e8 00 00 00 00       	callq  4b2 <_ZN13Ui_MainWindow13retranslateUiEP11QMainWindow+0x4b2>
 4b2:	48 89 c3             	mov    %rax,%rbx
 4b5:	48 8d 45 e0          	lea    -0x20(%rbp),%rax
 4b9:	48 89 c7             	mov    %rax,%rdi
 4bc:	e8 00 00 00 00       	callq  4c1 <_ZN13Ui_MainWindow13retranslateUiEP11QMainWindow+0x4c1>
 4c1:	48 89 d8             	mov    %rbx,%rax
 4c4:	48 89 c7             	mov    %rax,%rdi
 4c7:	e8 00 00 00 00       	callq  4cc <_ZN13Ui_MainWindow13retranslateUiEP11QMainWindow+0x4cc>
 4cc:	48 89 c3             	mov    %rax,%rbx
 4cf:	48 8d 45 e0          	lea    -0x20(%rbp),%rax
 4d3:	48 89 c7             	mov    %rax,%rdi
 4d6:	e8 00 00 00 00       	callq  4db <_ZN13Ui_MainWindow13retranslateUiEP11QMainWindow+0x4db>
 4db:	48 89 d8             	mov    %rbx,%rax
 4de:	48 89 c7             	mov    %rax,%rdi
 4e1:	e8 00 00 00 00       	callq  4e6 <_ZN13Ui_MainWindow13retranslateUiEP11QMainWindow+0x4e6>
 4e6:	48 89 c3             	mov    %rax,%rbx
 4e9:	48 8d 45 e0          	lea    -0x20(%rbp),%rax
 4ed:	48 89 c7             	mov    %rax,%rdi
 4f0:	e8 00 00 00 00       	callq  4f5 <_ZN13Ui_MainWindow13retranslateUiEP11QMainWindow+0x4f5>
 4f5:	48 89 d8             	mov    %rbx,%rax
 4f8:	48 89 c7             	mov    %rax,%rdi
 4fb:	e8 00 00 00 00       	callq  500 <_ZN13Ui_MainWindow13retranslateUiEP11QMainWindow+0x500>
 500:	48 89 c3             	mov    %rax,%rbx
 503:	48 8d 45 e0          	lea    -0x20(%rbp),%rax
 507:	48 89 c7             	mov    %rax,%rdi
 50a:	e8 00 00 00 00       	callq  50f <_ZN13Ui_MainWindow13retranslateUiEP11QMainWindow+0x50f>
 50f:	48 89 d8             	mov    %rbx,%rax
 512:	48 89 c7             	mov    %rax,%rdi
 515:	e8 00 00 00 00       	callq  51a <_ZN13Ui_MainWindow13retranslateUiEP11QMainWindow+0x51a>
 51a:	48 89 c3             	mov    %rax,%rbx
 51d:	48 8d 45 e0          	lea    -0x20(%rbp),%rax
 521:	48 89 c7             	mov    %rax,%rdi
 524:	e8 00 00 00 00       	callq  529 <_ZN13Ui_MainWindow13retranslateUiEP11QMainWindow+0x529>
 529:	48 89 d8             	mov    %rbx,%rax
 52c:	48 89 c7             	mov    %rax,%rdi
 52f:	e8 00 00 00 00       	callq  534 <_ZN13Ui_MainWindow13retranslateUiEP11QMainWindow+0x534>
 534:	e8 00 00 00 00       	callq  539 <_ZN13Ui_MainWindow13retranslateUiEP11QMainWindow+0x539>
 539:	48 83 c4 28          	add    $0x28,%rsp
 53d:	5b                   	pop    %rbx
 53e:	5d                   	pop    %rbp
 53f:	c3                   	retq   

Дизассемблирование раздела .text._ZN6ParserC2Ev:

0000000000000000 <_ZN6ParserC1Ev>:
#include "mainwindow.h"
#include "ui_mainwindow.h"
#include "parser.h"

MainWindow::MainWindow(QWidget *parent) :
   0:	55                   	push   %rbp
   1:	48 89 e5             	mov    %rsp,%rbp
   4:	48 83 ec 10          	sub    $0x10,%rsp
   8:	48 89 7d f8          	mov    %rdi,-0x8(%rbp)
   c:	48 8b 45 f8          	mov    -0x8(%rbp),%rax
  10:	48 89 c7             	mov    %rax,%rdi
  13:	e8 00 00 00 00       	callq  18 <_ZN6ParserC1Ev+0x18>
  18:	48 8b 45 f8          	mov    -0x8(%rbp),%rax
  1c:	48 83 c0 08          	add    $0x8,%rax
    QMainWindow(parent),
    ui(new Ui::MainWindow)
  20:	48 89 c7             	mov    %rax,%rdi
  23:	e8 00 00 00 00       	callq  28 <_ZN6ParserC1Ev+0x28>
  28:	48 8b 45 f8          	mov    -0x8(%rbp),%rax
  2c:	48 83 c0 10          	add    $0x10,%rax
  30:	48 89 c7             	mov    %rax,%rdi
  33:	e8 00 00 00 00       	callq  38 <_ZN6ParserC1Ev+0x38>
  38:	48 8b 45 f8          	mov    -0x8(%rbp),%rax
  3c:	48 83 c0 18          	add    $0x18,%rax
  40:	48 89 c7             	mov    %rax,%rdi
  43:	e8 00 00 00 00       	callq  48 <_ZN6ParserC1Ev+0x48>
  48:	48 8b 45 f8          	mov    -0x8(%rbp),%rax
  4c:	48 83 c0 20          	add    $0x20,%rax
  50:	48 89 c7             	mov    %rax,%rdi
  53:	e8 00 00 00 00       	callq  58 <_ZN6ParserC1Ev+0x58>
  58:	48 8b 45 f8          	mov    -0x8(%rbp),%rax
  5c:	48 83 c0 28          	add    $0x28,%rax
  60:	48 89 c7             	mov    %rax,%rdi
  63:	e8 00 00 00 00       	callq  68 <_ZN6ParserC1Ev+0x68>
  68:	48 8b 45 f8          	mov    -0x8(%rbp),%rax
  6c:	48 83 c0 30          	add    $0x30,%rax
  70:	48 89 c7             	mov    %rax,%rdi
  73:	e8 00 00 00 00       	callq  78 <_ZN6ParserC1Ev+0x78>
  78:	48 8b 45 f8          	mov    -0x8(%rbp),%rax
  7c:	48 83 c0 38          	add    $0x38,%rax
  80:	48 89 c7             	mov    %rax,%rdi
  83:	e8 00 00 00 00       	callq  88 <_ZN6ParserC1Ev+0x88>
{
    ui->setupUi(this);
  88:	48 8b 45 f8          	mov    -0x8(%rbp),%rax
  8c:	48 83 c0 40          	add    $0x40,%rax
  90:	48 89 c7             	mov    %rax,%rdi
  93:	e8 00 00 00 00       	callq  98 <_ZN6ParserC1Ev+0x98>
  98:	48 8b 45 f8          	mov    -0x8(%rbp),%rax
  9c:	48 83 c0 48          	add    $0x48,%rax
}
  a0:	48 89 c7             	mov    %rax,%rdi
#include "ui_mainwindow.h"
#include "parser.h"

MainWindow::MainWindow(QWidget *parent) :
    QMainWindow(parent),
    ui(new Ui::MainWindow)
  a3:	e8 00 00 00 00       	callq  a8 <_ZN6ParserC1Ev+0xa8>
  a8:	48 8b 45 f8          	mov    -0x8(%rbp),%rax
  ac:	48 83 c0 50          	add    $0x50,%rax
  b0:	48 89 c7             	mov    %rax,%rdi
  b3:	e8 00 00 00 00       	callq  b8 <_ZN6ParserC1Ev+0xb8>
  b8:	48 8b 45 f8          	mov    -0x8(%rbp),%rax
{
    ui->setupUi(this);
}
  bc:	48 83 c0 58          	add    $0x58,%rax
  c0:	48 89 c7             	mov    %rax,%rdi
  c3:	e8 00 00 00 00       	callq  c8 <_ZN6ParserC1Ev+0xc8>
  c8:	48 8b 45 f8          	mov    -0x8(%rbp),%rax
  cc:	48 83 c0 60          	add    $0x60,%rax
  d0:	48 89 c7             	mov    %rax,%rdi
  d3:	e8 00 00 00 00       	callq  d8 <_ZN6ParserC1Ev+0xd8>

MainWindow::~MainWindow()
  d8:	48 8b 45 f8          	mov    -0x8(%rbp),%rax
  dc:	48 83 c0 68          	add    $0x68,%rax
  e0:	48 89 c7             	mov    %rax,%rdi
  e3:	e8 00 00 00 00       	callq  e8 <_ZN6ParserC1Ev+0xe8>
  e8:	48 8b 45 f8          	mov    -0x8(%rbp),%rax
  ec:	48 83 c0 70          	add    $0x70,%rax
  f0:	48 89 c7             	mov    %rax,%rdi
  f3:	e8 00 00 00 00       	callq  f8 <_ZN6ParserC1Ev+0xf8>
  f8:	48 8b 45 f8          	mov    -0x8(%rbp),%rax
  fc:	48 83 c0 78          	add    $0x78,%rax
 100:	48 89 c7             	mov    %rax,%rdi
 103:	e8 00 00 00 00       	callq  108 <_ZN6ParserC1Ev+0x108>
{
    delete ui;
 108:	48 8b 45 f8          	mov    -0x8(%rbp),%rax
 10c:	48 83 e8 80          	sub    $0xffffffffffffff80,%rax
 110:	48 89 c7             	mov    %rax,%rdi
 113:	e8 00 00 00 00       	callq  118 <_ZN6ParserC1Ev+0x118>
    ui(new Ui::MainWindow)
{
    ui->setupUi(this);
}

MainWindow::~MainWindow()
 118:	48 8b 45 f8          	mov    -0x8(%rbp),%rax
 11c:	48 05 88 00 00 00    	add    $0x88,%rax
 122:	48 89 c7             	mov    %rax,%rdi
{
    delete ui;
}
 125:	e8 00 00 00 00       	callq  12a <_ZN6ParserC1Ev+0x12a>
 12a:	48 8b 45 f8          	mov    -0x8(%rbp),%rax
 12e:	48 05 90 00 00 00    	add    $0x90,%rax
 134:	48 89 c7             	mov    %rax,%rdi
 137:	e8 00 00 00 00       	callq  13c <_ZN6ParserC1Ev+0x13c>
 13c:	48 8b 45 f8          	mov    -0x8(%rbp),%rax
 140:	48 05 98 00 00 00    	add    $0x98,%rax
    ui(new Ui::MainWindow)
{
    ui->setupUi(this);
}

MainWindow::~MainWindow()
 146:	48 89 c7             	mov    %rax,%rdi
 149:	e8 00 00 00 00       	callq  14e <_ZN6ParserC1Ev+0x14e>
{
    delete ui;
}
 14e:	48 8b 45 f8          	mov    -0x8(%rbp),%rax
 152:	48 05 a0 00 00 00    	add    $0xa0,%rax
 158:	48 89 c7             	mov    %rax,%rdi
 15b:	e8 00 00 00 00       	callq  160 <_ZN6ParserC1Ev+0x160>
 160:	90                   	nop
 161:	c9                   	leaveq 
 162:	c3                   	retq   

Дизассемблирование раздела .text._ZN6ParserD2Ev:

0000000000000000 <_ZN6ParserD1Ev>:
#include "mainwindow.h"
#include "ui_mainwindow.h"
#include "parser.h"

MainWindow::MainWindow(QWidget *parent) :
   0:	55                   	push   %rbp
   1:	48 89 e5             	mov    %rsp,%rbp
   4:	53                   	push   %rbx
   5:	48 83 ec 18          	sub    $0x18,%rsp
   9:	48 89 7d e8          	mov    %rdi,-0x18(%rbp)
   d:	48 8b 45 e8          	mov    -0x18(%rbp),%rax
  11:	48 05 a0 00 00 00    	add    $0xa0,%rax
  17:	48 89 c7             	mov    %rax,%rdi
  1a:	e8 00 00 00 00       	callq  1f <_ZN6ParserD1Ev+0x1f>
  1f:	48 8b 45 e8          	mov    -0x18(%rbp),%rax
    QMainWindow(parent),
    ui(new Ui::MainWindow)
  23:	48 05 98 00 00 00    	add    $0x98,%rax
  29:	48 89 c7             	mov    %rax,%rdi
  2c:	e8 00 00 00 00       	callq  31 <_ZN6ParserD1Ev+0x31>
  31:	48 8b 45 e8          	mov    -0x18(%rbp),%rax
  35:	48 05 90 00 00 00    	add    $0x90,%rax
  3b:	48 89 c7             	mov    %rax,%rdi
  3e:	e8 00 00 00 00       	callq  43 <_ZN6ParserD1Ev+0x43>
  43:	48 8b 45 e8          	mov    -0x18(%rbp),%rax
  47:	48 05 88 00 00 00    	add    $0x88,%rax
  4d:	48 89 c7             	mov    %rax,%rdi
  50:	e8 00 00 00 00       	callq  55 <_ZN6ParserD1Ev+0x55>
  55:	48 8b 45 e8          	mov    -0x18(%rbp),%rax
  59:	48 83 e8 80          	sub    $0xffffffffffffff80,%rax
  5d:	48 89 c7             	mov    %rax,%rdi
  60:	e8 00 00 00 00       	callq  65 <_ZN6ParserD1Ev+0x65>
  65:	48 8b 45 e8          	mov    -0x18(%rbp),%rax
  69:	48 83 c0 78          	add    $0x78,%rax
  6d:	48 89 c7             	mov    %rax,%rdi
  70:	e8 00 00 00 00       	callq  75 <_ZN6ParserD1Ev+0x75>
  75:	48 8b 45 e8          	mov    -0x18(%rbp),%rax
  79:	48 83 c0 70          	add    $0x70,%rax
  7d:	48 89 c7             	mov    %rax,%rdi
  80:	e8 00 00 00 00       	callq  85 <_ZN6ParserD1Ev+0x85>
  85:	48 8b 45 e8          	mov    -0x18(%rbp),%rax
{
    ui->setupUi(this);
  89:	48 83 c0 68          	add    $0x68,%rax
  8d:	48 89 c7             	mov    %rax,%rdi
  90:	e8 00 00 00 00       	callq  95 <_ZN6ParserD1Ev+0x95>
  95:	48 8b 45 e8          	mov    -0x18(%rbp),%rax
  99:	48 83 c0 60          	add    $0x60,%rax
}
  9d:	48 89 c7             	mov    %rax,%rdi
  a0:	e8 00 00 00 00       	callq  a5 <_ZN6ParserD1Ev+0xa5>
#include "ui_mainwindow.h"
#include "parser.h"

MainWindow::MainWindow(QWidget *parent) :
    QMainWindow(parent),
    ui(new Ui::MainWindow)
  a5:	48 8b 45 e8          	mov    -0x18(%rbp),%rax
  a9:	48 83 c0 58          	add    $0x58,%rax
  ad:	48 89 c7             	mov    %rax,%rdi
  b0:	e8 00 00 00 00       	callq  b5 <_ZN6ParserD1Ev+0xb5>
  b5:	48 8b 45 e8          	mov    -0x18(%rbp),%rax
{
    ui->setupUi(this);
}
  b9:	48 83 c0 50          	add    $0x50,%rax
  bd:	48 89 c7             	mov    %rax,%rdi
  c0:	e8 00 00 00 00       	callq  c5 <_ZN6ParserD1Ev+0xc5>
  c5:	48 8b 45 e8          	mov    -0x18(%rbp),%rax
  c9:	48 83 c0 48          	add    $0x48,%rax
  cd:	48 89 c7             	mov    %rax,%rdi
  d0:	e8 00 00 00 00       	callq  d5 <_ZN6ParserD1Ev+0xd5>

MainWindow::~MainWindow()
  d5:	48 8b 45 e8          	mov    -0x18(%rbp),%rax
  d9:	48 83 c0 40          	add    $0x40,%rax
  dd:	48 89 c7             	mov    %rax,%rdi
  e0:	e8 00 00 00 00       	callq  e5 <_ZN6ParserD1Ev+0xe5>
  e5:	48 8b 45 e8          	mov    -0x18(%rbp),%rax
  e9:	48 83 c0 38          	add    $0x38,%rax
  ed:	48 89 c7             	mov    %rax,%rdi
  f0:	e8 00 00 00 00       	callq  f5 <_ZN6ParserD1Ev+0xf5>
  f5:	48 8b 45 e8          	mov    -0x18(%rbp),%rax
  f9:	48 83 c0 30          	add    $0x30,%rax
  fd:	48 89 c7             	mov    %rax,%rdi
 100:	e8 00 00 00 00       	callq  105 <_ZN6ParserD1Ev+0x105>
 105:	48 8b 45 e8          	mov    -0x18(%rbp),%rax
{
    delete ui;
 109:	48 83 c0 28          	add    $0x28,%rax
 10d:	48 89 c7             	mov    %rax,%rdi
 110:	e8 00 00 00 00       	callq  115 <_ZN6ParserD1Ev+0x115>
 115:	48 8b 45 e8          	mov    -0x18(%rbp),%rax
    ui(new Ui::MainWindow)
{
    ui->setupUi(this);
}

MainWindow::~MainWindow()
 119:	48 83 c0 20          	add    $0x20,%rax
 11d:	48 89 c7             	mov    %rax,%rdi
 120:	e8 00 00 00 00       	callq  125 <_ZN6ParserD1Ev+0x125>
{
    delete ui;
}
 125:	48 8b 45 e8          	mov    -0x18(%rbp),%rax
 129:	48 83 c0 18          	add    $0x18,%rax
 12d:	48 89 c7             	mov    %rax,%rdi
 130:	e8 00 00 00 00       	callq  135 <_ZN6ParserD1Ev+0x135>
 135:	48 8b 45 e8          	mov    -0x18(%rbp),%rax
 139:	48 83 c0 10          	add    $0x10,%rax
 13d:	48 89 c7             	mov    %rax,%rdi
 140:	e8 00 00 00 00       	callq  145 <_ZN6ParserD1Ev+0x145>
    ui(new Ui::MainWindow)
{
    ui->setupUi(this);
}

MainWindow::~MainWindow()
 145:	48 8b 45 e8          	mov    -0x18(%rbp),%rax
 149:	48 83 c0 08          	add    $0x8,%rax
 14d:	48 89 c7             	mov    %rax,%rdi
{
    delete ui;
}
 150:	e8 00 00 00 00       	callq  155 <_ZN6ParserD1Ev+0x155>
 155:	48 8b 45 e8          	mov    -0x18(%rbp),%rax
 159:	48 89 c7             	mov    %rax,%rdi
 15c:	e8 00 00 00 00       	callq  161 <_ZN6ParserD1Ev+0x161>
 161:	e9 af 01 00 00       	jmpq   315 <_ZN6ParserD1Ev+0x315>
 166:	48 89 c3             	mov    %rax,%rbx
 169:	48 8b 45 e8          	mov    -0x18(%rbp),%rax
 16d:	48 05 98 00 00 00    	add    $0x98,%rax

void MainWindow::pe(QString str){
 173:	48 89 c7             	mov    %rax,%rdi
 176:	e8 00 00 00 00       	callq  17b <_ZN6ParserD1Ev+0x17b>
 17b:	eb 03                	jmp    180 <_ZN6ParserD1Ev+0x180>
 17d:	48 89 c3             	mov    %rax,%rbx
    ui->plainTextEdit_2->appendPlainText(str);
 180:	48 8b 45 e8          	mov    -0x18(%rbp),%rax
 184:	48 05 90 00 00 00    	add    $0x90,%rax
 18a:	48 89 c7             	mov    %rax,%rdi
 18d:	e8 00 00 00 00       	callq  192 <_ZN6ParserD1Ev+0x192>
 192:	eb 03                	jmp    197 <_ZN6ParserD1Ev+0x197>
 194:	48 89 c3             	mov    %rax,%rbx
 197:	48 8b 45 e8          	mov    -0x18(%rbp),%rax
}
 19b:	48 05 88 00 00 00    	add    $0x88,%rax

void MainWindow::on_pushButton_clicked()
{
 1a1:	48 89 c7             	mov    %rax,%rdi
 1a4:	e8 00 00 00 00       	callq  1a9 <_ZN6ParserD1Ev+0x1a9>
 1a9:	eb 03                	jmp    1ae <_ZN6ParserD1Ev+0x1ae>
 1ab:	48 89 c3             	mov    %rax,%rbx
 1ae:	48 8b 45 e8          	mov    -0x18(%rbp),%rax
 1b2:	48 83 e8 80          	sub    $0xffffffffffffff80,%rax
 1b6:	48 89 c7             	mov    %rax,%rdi
 1b9:	e8 00 00 00 00       	callq  1be <_ZN6ParserD1Ev+0x1be>
    Parser P;
 1be:	eb 03                	jmp    1c3 <_ZN6ParserD1Ev+0x1c3>
 1c0:	48 89 c3             	mov    %rax,%rbx
 1c3:	48 8b 45 e8          	mov    -0x18(%rbp),%rax
 1c7:	48 83 c0 78          	add    $0x78,%rax
 1cb:	48 89 c7             	mov    %rax,%rdi
    P.script = ui->plainTextEdit->toPlainText();
 1ce:	e8 00 00 00 00       	callq  1d3 <_ZN6ParserD1Ev+0x1d3>
 1d3:	eb 03                	jmp    1d8 <_ZN6ParserD1Ev+0x1d8>
 1d5:	48 89 c3             	mov    %rax,%rbx
 1d8:	48 8b 45 e8          	mov    -0x18(%rbp),%rax
 1dc:	48 83 c0 70          	add    $0x70,%rax
 1e0:	48 89 c7             	mov    %rax,%rdi
 1e3:	e8 00 00 00 00       	callq  1e8 <_ZN6ParserD1Ev+0x1e8>
 1e8:	eb 03                	jmp    1ed <_ZN6ParserD1Ev+0x1ed>
 1ea:	48 89 c3             	mov    %rax,%rbx
 1ed:	48 8b 45 e8          	mov    -0x18(%rbp),%rax
 1f1:	48 83 c0 68          	add    $0x68,%rax
 1f5:	48 89 c7             	mov    %rax,%rdi
 1f8:	e8 00 00 00 00       	callq  1fd <_ZN6ParserD1Ev+0x1fd>
 1fd:	eb 03                	jmp    202 <_ZN6ParserD1Ev+0x202>
 1ff:	48 89 c3             	mov    %rax,%rbx
 202:	48 8b 45 e8          	mov    -0x18(%rbp),%rax
 206:	48 83 c0 60          	add    $0x60,%rax
 20a:	48 89 c7             	mov    %rax,%rdi
 20d:	e8 00 00 00 00       	callq  212 <_ZN6ParserD1Ev+0x212>
 212:	eb 03                	jmp    217 <_ZN6ParserD1Ev+0x217>
 214:	48 89 c3             	mov    %rax,%rbx
    int i = P.compile();
 217:	48 8b 45 e8          	mov    -0x18(%rbp),%rax
 21b:	48 83 c0 58          	add    $0x58,%rax
 21f:	48 89 c7             	mov    %rax,%rdi
 222:	e8 00 00 00 00       	callq  227 <_ZN6ParserD1Ev+0x227>
 227:	eb 03                	jmp    22c <_ZN6ParserD1Ev+0x22c>
 229:	48 89 c3             	mov    %rax,%rbx
    ui->plainTextEdit_2->appendPlainText(str);
}

void MainWindow::on_pushButton_clicked()
{
    Parser P;
 22c:	48 8b 45 e8          	mov    -0x18(%rbp),%rax
 230:	48 83 c0 50          	add    $0x50,%rax
 234:	48 89 c7             	mov    %rax,%rdi
 237:	e8 00 00 00 00       	callq  23c <_ZN6ParserD1Ev+0x23c>
    P.script = ui->plainTextEdit->toPlainText();
    int i = P.compile();
}
 23c:	eb 03                	jmp    241 <_ZN6ParserD1Ev+0x241>
 23e:	48 89 c3             	mov    %rax,%rbx
 241:	48 8b 45 e8          	mov    -0x18(%rbp),%rax
 245:	48 83 c0 48          	add    $0x48,%rax
 249:	48 89 c7             	mov    %rax,%rdi
 24c:	e8 00 00 00 00       	callq  251 <_ZN6ParserD1Ev+0x251>
}

void MainWindow::on_pushButton_clicked()
{
    Parser P;
    P.script = ui->plainTextEdit->toPlainText();
 251:	eb 03                	jmp    256 <_ZN6ParserD1Ev+0x256>
 253:	48 89 c3             	mov    %rax,%rbx
 256:	48 8b 45 e8          	mov    -0x18(%rbp),%rax
 25a:	48 83 c0 40          	add    $0x40,%rax
 25e:	48 89 c7             	mov    %rax,%rdi
 261:	e8 00 00 00 00       	callq  266 <_ZN6ParserD1Ev+0x266>
    ui->plainTextEdit_2->appendPlainText(str);
}

void MainWindow::on_pushButton_clicked()
{
    Parser P;
 266:	eb 03                	jmp    26b <_ZN6ParserD1Ev+0x26b>
 268:	48 89 c3             	mov    %rax,%rbx
 26b:	48 8b 45 e8          	mov    -0x18(%rbp),%rax
 26f:	48 83 c0 38          	add    $0x38,%rax
 273:	48 89 c7             	mov    %rax,%rdi
 276:	e8 00 00 00 00       	callq  27b <_ZN6ParserD1Ev+0x27b>
 27b:	eb 03                	jmp    280 <_ZN6ParserD1Ev+0x280>
    P.script = ui->plainTextEdit->toPlainText();
    int i = P.compile();
}
 27d:	48 89 c3             	mov    %rax,%rbx
 280:	48 8b 45 e8          	mov    -0x18(%rbp),%rax
 284:	48 83 c0 30          	add    $0x30,%rax
 288:	48 89 c7             	mov    %rax,%rdi
 28b:	e8 00 00 00 00       	callq  290 <_ZN6ParserD1Ev+0x290>
        if (count != -1) // !isStatic
            atomic.ref();
        return true;
    }

    inline bool deref() Q_DECL_NOTHROW {
 290:	eb 03                	jmp    295 <_ZN6ParserD1Ev+0x295>
 292:	48 89 c3             	mov    %rax,%rbx
 295:	48 8b 45 e8          	mov    -0x18(%rbp),%rax
        int count = atomic.load();
 299:	48 83 c0 28          	add    $0x28,%rax
 29d:	48 89 c7             	mov    %rax,%rdi
 2a0:	e8 00 00 00 00       	callq  2a5 <_ZN6ParserD1Ev+0x2a5>
 2a5:	eb 03                	jmp    2aa <_ZN6ParserD1Ev+0x2aa>
#if QT_SUPPORTS(UNSHARABLE_CONTAINERS)
        if (count == 0) // !isSharable
 2a7:	48 89 c3             	mov    %rax,%rbx
 2aa:	48 8b 45 e8          	mov    -0x18(%rbp),%rax
            return false;
 2ae:	48 83 c0 20          	add    $0x20,%rax
 2b2:	48 89 c7             	mov    %rax,%rdi
#endif
        if (count == -1) // isStatic
 2b5:	e8 00 00 00 00       	callq  2ba <_ZN6ParserD1Ev+0x2ba>
            return true;
 2ba:	eb 03                	jmp    2bf <_ZN6ParserD1Ev+0x2bf>
 2bc:	48 89 c3             	mov    %rax,%rbx
 2bf:	48 8b 45 e8          	mov    -0x18(%rbp),%rax
        return atomic.deref();
 2c3:	48 83 c0 18          	add    $0x18,%rax
 2c7:	48 89 c7             	mov    %rax,%rdi
 2ca:	e8 00 00 00 00       	callq  2cf <_ZN6ParserD1Ev+0x2cf>
 2cf:	eb 03                	jmp    2d4 <_ZN6ParserD1Ev+0x2d4>
 2d1:	48 89 c3             	mov    %rax,%rbx
 2d4:	48 8b 45 e8          	mov    -0x18(%rbp),%rax
 2d8:	48 83 c0 10          	add    $0x10,%rax
    inline DataPtr &data_ptr() { return d; }
};

Q_DECLARE_OPERATORS_FOR_FLAGS(QByteArray::Base64Options)

inline QByteArray::QByteArray() Q_DECL_NOTHROW : d(Data::sharedNull()) { }
 2dc:	48 89 c7             	mov    %rax,%rdi
 2df:	e8 00 00 00 00       	callq  2e4 <_ZN6ParserD1Ev+0x2e4>
 2e4:	eb 03                	jmp    2e9 <_ZN6ParserD1Ev+0x2e9>
 2e6:	48 89 c3             	mov    %rax,%rbx
 2e9:	48 8b 45 e8          	mov    -0x18(%rbp),%rax
 2ed:	48 83 c0 08          	add    $0x8,%rax
 2f1:	48 89 c7             	mov    %rax,%rdi
 2f4:	e8 00 00 00 00       	callq  2f9 <_ZN6ParserD1Ev+0x2f9>
 2f9:	eb 03                	jmp    2fe <_ZN6ParserD1Ev+0x2fe>
inline QByteArray::~QByteArray() { if (!d->ref.deref()) Data::deallocate(d); }
 2fb:	48 89 c3             	mov    %rax,%rbx
 2fe:	48 8b 45 e8          	mov    -0x18(%rbp),%rax
 302:	48 89 c7             	mov    %rax,%rdi
 305:	e8 00 00 00 00       	callq  30a <_ZN6ParserD1Ev+0x30a>
 30a:	48 89 d8             	mov    %rbx,%rax
 30d:	48 89 c7             	mov    %rax,%rdi
 310:	e8 00 00 00 00       	callq  315 <_ZN6ParserD1Ev+0x315>
 315:	48 83 c4 18          	add    $0x18,%rsp
 319:	5b                   	pop    %rbx
 31a:	5d                   	pop    %rbp
 31b:	c3                   	retq   

Дизассемблирование раздела .text._ZNK19QBasicAtomicIntegerIiE4loadEv:

0000000000000000 <_ZNK19QBasicAtomicIntegerIiE4loadEv>:
#include "mainwindow.h"
#include "ui_mainwindow.h"
#include "parser.h"

MainWindow::MainWindow(QWidget *parent) :
   0:	55                   	push   %rbp
   1:	48 89 e5             	mov    %rsp,%rbp
   4:	48 89 7d e8          	mov    %rdi,-0x18(%rbp)
   8:	48 8b 45 e8          	mov    -0x18(%rbp),%rax
   c:	48 89 45 f8          	mov    %rax,-0x8(%rbp)
  10:	48 8b 45 f8          	mov    -0x8(%rbp),%rax
  14:	8b 00                	mov    (%rax),%eax
  16:	90                   	nop
  17:	5d                   	pop    %rbp
  18:	c3                   	retq   

Дизассемблирование раздела .text._ZN19QBasicAtomicIntegerIiE5derefEv:

0000000000000000 <_ZN19QBasicAtomicIntegerIiE5derefEv>:
   0:	55                   	push   %rbp
   1:	48 89 e5             	mov    %rsp,%rbp
   4:	48 83 ec 10          	sub    $0x10,%rsp
   8:	48 89 7d f8          	mov    %rdi,-0x8(%rbp)
   c:	48 8b 45 f8          	mov    -0x8(%rbp),%rax
  10:	48 89 c7             	mov    %rax,%rdi
  13:	e8 00 00 00 00       	callq  18 <_ZN19QBasicAtomicIntegerIiE5derefEv+0x18>
  18:	c9                   	leaveq 
  19:	c3                   	retq   

Дизассемблирование раздела .text._ZN15QTypedArrayDataIcE10sharedNullEv:

0000000000000000 <_ZN15QTypedArrayDataIcE10sharedNullEv>:
   0:	55                   	push   %rbp
   1:	48 89 e5             	mov    %rsp,%rbp
   4:	e8 00 00 00 00       	callq  9 <_ZN15QTypedArrayDataIcE10sharedNullEv+0x9>
   9:	5d                   	pop    %rbp
   a:	c3                   	retq   

Дизассемблирование раздела .text._ZN15QTypedArrayDataIcE10deallocateEP10QArrayData:

0000000000000000 <_ZN15QTypedArrayDataIcE10deallocateEP10QArrayData>:
   0:	55                   	push   %rbp
   1:	48 89 e5             	mov    %rsp,%rbp
   4:	48 83 ec 10          	sub    $0x10,%rsp
   8:	48 89 7d f8          	mov    %rdi,-0x8(%rbp)
   c:	48 8b 45 f8          	mov    -0x8(%rbp),%rax
  10:	ba 08 00 00 00       	mov    $0x8,%edx
  15:	be 01 00 00 00       	mov    $0x1,%esi
  1a:	48 89 c7             	mov    %rax,%rdi
  1d:	e8 00 00 00 00       	callq  22 <_ZN15QTypedArrayDataIcE10deallocateEP10QArrayData+0x22>
    QMainWindow(parent),
    ui(new Ui::MainWindow)
  22:	90                   	nop
  23:	c9                   	leaveq 
  24:	c3                   	retq   

Дизассемблирование раздела .text._ZN15QTypedArrayDataItE10sharedNullEv:

0000000000000000 <_ZN15QTypedArrayDataItE10sharedNullEv>:
#include "mainwindow.h"
#include "ui_mainwindow.h"
#include "parser.h"

MainWindow::MainWindow(QWidget *parent) :
   0:	55                   	push   %rbp
   1:	48 89 e5             	mov    %rsp,%rbp
   4:	e8 00 00 00 00       	callq  9 <_ZN15QTypedArrayDataItE10sharedNullEv+0x9>
   9:	5d                   	pop    %rbp
   a:	c3                   	retq   

Дизассемблирование раздела .text._ZN15QTypedArrayDataItE10deallocateEP10QArrayData:

0000000000000000 <_ZN15QTypedArrayDataItE10deallocateEP10QArrayData>:
   0:	55                   	push   %rbp
   1:	48 89 e5             	mov    %rsp,%rbp
   4:	48 83 ec 10          	sub    $0x10,%rsp
   8:	48 89 7d f8          	mov    %rdi,-0x8(%rbp)
   c:	48 8b 45 f8          	mov    -0x8(%rbp),%rax
  10:	ba 08 00 00 00       	mov    $0x8,%edx
  15:	be 02 00 00 00       	mov    $0x2,%esi
  1a:	48 89 c7             	mov    %rax,%rdi
  1d:	e8 00 00 00 00       	callq  22 <_ZN15QTypedArrayDataItE10deallocateEP10QArrayData+0x22>
    QMainWindow(parent),
    ui(new Ui::MainWindow)
  22:	90                   	nop
  23:	c9                   	leaveq 
  24:	c3                   	retq   

Дизассемблирование раздела .text._ZN19QListSpecialMethodsI7QStringEC2Ev:

0000000000000000 <_ZN19QListSpecialMethodsI7QStringEC1Ev>:
#include "mainwindow.h"
#include "ui_mainwindow.h"
#include "parser.h"

MainWindow::MainWindow(QWidget *parent) :
   0:	55                   	push   %rbp
   1:	48 89 e5             	mov    %rsp,%rbp
   4:	48 89 7d f8          	mov    %rdi,-0x8(%rbp)
   8:	90                   	nop
   9:	5d                   	pop    %rbp
   a:	c3                   	retq   

Дизассемблирование раздела .text._ZN5QListI7QStringEC2Ev:

0000000000000000 <_ZN5QListI7QStringEC1Ev>:
   0:	55                   	push   %rbp
   1:	48 89 e5             	mov    %rsp,%rbp
   4:	48 83 ec 10          	sub    $0x10,%rsp
   8:	48 89 7d f8          	mov    %rdi,-0x8(%rbp)
   c:	48 8b 45 f8          	mov    -0x8(%rbp),%rax
  10:	48 89 c7             	mov    %rax,%rdi
  13:	e8 00 00 00 00       	callq  18 <_ZN5QListI7QStringEC1Ev+0x18>
  18:	48 8b 45 f8          	mov    -0x8(%rbp),%rax
  1c:	48 8b 15 00 00 00 00 	mov    0x0(%rip),%rdx        # 23 <_ZN5QListI7QStringEC1Ev+0x23>
    QMainWindow(parent),
    ui(new Ui::MainWindow)
  23:	48 89 10             	mov    %rdx,(%rax)
  26:	90                   	nop
  27:	c9                   	leaveq 
  28:	c3                   	retq   

Дизассемблирование раздела .text._ZN5QListI7QStringED2Ev:

0000000000000000 <_ZN5QListI7QStringED1Ev>:
#include "mainwindow.h"
#include "ui_mainwindow.h"
#include "parser.h"

MainWindow::MainWindow(QWidget *parent) :
   0:	55                   	push   %rbp
   1:	48 89 e5             	mov    %rsp,%rbp
   4:	53                   	push   %rbx
   5:	48 83 ec 18          	sub    $0x18,%rsp
   9:	48 89 7d e8          	mov    %rdi,-0x18(%rbp)
   d:	48 8b 45 e8          	mov    -0x18(%rbp),%rax
  11:	48 8b 00             	mov    (%rax),%rax
  14:	48 89 c7             	mov    %rax,%rdi
  17:	e8 00 00 00 00       	callq  1c <_ZN5QListI7QStringED1Ev+0x1c>
  1c:	83 f0 01             	xor    $0x1,%eax
  1f:	84 c0                	test   %al,%al
    QMainWindow(parent),
    ui(new Ui::MainWindow)
  21:	74 16                	je     39 <_ZN5QListI7QStringED1Ev+0x39>
  23:	48 8b 45 e8          	mov    -0x18(%rbp),%rax
  27:	48 8b 10             	mov    (%rax),%rdx
  2a:	48 8b 45 e8          	mov    -0x18(%rbp),%rax
  2e:	48 89 d6             	mov    %rdx,%rsi
  31:	48 89 c7             	mov    %rax,%rdi
  34:	e8 00 00 00 00       	callq  39 <_ZN5QListI7QStringED1Ev+0x39>
  39:	48 8b 45 e8          	mov    -0x18(%rbp),%rax
  3d:	48 89 c7             	mov    %rax,%rdi
  40:	e8 00 00 00 00       	callq  45 <_ZN5QListI7QStringED1Ev+0x45>
  45:	eb 1a                	jmp    61 <_ZN5QListI7QStringED1Ev+0x61>
  47:	48 89 c3             	mov    %rax,%rbx
  4a:	48 8b 45 e8          	mov    -0x18(%rbp),%rax
  4e:	48 89 c7             	mov    %rax,%rdi
  51:	e8 00 00 00 00       	callq  56 <_ZN5QListI7QStringED1Ev+0x56>
  56:	48 89 d8             	mov    %rbx,%rax
  59:	48 89 c7             	mov    %rax,%rdi
  5c:	e8 00 00 00 00       	callq  61 <_ZN5QListI7QStringED1Ev+0x61>
  61:	48 83 c4 18          	add    $0x18,%rsp
  65:	5b                   	pop    %rbx
  66:	5d                   	pop    %rbp
  67:	c3                   	retq   

Дизассемблирование раздела .text._ZN6QFlagsIN2Qt13AlignmentFlagEEC2EMNS2_7PrivateEi:

0000000000000000 <_ZN6QFlagsIN2Qt13AlignmentFlagEEC1EMNS2_7PrivateEi>:
#include "mainwindow.h"
#include "ui_mainwindow.h"
#include "parser.h"

MainWindow::MainWindow(QWidget *parent) :
   0:	55                   	push   %rbp
   1:	48 89 e5             	mov    %rsp,%rbp
   4:	48 89 7d f8          	mov    %rdi,-0x8(%rbp)
   8:	48 89 75 f0          	mov    %rsi,-0x10(%rbp)
   c:	48 8b 45 f8          	mov    -0x8(%rbp),%rax
  10:	c7 00 00 00 00 00    	movl   $0x0,(%rax)
  16:	90                   	nop
  17:	5d                   	pop    %rbp
  18:	c3                   	retq   

Дизассемблирование раздела .text._ZN6QFlagsIN2Qt10WindowTypeEEC2EMNS2_7PrivateEi:

0000000000000000 <_ZN6QFlagsIN2Qt10WindowTypeEEC1EMNS2_7PrivateEi>:
   0:	55                   	push   %rbp
   1:	48 89 e5             	mov    %rsp,%rbp
   4:	48 89 7d f8          	mov    %rdi,-0x8(%rbp)
   8:	48 89 75 f0          	mov    %rsi,-0x10(%rbp)
   c:	48 8b 45 f8          	mov    -0x8(%rbp),%rax
  10:	c7 00 00 00 00 00    	movl   $0x0,(%rax)
  16:	90                   	nop
  17:	5d                   	pop    %rbp
  18:	c3                   	retq   

Дизассемблирование раздела .text._ZN5QHashI7QStringS0_EC2Ev:

0000000000000000 <_ZN5QHashI7QStringS0_EC1Ev>:
   0:	55                   	push   %rbp
   1:	48 89 e5             	mov    %rsp,%rbp
   4:	48 89 7d f8          	mov    %rdi,-0x8(%rbp)
   8:	48 8b 45 f8          	mov    -0x8(%rbp),%rax
   c:	48 8b 15 00 00 00 00 	mov    0x0(%rip),%rdx        # 13 <_ZN5QHashI7QStringS0_EC1Ev+0x13>
  13:	48 89 10             	mov    %rdx,(%rax)
  16:	90                   	nop
  17:	5d                   	pop    %rbp
  18:	c3                   	retq   

Дизассемблирование раздела .text._ZN5QHashI7QStringS0_ED2Ev:

0000000000000000 <_ZN5QHashI7QStringS0_ED1Ev>:
   0:	55                   	push   %rbp
   1:	48 89 e5             	mov    %rsp,%rbp
   4:	48 83 ec 10          	sub    $0x10,%rsp
   8:	48 89 7d f8          	mov    %rdi,-0x8(%rbp)
   c:	48 8b 45 f8          	mov    -0x8(%rbp),%rax
  10:	48 8b 00             	mov    (%rax),%rax
  13:	48 83 c0 10          	add    $0x10,%rax
  17:	48 89 c7             	mov    %rax,%rdi
  1a:	e8 00 00 00 00       	callq  1f <_ZN5QHashI7QStringS0_ED1Ev+0x1f>
  1f:	83 f0 01             	xor    $0x1,%eax
    QMainWindow(parent),
    ui(new Ui::MainWindow)
  22:	84 c0                	test   %al,%al
  24:	74 16                	je     3c <_ZN5QHashI7QStringS0_ED1Ev+0x3c>
  26:	48 8b 45 f8          	mov    -0x8(%rbp),%rax
  2a:	48 8b 10             	mov    (%rax),%rdx
  2d:	48 8b 45 f8          	mov    -0x8(%rbp),%rax
  31:	48 89 d6             	mov    %rdx,%rsi
  34:	48 89 c7             	mov    %rax,%rdi
  37:	e8 00 00 00 00       	callq  3c <_ZN5QHashI7QStringS0_ED1Ev+0x3c>
  3c:	90                   	nop
  3d:	c9                   	leaveq 
  3e:	c3                   	retq   

Дизассемблирование раздела .text._ZN5QHashI7QString11QStringListEC2Ev:

0000000000000000 <_ZN5QHashI7QString11QStringListEC1Ev>:
#include "mainwindow.h"
#include "ui_mainwindow.h"
#include "parser.h"

MainWindow::MainWindow(QWidget *parent) :
   0:	55                   	push   %rbp
   1:	48 89 e5             	mov    %rsp,%rbp
   4:	48 89 7d f8          	mov    %rdi,-0x8(%rbp)
   8:	48 8b 45 f8          	mov    -0x8(%rbp),%rax
   c:	48 8b 15 00 00 00 00 	mov    0x0(%rip),%rdx        # 13 <_ZN5QHashI7QString11QStringListEC1Ev+0x13>
  13:	48 89 10             	mov    %rdx,(%rax)
  16:	90                   	nop
  17:	5d                   	pop    %rbp
  18:	c3                   	retq   

Дизассемблирование раздела .text._ZN5QHashI7QString11QStringListED2Ev:

0000000000000000 <_ZN5QHashI7QString11QStringListED1Ev>:
   0:	55                   	push   %rbp
   1:	48 89 e5             	mov    %rsp,%rbp
   4:	48 83 ec 10          	sub    $0x10,%rsp
   8:	48 89 7d f8          	mov    %rdi,-0x8(%rbp)
   c:	48 8b 45 f8          	mov    -0x8(%rbp),%rax
  10:	48 8b 00             	mov    (%rax),%rax
  13:	48 83 c0 10          	add    $0x10,%rax
  17:	48 89 c7             	mov    %rax,%rdi
  1a:	e8 00 00 00 00       	callq  1f <_ZN5QHashI7QString11QStringListED1Ev+0x1f>
  1f:	83 f0 01             	xor    $0x1,%eax
    QMainWindow(parent),
    ui(new Ui::MainWindow)
  22:	84 c0                	test   %al,%al
  24:	74 16                	je     3c <_ZN5QHashI7QString11QStringListED1Ev+0x3c>
  26:	48 8b 45 f8          	mov    -0x8(%rbp),%rax
  2a:	48 8b 10             	mov    (%rax),%rdx
  2d:	48 8b 45 f8          	mov    -0x8(%rbp),%rax
  31:	48 89 d6             	mov    %rdx,%rsi
  34:	48 89 c7             	mov    %rax,%rdi
  37:	e8 00 00 00 00       	callq  3c <_ZN5QHashI7QString11QStringListED1Ev+0x3c>
  3c:	90                   	nop
  3d:	c9                   	leaveq 
  3e:	c3                   	retq   

Дизассемблирование раздела .text._ZN5QHashI7QString10QByteArrayEC2Ev:

0000000000000000 <_ZN5QHashI7QString10QByteArrayEC1Ev>:
#include "mainwindow.h"
#include "ui_mainwindow.h"
#include "parser.h"

MainWindow::MainWindow(QWidget *parent) :
   0:	55                   	push   %rbp
   1:	48 89 e5             	mov    %rsp,%rbp
   4:	48 89 7d f8          	mov    %rdi,-0x8(%rbp)
   8:	48 8b 45 f8          	mov    -0x8(%rbp),%rax
   c:	48 8b 15 00 00 00 00 	mov    0x0(%rip),%rdx        # 13 <_ZN5QHashI7QString10QByteArrayEC1Ev+0x13>
  13:	48 89 10             	mov    %rdx,(%rax)
  16:	90                   	nop
  17:	5d                   	pop    %rbp
  18:	c3                   	retq   

Дизассемблирование раздела .text._ZN5QHashI7QString10QByteArrayED2Ev:

0000000000000000 <_ZN5QHashI7QString10QByteArrayED1Ev>:
   0:	55                   	push   %rbp
   1:	48 89 e5             	mov    %rsp,%rbp
   4:	48 83 ec 10          	sub    $0x10,%rsp
   8:	48 89 7d f8          	mov    %rdi,-0x8(%rbp)
   c:	48 8b 45 f8          	mov    -0x8(%rbp),%rax
  10:	48 8b 00             	mov    (%rax),%rax
  13:	48 83 c0 10          	add    $0x10,%rax
  17:	48 89 c7             	mov    %rax,%rdi
  1a:	e8 00 00 00 00       	callq  1f <_ZN5QHashI7QString10QByteArrayED1Ev+0x1f>
  1f:	83 f0 01             	xor    $0x1,%eax
    QMainWindow(parent),
    ui(new Ui::MainWindow)
  22:	84 c0                	test   %al,%al
  24:	74 16                	je     3c <_ZN5QHashI7QString10QByteArrayED1Ev+0x3c>
  26:	48 8b 45 f8          	mov    -0x8(%rbp),%rax
  2a:	48 8b 10             	mov    (%rax),%rdx
  2d:	48 8b 45 f8          	mov    -0x8(%rbp),%rax
  31:	48 89 d6             	mov    %rdx,%rsi
  34:	48 89 c7             	mov    %rax,%rdi
  37:	e8 00 00 00 00       	callq  3c <_ZN5QHashI7QString10QByteArrayED1Ev+0x3c>
  3c:	90                   	nop
  3d:	c9                   	leaveq 
  3e:	c3                   	retq   

Дизассемблирование раздела .text._ZN4QMapI7QStringiEC2Ev:

0000000000000000 <_ZN4QMapI7QStringiEC1Ev>:
#include "mainwindow.h"
#include "ui_mainwindow.h"
#include "parser.h"

MainWindow::MainWindow(QWidget *parent) :
   0:	55                   	push   %rbp
   1:	48 89 e5             	mov    %rsp,%rbp
   4:	48 89 7d f8          	mov    %rdi,-0x8(%rbp)
   8:	48 8b 45 f8          	mov    -0x8(%rbp),%rax
   c:	48 8b 15 00 00 00 00 	mov    0x0(%rip),%rdx        # 13 <_ZN4QMapI7QStringiEC1Ev+0x13>
  13:	48 89 10             	mov    %rdx,(%rax)
  16:	90                   	nop
  17:	5d                   	pop    %rbp
  18:	c3                   	retq   

Дизассемблирование раздела .text._ZN4QMapI7QStringiED2Ev:

0000000000000000 <_ZN4QMapI7QStringiED1Ev>:
   0:	55                   	push   %rbp
   1:	48 89 e5             	mov    %rsp,%rbp
   4:	48 83 ec 10          	sub    $0x10,%rsp
   8:	48 89 7d f8          	mov    %rdi,-0x8(%rbp)
   c:	48 8b 45 f8          	mov    -0x8(%rbp),%rax
  10:	48 8b 00             	mov    (%rax),%rax
  13:	48 89 c7             	mov    %rax,%rdi
  16:	e8 00 00 00 00       	callq  1b <_ZN4QMapI7QStringiED1Ev+0x1b>
  1b:	83 f0 01             	xor    $0x1,%eax
  1e:	84 c0                	test   %al,%al
    QMainWindow(parent),
    ui(new Ui::MainWindow)
  20:	74 0f                	je     31 <_ZN4QMapI7QStringiED1Ev+0x31>
  22:	48 8b 45 f8          	mov    -0x8(%rbp),%rax
  26:	48 8b 00             	mov    (%rax),%rax
  29:	48 89 c7             	mov    %rax,%rdi
  2c:	e8 00 00 00 00       	callq  31 <_ZN4QMapI7QStringiED1Ev+0x31>
  31:	90                   	nop
  32:	c9                   	leaveq 
  33:	c3                   	retq   

Дизассемблирование раздела .text._ZN15QBasicAtomicOpsILi4EE5derefIiEEbRT_:

0000000000000000 <_ZN15QBasicAtomicOpsILi4EE5derefIiEEbRT_>:
#include "mainwindow.h"
#include "ui_mainwindow.h"
#include "parser.h"

MainWindow::MainWindow(QWidget *parent) :
   0:	55                   	push   %rbp
   1:	48 89 e5             	mov    %rsp,%rbp
   4:	48 89 7d e8          	mov    %rdi,-0x18(%rbp)
   8:	48 8b 45 e8          	mov    -0x18(%rbp),%rax
   c:	48 8b 55 e8          	mov    -0x18(%rbp),%rdx
  10:	f0 83 28 01          	lock subl $0x1,(%rax)
  14:	0f 95 c2             	setne  %dl
  17:	88 55 ff             	mov    %dl,-0x1(%rbp)
  1a:	80 7d ff 00          	cmpb   $0x0,-0x1(%rbp)
  1e:	0f 95 c0             	setne  %al
    QMainWindow(parent),
    ui(new Ui::MainWindow)
  21:	5d                   	pop    %rbp
  22:	c3                   	retq   

Дизассемблирование раздела .text._ZN5QListI7QStringE7deallocEPN9QListData4DataE:

0000000000000000 <_ZN5QListI7QStringE7deallocEPN9QListData4DataE>:
#include "mainwindow.h"
#include "ui_mainwindow.h"
#include "parser.h"

MainWindow::MainWindow(QWidget *parent) :
   0:	55                   	push   %rbp
   1:	48 89 e5             	mov    %rsp,%rbp
   4:	48 83 ec 10          	sub    $0x10,%rsp
   8:	48 89 7d f8          	mov    %rdi,-0x8(%rbp)
   c:	48 89 75 f0          	mov    %rsi,-0x10(%rbp)
  10:	48 8b 45 f0          	mov    -0x10(%rbp),%rax
  14:	48 8d 50 10          	lea    0x10(%rax),%rdx
  18:	48 8b 45 f0          	mov    -0x10(%rbp),%rax
  1c:	8b 40 0c             	mov    0xc(%rax),%eax
  1f:	48 98                	cltq   
    QMainWindow(parent),
    ui(new Ui::MainWindow)
  21:	48 c1 e0 03          	shl    $0x3,%rax
  25:	48 01 c2             	add    %rax,%rdx
  28:	48 8b 45 f0          	mov    -0x10(%rbp),%rax
  2c:	48 8d 48 10          	lea    0x10(%rax),%rcx
  30:	48 8b 45 f0          	mov    -0x10(%rbp),%rax
  34:	8b 40 08             	mov    0x8(%rax),%eax
  37:	48 98                	cltq   
  39:	48 c1 e0 03          	shl    $0x3,%rax
  3d:	48 01 c1             	add    %rax,%rcx
  40:	48 8b 45 f8          	mov    -0x8(%rbp),%rax
  44:	48 89 ce             	mov    %rcx,%rsi
  47:	48 89 c7             	mov    %rax,%rdi
  4a:	e8 00 00 00 00       	callq  4f <_ZN5QListI7QStringE7deallocEPN9QListData4DataE+0x4f>
  4f:	48 8b 45 f0          	mov    -0x10(%rbp),%rax
  53:	48 89 c7             	mov    %rax,%rdi
  56:	e8 00 00 00 00       	callq  5b <_ZN5QListI7QStringE7deallocEPN9QListData4DataE+0x5b>
  5b:	90                   	nop
  5c:	c9                   	leaveq 
  5d:	c3                   	retq   

Дизассемблирование раздела .text._ZN5QHashI7QStringS0_E8freeDataEP9QHashData:

0000000000000000 <_ZN5QHashI7QStringS0_E8freeDataEP9QHashData>:
#include "mainwindow.h"
#include "ui_mainwindow.h"
#include "parser.h"

MainWindow::MainWindow(QWidget *parent) :
   0:	55                   	push   %rbp
   1:	48 89 e5             	mov    %rsp,%rbp
   4:	48 83 ec 10          	sub    $0x10,%rsp
   8:	48 89 7d f8          	mov    %rdi,-0x8(%rbp)
   c:	48 89 75 f0          	mov    %rsi,-0x10(%rbp)
  10:	48 8b 45 f0          	mov    -0x10(%rbp),%rax
  14:	48 8b 15 00 00 00 00 	mov    0x0(%rip),%rdx        # 1b <_ZN5QHashI7QStringS0_E8freeDataEP9QHashData+0x1b>
  1b:	48 89 d6             	mov    %rdx,%rsi
  1e:	48 89 c7             	mov    %rax,%rdi
    QMainWindow(parent),
    ui(new Ui::MainWindow)
  21:	e8 00 00 00 00       	callq  26 <_ZN5QHashI7QStringS0_E8freeDataEP9QHashData+0x26>
  26:	90                   	nop
  27:	c9                   	leaveq 
  28:	c3                   	retq   

Дизассемблирование раздела .text._ZN5QHashI7QString11QStringListE8freeDataEP9QHashData:

0000000000000000 <_ZN5QHashI7QString11QStringListE8freeDataEP9QHashData>:
#include "mainwindow.h"
#include "ui_mainwindow.h"
#include "parser.h"

MainWindow::MainWindow(QWidget *parent) :
   0:	55                   	push   %rbp
   1:	48 89 e5             	mov    %rsp,%rbp
   4:	48 83 ec 10          	sub    $0x10,%rsp
   8:	48 89 7d f8          	mov    %rdi,-0x8(%rbp)
   c:	48 89 75 f0          	mov    %rsi,-0x10(%rbp)
  10:	48 8b 45 f0          	mov    -0x10(%rbp),%rax
  14:	48 8b 15 00 00 00 00 	mov    0x0(%rip),%rdx        # 1b <_ZN5QHashI7QString11QStringListE8freeDataEP9QHashData+0x1b>
  1b:	48 89 d6             	mov    %rdx,%rsi
  1e:	48 89 c7             	mov    %rax,%rdi
    QMainWindow(parent),
    ui(new Ui::MainWindow)
  21:	e8 00 00 00 00       	callq  26 <_ZN5QHashI7QString11QStringListE8freeDataEP9QHashData+0x26>
  26:	90                   	nop
  27:	c9                   	leaveq 
  28:	c3                   	retq   

Дизассемблирование раздела .text._ZN5QHashI7QString10QByteArrayE8freeDataEP9QHashData:

0000000000000000 <_ZN5QHashI7QString10QByteArrayE8freeDataEP9QHashData>:
#include "mainwindow.h"
#include "ui_mainwindow.h"
#include "parser.h"

MainWindow::MainWindow(QWidget *parent) :
   0:	55                   	push   %rbp
   1:	48 89 e5             	mov    %rsp,%rbp
   4:	48 83 ec 10          	sub    $0x10,%rsp
   8:	48 89 7d f8          	mov    %rdi,-0x8(%rbp)
   c:	48 89 75 f0          	mov    %rsi,-0x10(%rbp)
  10:	48 8b 45 f0          	mov    -0x10(%rbp),%rax
  14:	48 8b 15 00 00 00 00 	mov    0x0(%rip),%rdx        # 1b <_ZN5QHashI7QString10QByteArrayE8freeDataEP9QHashData+0x1b>
  1b:	48 89 d6             	mov    %rdx,%rsi
  1e:	48 89 c7             	mov    %rax,%rdi
    QMainWindow(parent),
    ui(new Ui::MainWindow)
  21:	e8 00 00 00 00       	callq  26 <_ZN5QHashI7QString10QByteArrayE8freeDataEP9QHashData+0x26>
  26:	90                   	nop
  27:	c9                   	leaveq 
  28:	c3                   	retq   

Дизассемблирование раздела .text._ZN8QMapDataI7QStringiE7destroyEv:

0000000000000000 <_ZN8QMapDataI7QStringiE7destroyEv>:
#include "mainwindow.h"
#include "ui_mainwindow.h"
#include "parser.h"

MainWindow::MainWindow(QWidget *parent) :
   0:	55                   	push   %rbp
   1:	48 89 e5             	mov    %rsp,%rbp
   4:	48 83 ec 10          	sub    $0x10,%rsp
   8:	48 89 7d f8          	mov    %rdi,-0x8(%rbp)
   c:	48 8b 45 f8          	mov    -0x8(%rbp),%rax
  10:	48 89 c7             	mov    %rax,%rdi
  13:	e8 00 00 00 00       	callq  18 <_ZN8QMapDataI7QStringiE7destroyEv+0x18>
  18:	48 85 c0             	test   %rax,%rax
  1b:	0f 95 c0             	setne  %al
  1e:	84 c0                	test   %al,%al
    QMainWindow(parent),
    ui(new Ui::MainWindow)
  20:	74 30                	je     52 <_ZN8QMapDataI7QStringiE7destroyEv+0x52>
  22:	48 8b 45 f8          	mov    -0x8(%rbp),%rax
  26:	48 89 c7             	mov    %rax,%rdi
  29:	e8 00 00 00 00       	callq  2e <_ZN8QMapDataI7QStringiE7destroyEv+0x2e>
  2e:	48 89 c7             	mov    %rax,%rdi
  31:	e8 00 00 00 00       	callq  36 <_ZN8QMapDataI7QStringiE7destroyEv+0x36>
  36:	48 8b 45 f8          	mov    -0x8(%rbp),%rax
  3a:	48 8b 48 10          	mov    0x10(%rax),%rcx
  3e:	48 8b 45 f8          	mov    -0x8(%rbp),%rax
  42:	ba 08 00 00 00       	mov    $0x8,%edx
  47:	48 89 ce             	mov    %rcx,%rsi
  4a:	48 89 c7             	mov    %rax,%rdi
  4d:	e8 00 00 00 00       	callq  52 <_ZN8QMapDataI7QStringiE7destroyEv+0x52>
  52:	48 8b 45 f8          	mov    -0x8(%rbp),%rax
  56:	48 89 c7             	mov    %rax,%rdi
  59:	e8 00 00 00 00       	callq  5e <_ZN8QMapDataI7QStringiE7destroyEv+0x5e>
  5e:	90                   	nop
  5f:	c9                   	leaveq 
  60:	c3                   	retq   

Дизассемблирование раздела .text._ZN5QListI7QStringE13node_destructEPNS1_4NodeES3_:

0000000000000000 <_ZN5QListI7QStringE13node_destructEPNS1_4NodeES3_>:
#include "mainwindow.h"
#include "ui_mainwindow.h"
#include "parser.h"

MainWindow::MainWindow(QWidget *parent) :
   0:	55                   	push   %rbp
   1:	48 89 e5             	mov    %rsp,%rbp
   4:	48 83 ec 20          	sub    $0x20,%rsp
   8:	48 89 7d f8          	mov    %rdi,-0x8(%rbp)
   c:	48 89 75 f0          	mov    %rsi,-0x10(%rbp)
  10:	48 89 55 e8          	mov    %rdx,-0x18(%rbp)
  14:	48 8b 45 f0          	mov    -0x10(%rbp),%rax
  18:	48 3b 45 e8          	cmp    -0x18(%rbp),%rax
  1c:	74 13                	je     31 <_ZN5QListI7QStringE13node_destructEPNS1_4NodeES3_+0x31>
  1e:	48 83 6d e8 08       	subq   $0x8,-0x18(%rbp)
    QMainWindow(parent),
    ui(new Ui::MainWindow)
  23:	48 8b 45 e8          	mov    -0x18(%rbp),%rax
  27:	48 89 c7             	mov    %rax,%rdi
  2a:	e8 00 00 00 00       	callq  2f <_ZN5QListI7QStringE13node_destructEPNS1_4NodeES3_+0x2f>
  2f:	eb e3                	jmp    14 <_ZN5QListI7QStringE13node_destructEPNS1_4NodeES3_+0x14>
  31:	90                   	nop
  32:	c9                   	leaveq 
  33:	c3                   	retq   

Дизассемблирование раздела .text._ZN9QHashNodeI7QStringS0_ED2Ev:

0000000000000000 <_ZN9QHashNodeI7QStringS0_ED1Ev>:
#include "mainwindow.h"
#include "ui_mainwindow.h"
#include "parser.h"

MainWindow::MainWindow(QWidget *parent) :
   0:	55                   	push   %rbp
   1:	48 89 e5             	mov    %rsp,%rbp
   4:	53                   	push   %rbx
   5:	48 83 ec 18          	sub    $0x18,%rsp
   9:	48 89 7d e8          	mov    %rdi,-0x18(%rbp)
   d:	48 8b 45 e8          	mov    -0x18(%rbp),%rax
  11:	48 83 c0 18          	add    $0x18,%rax
  15:	48 89 c7             	mov    %rax,%rdi
  18:	e8 00 00 00 00       	callq  1d <_ZN9QHashNodeI7QStringS0_ED1Ev+0x1d>
  1d:	48 8b 45 e8          	mov    -0x18(%rbp),%rax
    QMainWindow(parent),
    ui(new Ui::MainWindow)
  21:	48 83 c0 10          	add    $0x10,%rax
  25:	48 89 c7             	mov    %rax,%rdi
  28:	e8 00 00 00 00       	callq  2d <_ZN9QHashNodeI7QStringS0_ED1Ev+0x2d>
  2d:	eb 1e                	jmp    4d <_ZN9QHashNodeI7QStringS0_ED1Ev+0x4d>
  2f:	48 89 c3             	mov    %rax,%rbx
  32:	48 8b 45 e8          	mov    -0x18(%rbp),%rax
  36:	48 83 c0 10          	add    $0x10,%rax
  3a:	48 89 c7             	mov    %rax,%rdi
  3d:	e8 00 00 00 00       	callq  42 <_ZN9QHashNodeI7QStringS0_ED1Ev+0x42>
  42:	48 89 d8             	mov    %rbx,%rax
  45:	48 89 c7             	mov    %rax,%rdi
  48:	e8 00 00 00 00       	callq  4d <_ZN9QHashNodeI7QStringS0_ED1Ev+0x4d>
  4d:	48 83 c4 18          	add    $0x18,%rsp
  51:	5b                   	pop    %rbx
  52:	5d                   	pop    %rbp
  53:	c3                   	retq   

Дизассемблирование раздела .text._ZN5QHashI7QStringS0_E11deleteNode2EPN9QHashData4NodeE:

0000000000000000 <_ZN5QHashI7QStringS0_E11deleteNode2EPN9QHashData4NodeE>:
#include "mainwindow.h"
#include "ui_mainwindow.h"
#include "parser.h"

MainWindow::MainWindow(QWidget *parent) :
   0:	55                   	push   %rbp
   1:	48 89 e5             	mov    %rsp,%rbp
   4:	48 83 ec 10          	sub    $0x10,%rsp
   8:	48 89 7d f8          	mov    %rdi,-0x8(%rbp)
   c:	48 8b 45 f8          	mov    -0x8(%rbp),%rax
  10:	48 89 c7             	mov    %rax,%rdi
  13:	e8 00 00 00 00       	callq  18 <_ZN5QHashI7QStringS0_E11deleteNode2EPN9QHashData4NodeE+0x18>
  18:	48 89 c7             	mov    %rax,%rdi
  1b:	e8 00 00 00 00       	callq  20 <_ZN5QHashI7QStringS0_E11deleteNode2EPN9QHashData4NodeE+0x20>
    QMainWindow(parent),
    ui(new Ui::MainWindow)
  20:	90                   	nop
  21:	c9                   	leaveq 
  22:	c3                   	retq   

Дизассемблирование раздела .text._ZN9QHashNodeI7QString11QStringListED2Ev:

0000000000000000 <_ZN9QHashNodeI7QString11QStringListED1Ev>:
#include "mainwindow.h"
#include "ui_mainwindow.h"
#include "parser.h"

MainWindow::MainWindow(QWidget *parent) :
   0:	55                   	push   %rbp
   1:	48 89 e5             	mov    %rsp,%rbp
   4:	53                   	push   %rbx
   5:	48 83 ec 18          	sub    $0x18,%rsp
   9:	48 89 7d e8          	mov    %rdi,-0x18(%rbp)
   d:	48 8b 45 e8          	mov    -0x18(%rbp),%rax
  11:	48 83 c0 18          	add    $0x18,%rax
  15:	48 89 c7             	mov    %rax,%rdi
  18:	e8 00 00 00 00       	callq  1d <_ZN9QHashNodeI7QString11QStringListED1Ev+0x1d>
  1d:	48 8b 45 e8          	mov    -0x18(%rbp),%rax
    QMainWindow(parent),
    ui(new Ui::MainWindow)
  21:	48 83 c0 10          	add    $0x10,%rax
  25:	48 89 c7             	mov    %rax,%rdi
  28:	e8 00 00 00 00       	callq  2d <_ZN9QHashNodeI7QString11QStringListED1Ev+0x2d>
  2d:	eb 1e                	jmp    4d <_ZN9QHashNodeI7QString11QStringListED1Ev+0x4d>
  2f:	48 89 c3             	mov    %rax,%rbx
  32:	48 8b 45 e8          	mov    -0x18(%rbp),%rax
  36:	48 83 c0 10          	add    $0x10,%rax
  3a:	48 89 c7             	mov    %rax,%rdi
  3d:	e8 00 00 00 00       	callq  42 <_ZN9QHashNodeI7QString11QStringListED1Ev+0x42>
  42:	48 89 d8             	mov    %rbx,%rax
  45:	48 89 c7             	mov    %rax,%rdi
  48:	e8 00 00 00 00       	callq  4d <_ZN9QHashNodeI7QString11QStringListED1Ev+0x4d>
  4d:	48 83 c4 18          	add    $0x18,%rsp
  51:	5b                   	pop    %rbx
  52:	5d                   	pop    %rbp
  53:	c3                   	retq   

Дизассемблирование раздела .text._ZN5QHashI7QString11QStringListE11deleteNode2EPN9QHashData4NodeE:

0000000000000000 <_ZN5QHashI7QString11QStringListE11deleteNode2EPN9QHashData4NodeE>:
#include "mainwindow.h"
#include "ui_mainwindow.h"
#include "parser.h"

MainWindow::MainWindow(QWidget *parent) :
   0:	55                   	push   %rbp
   1:	48 89 e5             	mov    %rsp,%rbp
   4:	48 83 ec 10          	sub    $0x10,%rsp
   8:	48 89 7d f8          	mov    %rdi,-0x8(%rbp)
   c:	48 8b 45 f8          	mov    -0x8(%rbp),%rax
  10:	48 89 c7             	mov    %rax,%rdi
  13:	e8 00 00 00 00       	callq  18 <_ZN5QHashI7QString11QStringListE11deleteNode2EPN9QHashData4NodeE+0x18>
  18:	48 89 c7             	mov    %rax,%rdi
  1b:	e8 00 00 00 00       	callq  20 <_ZN5QHashI7QString11QStringListE11deleteNode2EPN9QHashData4NodeE+0x20>
    QMainWindow(parent),
    ui(new Ui::MainWindow)
  20:	90                   	nop
  21:	c9                   	leaveq 
  22:	c3                   	retq   

Дизассемблирование раздела .text._ZN9QHashNodeI7QString10QByteArrayED2Ev:

0000000000000000 <_ZN9QHashNodeI7QString10QByteArrayED1Ev>:
#include "mainwindow.h"
#include "ui_mainwindow.h"
#include "parser.h"

MainWindow::MainWindow(QWidget *parent) :
   0:	55                   	push   %rbp
   1:	48 89 e5             	mov    %rsp,%rbp
   4:	53                   	push   %rbx
   5:	48 83 ec 18          	sub    $0x18,%rsp
   9:	48 89 7d e8          	mov    %rdi,-0x18(%rbp)
   d:	48 8b 45 e8          	mov    -0x18(%rbp),%rax
  11:	48 83 c0 18          	add    $0x18,%rax
  15:	48 89 c7             	mov    %rax,%rdi
  18:	e8 00 00 00 00       	callq  1d <_ZN9QHashNodeI7QString10QByteArrayED1Ev+0x1d>
  1d:	48 8b 45 e8          	mov    -0x18(%rbp),%rax
    QMainWindow(parent),
    ui(new Ui::MainWindow)
  21:	48 83 c0 10          	add    $0x10,%rax
  25:	48 89 c7             	mov    %rax,%rdi
  28:	e8 00 00 00 00       	callq  2d <_ZN9QHashNodeI7QString10QByteArrayED1Ev+0x2d>
  2d:	eb 1e                	jmp    4d <_ZN9QHashNodeI7QString10QByteArrayED1Ev+0x4d>
  2f:	48 89 c3             	mov    %rax,%rbx
  32:	48 8b 45 e8          	mov    -0x18(%rbp),%rax
  36:	48 83 c0 10          	add    $0x10,%rax
  3a:	48 89 c7             	mov    %rax,%rdi
  3d:	e8 00 00 00 00       	callq  42 <_ZN9QHashNodeI7QString10QByteArrayED1Ev+0x42>
  42:	48 89 d8             	mov    %rbx,%rax
  45:	48 89 c7             	mov    %rax,%rdi
  48:	e8 00 00 00 00       	callq  4d <_ZN9QHashNodeI7QString10QByteArrayED1Ev+0x4d>
  4d:	48 83 c4 18          	add    $0x18,%rsp
  51:	5b                   	pop    %rbx
  52:	5d                   	pop    %rbp
  53:	c3                   	retq   

Дизассемблирование раздела .text._ZN5QHashI7QString10QByteArrayE11deleteNode2EPN9QHashData4NodeE:

0000000000000000 <_ZN5QHashI7QString10QByteArrayE11deleteNode2EPN9QHashData4NodeE>:
#include "mainwindow.h"
#include "ui_mainwindow.h"
#include "parser.h"

MainWindow::MainWindow(QWidget *parent) :
   0:	55                   	push   %rbp
   1:	48 89 e5             	mov    %rsp,%rbp
   4:	48 83 ec 10          	sub    $0x10,%rsp
   8:	48 89 7d f8          	mov    %rdi,-0x8(%rbp)
   c:	48 8b 45 f8          	mov    -0x8(%rbp),%rax
  10:	48 89 c7             	mov    %rax,%rdi
  13:	e8 00 00 00 00       	callq  18 <_ZN5QHashI7QString10QByteArrayE11deleteNode2EPN9QHashData4NodeE+0x18>
  18:	48 89 c7             	mov    %rax,%rdi
  1b:	e8 00 00 00 00       	callq  20 <_ZN5QHashI7QString10QByteArrayE11deleteNode2EPN9QHashData4NodeE+0x20>
    QMainWindow(parent),
    ui(new Ui::MainWindow)
  20:	90                   	nop
  21:	c9                   	leaveq 
  22:	c3                   	retq   

Дизассемблирование раздела .text._ZNK8QMapDataI7QStringiE4rootEv:

0000000000000000 <_ZNK8QMapDataI7QStringiE4rootEv>:
#include "mainwindow.h"
#include "ui_mainwindow.h"
#include "parser.h"

MainWindow::MainWindow(QWidget *parent) :
   0:	55                   	push   %rbp
   1:	48 89 e5             	mov    %rsp,%rbp
   4:	48 89 7d f8          	mov    %rdi,-0x8(%rbp)
   8:	48 8b 45 f8          	mov    -0x8(%rbp),%rax
   c:	48 8b 40 10          	mov    0x10(%rax),%rax
  10:	5d                   	pop    %rbp
  11:	c3                   	retq   

Дизассемблирование раздела .text._ZN8QMapNodeI7QStringiE14destroySubTreeEv:

0000000000000000 <_ZN8QMapNodeI7QStringiE14destroySubTreeEv>:
   0:	55                   	push   %rbp
   1:	48 89 e5             	mov    %rsp,%rbp
   4:	48 83 ec 10          	sub    $0x10,%rsp
   8:	48 89 7d f8          	mov    %rdi,-0x8(%rbp)
   c:	48 8b 45 f8          	mov    -0x8(%rbp),%rax
  10:	48 83 c0 18          	add    $0x18,%rax
  14:	48 89 c7             	mov    %rax,%rdi
  17:	e8 00 00 00 00       	callq  1c <_ZN8QMapNodeI7QStringiE14destroySubTreeEv+0x1c>
  1c:	48 8b 45 f8          	mov    -0x8(%rbp),%rax
    QMainWindow(parent),
    ui(new Ui::MainWindow)
  20:	48 8b 40 08          	mov    0x8(%rax),%rax
  24:	48 85 c0             	test   %rax,%rax
  27:	74 14                	je     3d <_ZN8QMapNodeI7QStringiE14destroySubTreeEv+0x3d>
  29:	48 8b 45 f8          	mov    -0x8(%rbp),%rax
  2d:	48 89 c7             	mov    %rax,%rdi
  30:	e8 00 00 00 00       	callq  35 <_ZN8QMapNodeI7QStringiE14destroySubTreeEv+0x35>
  35:	48 89 c7             	mov    %rax,%rdi
  38:	e8 00 00 00 00       	callq  3d <_ZN8QMapNodeI7QStringiE14destroySubTreeEv+0x3d>
  3d:	48 8b 45 f8          	mov    -0x8(%rbp),%rax
  41:	48 8b 40 10          	mov    0x10(%rax),%rax
  45:	48 85 c0             	test   %rax,%rax
  48:	74 14                	je     5e <_ZN8QMapNodeI7QStringiE14destroySubTreeEv+0x5e>
  4a:	48 8b 45 f8          	mov    -0x8(%rbp),%rax
  4e:	48 89 c7             	mov    %rax,%rdi
  51:	e8 00 00 00 00       	callq  56 <_ZN8QMapNodeI7QStringiE14destroySubTreeEv+0x56>
  56:	48 89 c7             	mov    %rax,%rdi
  59:	e8 00 00 00 00       	callq  5e <_ZN8QMapNodeI7QStringiE14destroySubTreeEv+0x5e>
  5e:	90                   	nop
  5f:	c9                   	leaveq 
  60:	c3                   	retq   

Дизассемблирование раздела .text._ZN5QHashI7QStringS0_E8concreteEPN9QHashData4NodeE:

0000000000000000 <_ZN5QHashI7QStringS0_E8concreteEPN9QHashData4NodeE>:
#include "mainwindow.h"
#include "ui_mainwindow.h"
#include "parser.h"

MainWindow::MainWindow(QWidget *parent) :
   0:	55                   	push   %rbp
   1:	48 89 e5             	mov    %rsp,%rbp
   4:	48 89 7d f8          	mov    %rdi,-0x8(%rbp)
   8:	48 8b 45 f8          	mov    -0x8(%rbp),%rax
   c:	5d                   	pop    %rbp
   d:	c3                   	retq   

Дизассемблирование раздела .text._ZN5QHashI7QString11QStringListE8concreteEPN9QHashData4NodeE:

0000000000000000 <_ZN5QHashI7QString11QStringListE8concreteEPN9QHashData4NodeE>:
   0:	55                   	push   %rbp
   1:	48 89 e5             	mov    %rsp,%rbp
   4:	48 89 7d f8          	mov    %rdi,-0x8(%rbp)
   8:	48 8b 45 f8          	mov    -0x8(%rbp),%rax
   c:	5d                   	pop    %rbp
   d:	c3                   	retq   

Дизассемблирование раздела .text._ZN5QHashI7QString10QByteArrayE8concreteEPN9QHashData4NodeE:

0000000000000000 <_ZN5QHashI7QString10QByteArrayE8concreteEPN9QHashData4NodeE>:
   0:	55                   	push   %rbp
   1:	48 89 e5             	mov    %rsp,%rbp
   4:	48 89 7d f8          	mov    %rdi,-0x8(%rbp)
   8:	48 8b 45 f8          	mov    -0x8(%rbp),%rax
   c:	5d                   	pop    %rbp
   d:	c3                   	retq   

Дизассемблирование раздела .text._ZNK8QMapNodeI7QStringiE8leftNodeEv:

0000000000000000 <_ZNK8QMapNodeI7QStringiE8leftNodeEv>:
   0:	55                   	push   %rbp
   1:	48 89 e5             	mov    %rsp,%rbp
   4:	48 89 7d f8          	mov    %rdi,-0x8(%rbp)
   8:	48 8b 45 f8          	mov    -0x8(%rbp),%rax
   c:	48 8b 40 08          	mov    0x8(%rax),%rax
  10:	5d                   	pop    %rbp
  11:	c3                   	retq   

Дизассемблирование раздела .text._ZNK8QMapNodeI7QStringiE9rightNodeEv:

0000000000000000 <_ZNK8QMapNodeI7QStringiE9rightNodeEv>:
   0:	55                   	push   %rbp
   1:	48 89 e5             	mov    %rsp,%rbp
   4:	48 89 7d f8          	mov    %rdi,-0x8(%rbp)
   8:	48 8b 45 f8          	mov    -0x8(%rbp),%rax
   c:	48 8b 40 10          	mov    0x10(%rax),%rax
  10:	5d                   	pop    %rbp
  11:	c3                   	retq   
