
main.o:     формат файла elf64-x86-64

Разделы:
Инд Имя           Размер    VMA               LMA               Файл      Вырав
  0 .group        00000008  0000000000000000  0000000000000000  00000040  2**2
                  CONTENTS, READONLY, EXCLUDE, GROUP, LINK_ONCE_DISCARD
  1 .group        00000008  0000000000000000  0000000000000000  00000048  2**2
                  CONTENTS, READONLY, EXCLUDE, GROUP, LINK_ONCE_DISCARD
  2 .group        00000008  0000000000000000  0000000000000000  00000050  2**2
                  CONTENTS, READONLY, EXCLUDE, GROUP, LINK_ONCE_DISCARD
  3 .group        00000008  0000000000000000  0000000000000000  00000058  2**2
                  CONTENTS, READONLY, EXCLUDE, GROUP, LINK_ONCE_DISCARD
  4 .group        00000008  0000000000000000  0000000000000000  00000060  2**2
                  CONTENTS, READONLY, EXCLUDE, GROUP, LINK_ONCE_DISCARD
  5 .group        00000008  0000000000000000  0000000000000000  00000068  2**2
                  CONTENTS, READONLY, EXCLUDE, GROUP, LINK_ONCE_DISCARD
  6 .group        00000008  0000000000000000  0000000000000000  00000070  2**2
                  CONTENTS, READONLY, EXCLUDE, GROUP, LINK_ONCE_DISCARD
  7 .group        00000008  0000000000000000  0000000000000000  00000078  2**2
                  CONTENTS, READONLY, EXCLUDE, GROUP, LINK_ONCE_DISCARD
  8 .group        00000008  0000000000000000  0000000000000000  00000080  2**2
                  CONTENTS, READONLY, EXCLUDE, GROUP, LINK_ONCE_DISCARD
  9 .group        00000008  0000000000000000  0000000000000000  00000088  2**2
                  CONTENTS, READONLY, EXCLUDE, GROUP, LINK_ONCE_DISCARD
 10 .group        00000008  0000000000000000  0000000000000000  00000090  2**2
                  CONTENTS, READONLY, EXCLUDE, GROUP, LINK_ONCE_DISCARD
 11 .group        00000008  0000000000000000  0000000000000000  00000098  2**2
                  CONTENTS, READONLY, EXCLUDE, GROUP, LINK_ONCE_DISCARD
 12 .group        00000008  0000000000000000  0000000000000000  000000a0  2**2
                  CONTENTS, READONLY, EXCLUDE, GROUP, LINK_ONCE_DISCARD
 13 .group        00000008  0000000000000000  0000000000000000  000000a8  2**2
                  CONTENTS, READONLY, EXCLUDE, GROUP, LINK_ONCE_DISCARD
 14 .group        00000008  0000000000000000  0000000000000000  000000b0  2**2
                  CONTENTS, READONLY, EXCLUDE, GROUP, LINK_ONCE_DISCARD
 15 .group        00000008  0000000000000000  0000000000000000  000000b8  2**2
                  CONTENTS, READONLY, EXCLUDE, GROUP, LINK_ONCE_DISCARD
 16 .group        00000008  0000000000000000  0000000000000000  000000c0  2**2
                  CONTENTS, READONLY, EXCLUDE, GROUP, LINK_ONCE_DISCARD
 17 .group        00000008  0000000000000000  0000000000000000  000000c8  2**2
                  CONTENTS, READONLY, EXCLUDE, GROUP, LINK_ONCE_DISCARD
 18 .group        00000008  0000000000000000  0000000000000000  000000d0  2**2
                  CONTENTS, READONLY, EXCLUDE, GROUP, LINK_ONCE_DISCARD
 19 .group        00000008  0000000000000000  0000000000000000  000000d8  2**2
                  CONTENTS, READONLY, EXCLUDE, GROUP, LINK_ONCE_DISCARD
 20 .group        00000008  0000000000000000  0000000000000000  000000e0  2**2
                  CONTENTS, READONLY, EXCLUDE, GROUP, LINK_ONCE_DISCARD
 21 .group        00000008  0000000000000000  0000000000000000  000000e8  2**2
                  CONTENTS, READONLY, EXCLUDE, GROUP, LINK_ONCE_DISCARD
 22 .group        00000008  0000000000000000  0000000000000000  000000f0  2**2
                  CONTENTS, READONLY, EXCLUDE, GROUP, LINK_ONCE_DISCARD
 23 .group        00000008  0000000000000000  0000000000000000  000000f8  2**2
                  CONTENTS, READONLY, EXCLUDE, GROUP, LINK_ONCE_DISCARD
 24 .group        00000008  0000000000000000  0000000000000000  00000100  2**2
                  CONTENTS, READONLY, EXCLUDE, GROUP, LINK_ONCE_DISCARD
 25 .group        00000008  0000000000000000  0000000000000000  00000108  2**2
                  CONTENTS, READONLY, EXCLUDE, GROUP, LINK_ONCE_DISCARD
 26 .group        00000008  0000000000000000  0000000000000000  00000110  2**2
                  CONTENTS, READONLY, EXCLUDE, GROUP, LINK_ONCE_DISCARD
 27 .group        00000008  0000000000000000  0000000000000000  00000118  2**2
                  CONTENTS, READONLY, EXCLUDE, GROUP, LINK_ONCE_DISCARD
 28 .group        00000008  0000000000000000  0000000000000000  00000120  2**2
                  CONTENTS, READONLY, EXCLUDE, GROUP, LINK_ONCE_DISCARD
 29 .group        00000008  0000000000000000  0000000000000000  00000128  2**2
                  CONTENTS, READONLY, EXCLUDE, GROUP, LINK_ONCE_DISCARD
 30 .group        00000008  0000000000000000  0000000000000000  00000130  2**2
                  CONTENTS, READONLY, EXCLUDE, GROUP, LINK_ONCE_DISCARD
 31 .group        00000008  0000000000000000  0000000000000000  00000138  2**2
                  CONTENTS, READONLY, EXCLUDE, GROUP, LINK_ONCE_DISCARD
 32 .group        00000008  0000000000000000  0000000000000000  00000140  2**2
                  CONTENTS, READONLY, EXCLUDE, GROUP, LINK_ONCE_DISCARD
 33 .group        00000008  0000000000000000  0000000000000000  00000148  2**2
                  CONTENTS, READONLY, EXCLUDE, GROUP, LINK_ONCE_DISCARD
 34 .group        00000008  0000000000000000  0000000000000000  00000150  2**2
                  CONTENTS, READONLY, EXCLUDE, GROUP, LINK_ONCE_DISCARD
 35 .group        00000008  0000000000000000  0000000000000000  00000158  2**2
                  CONTENTS, READONLY, EXCLUDE, GROUP, LINK_ONCE_DISCARD
 36 .group        00000008  0000000000000000  0000000000000000  00000160  2**2
                  CONTENTS, READONLY, EXCLUDE, GROUP, LINK_ONCE_DISCARD
 37 .group        00000008  0000000000000000  0000000000000000  00000168  2**2
                  CONTENTS, READONLY, EXCLUDE, GROUP, LINK_ONCE_DISCARD
 38 .group        00000008  0000000000000000  0000000000000000  00000170  2**2
                  CONTENTS, READONLY, EXCLUDE, GROUP, LINK_ONCE_DISCARD
 39 .group        00000008  0000000000000000  0000000000000000  00000178  2**2
                  CONTENTS, READONLY, EXCLUDE, GROUP, LINK_ONCE_DISCARD
 40 .group        00000008  0000000000000000  0000000000000000  00000180  2**2
                  CONTENTS, READONLY, EXCLUDE, GROUP, LINK_ONCE_DISCARD
 41 .group        00000008  0000000000000000  0000000000000000  00000188  2**2
                  CONTENTS, READONLY, EXCLUDE, GROUP, LINK_ONCE_DISCARD
 42 .group        00000008  0000000000000000  0000000000000000  00000190  2**2
                  CONTENTS, READONLY, EXCLUDE, GROUP, LINK_ONCE_DISCARD
 43 .group        00000008  0000000000000000  0000000000000000  00000198  2**2
                  CONTENTS, READONLY, EXCLUDE, GROUP, LINK_ONCE_DISCARD
 44 .group        00000008  0000000000000000  0000000000000000  000001a0  2**2
                  CONTENTS, READONLY, EXCLUDE, GROUP, LINK_ONCE_DISCARD
 45 .group        00000008  0000000000000000  0000000000000000  000001a8  2**2
                  CONTENTS, READONLY, EXCLUDE, GROUP, LINK_ONCE_DISCARD
 46 .group        00000008  0000000000000000  0000000000000000  000001b0  2**2
                  CONTENTS, READONLY, EXCLUDE, GROUP, LINK_ONCE_DISCARD
 47 .group        00000008  0000000000000000  0000000000000000  000001b8  2**2
                  CONTENTS, READONLY, EXCLUDE, GROUP, LINK_ONCE_DISCARD
 48 .group        00000008  0000000000000000  0000000000000000  000001c0  2**2
                  CONTENTS, READONLY, EXCLUDE, GROUP, LINK_ONCE_DISCARD
 49 .group        00000008  0000000000000000  0000000000000000  000001c8  2**2
                  CONTENTS, READONLY, EXCLUDE, GROUP, LINK_ONCE_DISCARD
 50 .group        00000008  0000000000000000  0000000000000000  000001d0  2**2
                  CONTENTS, READONLY, EXCLUDE, GROUP, LINK_ONCE_DISCARD
 51 .group        00000008  0000000000000000  0000000000000000  000001d8  2**2
                  CONTENTS, READONLY, EXCLUDE, GROUP, LINK_ONCE_DISCARD
 52 .group        00000008  0000000000000000  0000000000000000  000001e0  2**2
                  CONTENTS, READONLY, EXCLUDE, GROUP, LINK_ONCE_DISCARD
 53 .group        00000008  0000000000000000  0000000000000000  000001e8  2**2
                  CONTENTS, READONLY, EXCLUDE, GROUP, LINK_ONCE_DISCARD
 54 .group        00000008  0000000000000000  0000000000000000  000001f0  2**2
                  CONTENTS, READONLY, EXCLUDE, GROUP, LINK_ONCE_DISCARD
 55 .group        00000008  0000000000000000  0000000000000000  000001f8  2**2
                  CONTENTS, READONLY, EXCLUDE, GROUP, LINK_ONCE_DISCARD
 56 .group        00000008  0000000000000000  0000000000000000  00000200  2**2
                  CONTENTS, READONLY, EXCLUDE, GROUP, LINK_ONCE_DISCARD
 57 .group        00000008  0000000000000000  0000000000000000  00000208  2**2
                  CONTENTS, READONLY, EXCLUDE, GROUP, LINK_ONCE_DISCARD
 58 .group        00000008  0000000000000000  0000000000000000  00000210  2**2
                  CONTENTS, READONLY, EXCLUDE, GROUP, LINK_ONCE_DISCARD
 59 .group        00000008  0000000000000000  0000000000000000  00000218  2**2
                  CONTENTS, READONLY, EXCLUDE, GROUP, LINK_ONCE_DISCARD
 60 .group        00000008  0000000000000000  0000000000000000  00000220  2**2
                  CONTENTS, READONLY, EXCLUDE, GROUP, LINK_ONCE_DISCARD
 61 .group        00000008  0000000000000000  0000000000000000  00000228  2**2
                  CONTENTS, READONLY, EXCLUDE, GROUP, LINK_ONCE_DISCARD
 62 .group        00000008  0000000000000000  0000000000000000  00000230  2**2
                  CONTENTS, READONLY, EXCLUDE, GROUP, LINK_ONCE_DISCARD
 63 .group        00000008  0000000000000000  0000000000000000  00000238  2**2
                  CONTENTS, READONLY, EXCLUDE, GROUP, LINK_ONCE_DISCARD
 64 .group        00000008  0000000000000000  0000000000000000  00000240  2**2
                  CONTENTS, READONLY, EXCLUDE, GROUP, LINK_ONCE_DISCARD
 65 .group        00000008  0000000000000000  0000000000000000  00000248  2**2
                  CONTENTS, READONLY, EXCLUDE, GROUP, LINK_ONCE_DISCARD
 66 .group        00000008  0000000000000000  0000000000000000  00000250  2**2
                  CONTENTS, READONLY, EXCLUDE, GROUP, LINK_ONCE_DISCARD
 67 .group        00000008  0000000000000000  0000000000000000  00000258  2**2
                  CONTENTS, READONLY, EXCLUDE, GROUP, LINK_ONCE_DISCARD
 68 .group        00000008  0000000000000000  0000000000000000  00000260  2**2
                  CONTENTS, READONLY, EXCLUDE, GROUP, LINK_ONCE_DISCARD
 69 .group        00000008  0000000000000000  0000000000000000  00000268  2**2
                  CONTENTS, READONLY, EXCLUDE, GROUP, LINK_ONCE_DISCARD
 70 .group        00000008  0000000000000000  0000000000000000  00000270  2**2
                  CONTENTS, READONLY, EXCLUDE, GROUP, LINK_ONCE_DISCARD
 71 .group        00000008  0000000000000000  0000000000000000  00000278  2**2
                  CONTENTS, READONLY, EXCLUDE, GROUP, LINK_ONCE_DISCARD
 72 .group        00000008  0000000000000000  0000000000000000  00000280  2**2
                  CONTENTS, READONLY, EXCLUDE, GROUP, LINK_ONCE_DISCARD
 73 .group        00000008  0000000000000000  0000000000000000  00000288  2**2
                  CONTENTS, READONLY, EXCLUDE, GROUP, LINK_ONCE_DISCARD
 74 .group        00000008  0000000000000000  0000000000000000  00000290  2**2
                  CONTENTS, READONLY, EXCLUDE, GROUP, LINK_ONCE_DISCARD
 75 .group        00000008  0000000000000000  0000000000000000  00000298  2**2
                  CONTENTS, READONLY, EXCLUDE, GROUP, LINK_ONCE_DISCARD
 76 .group        00000008  0000000000000000  0000000000000000  000002a0  2**2
                  CONTENTS, READONLY, EXCLUDE, GROUP, LINK_ONCE_DISCARD
 77 .group        00000008  0000000000000000  0000000000000000  000002a8  2**2
                  CONTENTS, READONLY, EXCLUDE, GROUP, LINK_ONCE_DISCARD
 78 .group        00000008  0000000000000000  0000000000000000  000002b0  2**2
                  CONTENTS, READONLY, EXCLUDE, GROUP, LINK_ONCE_DISCARD
 79 .group        00000008  0000000000000000  0000000000000000  000002b8  2**2
                  CONTENTS, READONLY, EXCLUDE, GROUP, LINK_ONCE_DISCARD
 80 .group        00000008  0000000000000000  0000000000000000  000002c0  2**2
                  CONTENTS, READONLY, EXCLUDE, GROUP, LINK_ONCE_DISCARD
 81 .group        00000008  0000000000000000  0000000000000000  000002c8  2**2
                  CONTENTS, READONLY, EXCLUDE, GROUP, LINK_ONCE_DISCARD
 82 .group        00000008  0000000000000000  0000000000000000  000002d0  2**2
                  CONTENTS, READONLY, EXCLUDE, GROUP, LINK_ONCE_DISCARD
 83 .group        00000008  0000000000000000  0000000000000000  000002d8  2**2
                  CONTENTS, READONLY, EXCLUDE, GROUP, LINK_ONCE_DISCARD
 84 .group        00000008  0000000000000000  0000000000000000  000002e0  2**2
                  CONTENTS, READONLY, EXCLUDE, GROUP, LINK_ONCE_DISCARD
 85 .group        00000008  0000000000000000  0000000000000000  000002e8  2**2
                  CONTENTS, READONLY, EXCLUDE, GROUP, LINK_ONCE_DISCARD
 86 .group        00000008  0000000000000000  0000000000000000  000002f0  2**2
                  CONTENTS, READONLY, EXCLUDE, GROUP, LINK_ONCE_DISCARD
 87 .group        00000008  0000000000000000  0000000000000000  000002f8  2**2
                  CONTENTS, READONLY, EXCLUDE, GROUP, LINK_ONCE_DISCARD
 88 .group        00000008  0000000000000000  0000000000000000  00000300  2**2
                  CONTENTS, READONLY, EXCLUDE, GROUP, LINK_ONCE_DISCARD
 89 .group        00000008  0000000000000000  0000000000000000  00000308  2**2
                  CONTENTS, READONLY, EXCLUDE, GROUP, LINK_ONCE_DISCARD
 90 .group        00000008  0000000000000000  0000000000000000  00000310  2**2
                  CONTENTS, READONLY, EXCLUDE, GROUP, LINK_ONCE_DISCARD
 91 .group        00000008  0000000000000000  0000000000000000  00000318  2**2
                  CONTENTS, READONLY, EXCLUDE, GROUP, LINK_ONCE_DISCARD
 92 .group        00000008  0000000000000000  0000000000000000  00000320  2**2
                  CONTENTS, READONLY, EXCLUDE, GROUP, LINK_ONCE_DISCARD
 93 .group        00000008  0000000000000000  0000000000000000  00000328  2**2
                  CONTENTS, READONLY, EXCLUDE, GROUP, LINK_ONCE_DISCARD
 94 .group        00000008  0000000000000000  0000000000000000  00000330  2**2
                  CONTENTS, READONLY, EXCLUDE, GROUP, LINK_ONCE_DISCARD
 95 .group        00000008  0000000000000000  0000000000000000  00000338  2**2
                  CONTENTS, READONLY, EXCLUDE, GROUP, LINK_ONCE_DISCARD
 96 .group        00000008  0000000000000000  0000000000000000  00000340  2**2
                  CONTENTS, READONLY, EXCLUDE, GROUP, LINK_ONCE_DISCARD
 97 .group        00000008  0000000000000000  0000000000000000  00000348  2**2
                  CONTENTS, READONLY, EXCLUDE, GROUP, LINK_ONCE_DISCARD
 98 .group        00000008  0000000000000000  0000000000000000  00000350  2**2
                  CONTENTS, READONLY, EXCLUDE, GROUP, LINK_ONCE_DISCARD
 99 .group        00000008  0000000000000000  0000000000000000  00000358  2**2
                  CONTENTS, READONLY, EXCLUDE, GROUP, LINK_ONCE_DISCARD
100 .group        00000008  0000000000000000  0000000000000000  00000360  2**2
                  CONTENTS, READONLY, EXCLUDE, GROUP, LINK_ONCE_DISCARD
101 .group        00000008  0000000000000000  0000000000000000  00000368  2**2
                  CONTENTS, READONLY, EXCLUDE, GROUP, LINK_ONCE_DISCARD
102 .group        00000008  0000000000000000  0000000000000000  00000370  2**2
                  CONTENTS, READONLY, EXCLUDE, GROUP, LINK_ONCE_DISCARD
103 .group        00000008  0000000000000000  0000000000000000  00000378  2**2
                  CONTENTS, READONLY, EXCLUDE, GROUP, LINK_ONCE_DISCARD
104 .group        00000008  0000000000000000  0000000000000000  00000380  2**2
                  CONTENTS, READONLY, EXCLUDE, GROUP, LINK_ONCE_DISCARD
105 .group        00000008  0000000000000000  0000000000000000  00000388  2**2
                  CONTENTS, READONLY, EXCLUDE, GROUP, LINK_ONCE_DISCARD
106 .group        00000008  0000000000000000  0000000000000000  00000390  2**2
                  CONTENTS, READONLY, EXCLUDE, GROUP, LINK_ONCE_DISCARD
107 .group        00000008  0000000000000000  0000000000000000  00000398  2**2
                  CONTENTS, READONLY, EXCLUDE, GROUP, LINK_ONCE_DISCARD
108 .group        00000008  0000000000000000  0000000000000000  000003a0  2**2
                  CONTENTS, READONLY, EXCLUDE, GROUP, LINK_ONCE_DISCARD
109 .group        00000008  0000000000000000  0000000000000000  000003a8  2**2
                  CONTENTS, READONLY, EXCLUDE, GROUP, LINK_ONCE_DISCARD
110 .group        00000008  0000000000000000  0000000000000000  000003b0  2**2
                  CONTENTS, READONLY, EXCLUDE, GROUP, LINK_ONCE_DISCARD
111 .group        00000008  0000000000000000  0000000000000000  000003b8  2**2
                  CONTENTS, READONLY, EXCLUDE, GROUP, LINK_ONCE_DISCARD
112 .group        00000008  0000000000000000  0000000000000000  000003c0  2**2
                  CONTENTS, READONLY, EXCLUDE, GROUP, LINK_ONCE_DISCARD
113 .group        00000008  0000000000000000  0000000000000000  000003c8  2**2
                  CONTENTS, READONLY, EXCLUDE, GROUP, LINK_ONCE_DISCARD
114 .group        00000008  0000000000000000  0000000000000000  000003d0  2**2
                  CONTENTS, READONLY, EXCLUDE, GROUP, LINK_ONCE_DISCARD
115 .group        00000008  0000000000000000  0000000000000000  000003d8  2**2
                  CONTENTS, READONLY, EXCLUDE, GROUP, LINK_ONCE_DISCARD
116 .group        00000008  0000000000000000  0000000000000000  000003e0  2**2
                  CONTENTS, READONLY, EXCLUDE, GROUP, LINK_ONCE_DISCARD
117 .group        00000008  0000000000000000  0000000000000000  000003e8  2**2
                  CONTENTS, READONLY, EXCLUDE, GROUP, LINK_ONCE_DISCARD
118 .group        00000008  0000000000000000  0000000000000000  000003f0  2**2
                  CONTENTS, READONLY, EXCLUDE, GROUP, LINK_ONCE_DISCARD
119 .group        00000008  0000000000000000  0000000000000000  000003f8  2**2
                  CONTENTS, READONLY, EXCLUDE, GROUP, LINK_ONCE_DISCARD
120 .group        00000008  0000000000000000  0000000000000000  00000400  2**2
                  CONTENTS, READONLY, EXCLUDE, GROUP, LINK_ONCE_DISCARD
121 .group        00000008  0000000000000000  0000000000000000  00000408  2**2
                  CONTENTS, READONLY, EXCLUDE, GROUP, LINK_ONCE_DISCARD
122 .text         000000be  0000000000000000  0000000000000000  00000410  2**0
                  CONTENTS, ALLOC, LOAD, RELOC, READONLY, CODE
123 .data         00000000  0000000000000000  0000000000000000  000004ce  2**0
                  CONTENTS, ALLOC, LOAD, DATA
124 .bss          00000000  0000000000000000  0000000000000000  000004ce  2**0
                  ALLOC
125 .rodata       00000004  0000000000000000  0000000000000000  000004d0  2**2
                  CONTENTS, ALLOC, LOAD, READONLY, DATA
126 .gcc_except_table 00000020  0000000000000000  0000000000000000  000004d4  2**0
                  CONTENTS, ALLOC, LOAD, READONLY, DATA
127 .debug_info   000270c5  0000000000000000  0000000000000000  000004f4  2**0
                  CONTENTS, RELOC, READONLY, DEBUGGING
128 .debug_abbrev 00000986  0000000000000000  0000000000000000  000275b9  2**0
                  CONTENTS, READONLY, DEBUGGING
129 .debug_aranges 00000030  0000000000000000  0000000000000000  00027f3f  2**0
                  CONTENTS, RELOC, READONLY, DEBUGGING
130 .debug_macro  00000c2b  0000000000000000  0000000000000000  00027f6f  2**0
                  CONTENTS, RELOC, READONLY, DEBUGGING
131 .debug_macro  0000061c  0000000000000000  0000000000000000  00028b9a  2**0
                  CONTENTS, RELOC, READONLY, DEBUGGING
132 .debug_macro  00000022  0000000000000000  0000000000000000  000291b6  2**0
                  CONTENTS, RELOC, READONLY, DEBUGGING
133 .debug_macro  00000136  0000000000000000  0000000000000000  000291d8  2**0
                  CONTENTS, RELOC, READONLY, DEBUGGING
134 .debug_macro  00000010  0000000000000000  0000000000000000  0002930e  2**0
                  CONTENTS, RELOC, READONLY, DEBUGGING
135 .debug_macro  00000275  0000000000000000  0000000000000000  0002931e  2**0
                  CONTENTS, RELOC, READONLY, DEBUGGING
136 .debug_macro  0000016f  0000000000000000  0000000000000000  00029593  2**0
                  CONTENTS, RELOC, READONLY, DEBUGGING
137 .debug_macro  00000016  0000000000000000  0000000000000000  00029702  2**0
                  CONTENTS, RELOC, READONLY, DEBUGGING
138 .debug_macro  00000035  0000000000000000  0000000000000000  00029718  2**0
                  CONTENTS, RELOC, READONLY, DEBUGGING
139 .debug_macro  00000058  0000000000000000  0000000000000000  0002974d  2**0
                  CONTENTS, RELOC, READONLY, DEBUGGING
140 .debug_macro  000005b4  0000000000000000  0000000000000000  000297a5  2**0
                  CONTENTS, RELOC, READONLY, DEBUGGING
141 .debug_macro  0000016d  0000000000000000  0000000000000000  00029d59  2**0
                  CONTENTS, RELOC, READONLY, DEBUGGING
142 .debug_macro  00000016  0000000000000000  0000000000000000  00029ec6  2**0
                  CONTENTS, RELOC, READONLY, DEBUGGING
143 .debug_macro  0000009a  0000000000000000  0000000000000000  00029edc  2**0
                  CONTENTS, RELOC, READONLY, DEBUGGING
144 .debug_macro  00000016  0000000000000000  0000000000000000  00029f76  2**0
                  CONTENTS, RELOC, READONLY, DEBUGGING
145 .debug_macro  00000018  0000000000000000  0000000000000000  00029f8c  2**0
                  CONTENTS, RELOC, READONLY, DEBUGGING
146 .debug_macro  00000032  0000000000000000  0000000000000000  00029fa4  2**0
                  CONTENTS, RELOC, READONLY, DEBUGGING
147 .debug_macro  000000c0  0000000000000000  0000000000000000  00029fd6  2**0
                  CONTENTS, RELOC, READONLY, DEBUGGING
148 .debug_macro  00000028  0000000000000000  0000000000000000  0002a096  2**0
                  CONTENTS, RELOC, READONLY, DEBUGGING
149 .debug_macro  00000012  0000000000000000  0000000000000000  0002a0be  2**0
                  CONTENTS, RELOC, READONLY, DEBUGGING
150 .debug_macro  000000cf  0000000000000000  0000000000000000  0002a0d0  2**0
                  CONTENTS, RELOC, READONLY, DEBUGGING
151 .debug_macro  0000001c  0000000000000000  0000000000000000  0002a19f  2**0
                  CONTENTS, RELOC, READONLY, DEBUGGING
152 .debug_macro  00000018  0000000000000000  0000000000000000  0002a1bb  2**0
                  CONTENTS, RELOC, READONLY, DEBUGGING
153 .debug_macro  0000006e  0000000000000000  0000000000000000  0002a1d3  2**0
                  CONTENTS, RELOC, READONLY, DEBUGGING
154 .debug_macro  00000082  0000000000000000  0000000000000000  0002a241  2**0
                  CONTENTS, RELOC, READONLY, DEBUGGING
155 .debug_macro  00000012  0000000000000000  0000000000000000  0002a2c3  2**0
                  CONTENTS, RELOC, READONLY, DEBUGGING
156 .debug_macro  00000012  0000000000000000  0000000000000000  0002a2d5  2**0
                  CONTENTS, RELOC, READONLY, DEBUGGING
157 .debug_macro  00000016  0000000000000000  0000000000000000  0002a2e7  2**0
                  CONTENTS, RELOC, READONLY, DEBUGGING
158 .debug_macro  00000035  0000000000000000  0000000000000000  0002a2fd  2**0
                  CONTENTS, RELOC, READONLY, DEBUGGING
159 .debug_macro  00000052  0000000000000000  0000000000000000  0002a332  2**0
                  CONTENTS, RELOC, READONLY, DEBUGGING
160 .debug_macro  0000004c  0000000000000000  0000000000000000  0002a384  2**0
                  CONTENTS, RELOC, READONLY, DEBUGGING
161 .debug_macro  0000001c  0000000000000000  0000000000000000  0002a3d0  2**0
                  CONTENTS, RELOC, READONLY, DEBUGGING
162 .debug_macro  00000028  0000000000000000  0000000000000000  0002a3ec  2**0
                  CONTENTS, RELOC, READONLY, DEBUGGING
163 .debug_macro  0000005e  0000000000000000  0000000000000000  0002a414  2**0
                  CONTENTS, RELOC, READONLY, DEBUGGING
164 .debug_macro  000000e2  0000000000000000  0000000000000000  0002a472  2**0
                  CONTENTS, RELOC, READONLY, DEBUGGING
165 .debug_macro  00000010  0000000000000000  0000000000000000  0002a554  2**0
                  CONTENTS, RELOC, READONLY, DEBUGGING
166 .debug_macro  0000004c  0000000000000000  0000000000000000  0002a564  2**0
                  CONTENTS, RELOC, READONLY, DEBUGGING
167 .debug_macro  00000022  0000000000000000  0000000000000000  0002a5b0  2**0
                  CONTENTS, RELOC, READONLY, DEBUGGING
168 .debug_macro  00000068  0000000000000000  0000000000000000  0002a5d2  2**0
                  CONTENTS, RELOC, READONLY, DEBUGGING
169 .debug_macro  0000007f  0000000000000000  0000000000000000  0002a63a  2**0
                  CONTENTS, RELOC, READONLY, DEBUGGING
170 .debug_macro  0000003a  0000000000000000  0000000000000000  0002a6b9  2**0
                  CONTENTS, RELOC, READONLY, DEBUGGING
171 .debug_macro  00000019  0000000000000000  0000000000000000  0002a6f3  2**0
                  CONTENTS, RELOC, READONLY, DEBUGGING
172 .debug_macro  00000020  0000000000000000  0000000000000000  0002a70c  2**0
                  CONTENTS, RELOC, READONLY, DEBUGGING
173 .debug_macro  00000022  0000000000000000  0000000000000000  0002a72c  2**0
                  CONTENTS, RELOC, READONLY, DEBUGGING
174 .debug_macro  00000010  0000000000000000  0000000000000000  0002a74e  2**0
                  CONTENTS, RELOC, READONLY, DEBUGGING
175 .debug_macro  00000016  0000000000000000  0000000000000000  0002a75e  2**0
                  CONTENTS, RELOC, READONLY, DEBUGGING
176 .debug_macro  00000028  0000000000000000  0000000000000000  0002a774  2**0
                  CONTENTS, RELOC, READONLY, DEBUGGING
177 .debug_macro  00000010  0000000000000000  0000000000000000  0002a79c  2**0
                  CONTENTS, RELOC, READONLY, DEBUGGING
178 .debug_macro  00000046  0000000000000000  0000000000000000  0002a7ac  2**0
                  CONTENTS, RELOC, READONLY, DEBUGGING
179 .debug_macro  0000001c  0000000000000000  0000000000000000  0002a7f2  2**0
                  CONTENTS, RELOC, READONLY, DEBUGGING
180 .debug_macro  00000020  0000000000000000  0000000000000000  0002a80e  2**0
                  CONTENTS, RELOC, READONLY, DEBUGGING
181 .debug_macro  0000005a  0000000000000000  0000000000000000  0002a82e  2**0
                  CONTENTS, RELOC, READONLY, DEBUGGING
182 .debug_macro  00000010  0000000000000000  0000000000000000  0002a888  2**0
                  CONTENTS, RELOC, READONLY, DEBUGGING
183 .debug_macro  00000010  0000000000000000  0000000000000000  0002a898  2**0
                  CONTENTS, RELOC, READONLY, DEBUGGING
184 .debug_macro  000000e4  0000000000000000  0000000000000000  0002a8a8  2**0
                  CONTENTS, RELOC, READONLY, DEBUGGING
185 .debug_macro  0000025a  0000000000000000  0000000000000000  0002a98c  2**0
                  CONTENTS, RELOC, READONLY, DEBUGGING
186 .debug_macro  0000002d  0000000000000000  0000000000000000  0002abe6  2**0
                  CONTENTS, RELOC, READONLY, DEBUGGING
187 .debug_macro  00000016  0000000000000000  0000000000000000  0002ac13  2**0
                  CONTENTS, RELOC, READONLY, DEBUGGING
188 .debug_macro  00000050  0000000000000000  0000000000000000  0002ac29  2**0
                  CONTENTS, RELOC, READONLY, DEBUGGING
189 .debug_macro  00000019  0000000000000000  0000000000000000  0002ac79  2**0
                  CONTENTS, RELOC, READONLY, DEBUGGING
190 .debug_macro  00000011  0000000000000000  0000000000000000  0002ac92  2**0
                  CONTENTS, RELOC, READONLY, DEBUGGING
191 .debug_macro  0000014b  0000000000000000  0000000000000000  0002aca3  2**0
                  CONTENTS, RELOC, READONLY, DEBUGGING
192 .debug_macro  0000001e  0000000000000000  0000000000000000  0002adee  2**0
                  CONTENTS, RELOC, READONLY, DEBUGGING
193 .debug_macro  0000001c  0000000000000000  0000000000000000  0002ae0c  2**0
                  CONTENTS, RELOC, READONLY, DEBUGGING
194 .debug_macro  00000024  0000000000000000  0000000000000000  0002ae28  2**0
                  CONTENTS, RELOC, READONLY, DEBUGGING
195 .debug_macro  000000fc  0000000000000000  0000000000000000  0002ae4c  2**0
                  CONTENTS, RELOC, READONLY, DEBUGGING
196 .debug_macro  00000016  0000000000000000  0000000000000000  0002af48  2**0
                  CONTENTS, RELOC, READONLY, DEBUGGING
197 .debug_macro  00000018  0000000000000000  0000000000000000  0002af5e  2**0
                  CONTENTS, RELOC, READONLY, DEBUGGING
198 .debug_macro  00000019  0000000000000000  0000000000000000  0002af76  2**0
                  CONTENTS, RELOC, READONLY, DEBUGGING
199 .debug_macro  00000058  0000000000000000  0000000000000000  0002af8f  2**0
                  CONTENTS, RELOC, READONLY, DEBUGGING
200 .debug_macro  00000016  0000000000000000  0000000000000000  0002afe7  2**0
                  CONTENTS, RELOC, READONLY, DEBUGGING
201 .debug_macro  0000001c  0000000000000000  0000000000000000  0002affd  2**0
                  CONTENTS, RELOC, READONLY, DEBUGGING
202 .debug_macro  00000016  0000000000000000  0000000000000000  0002b019  2**0
                  CONTENTS, RELOC, READONLY, DEBUGGING
203 .debug_macro  00000022  0000000000000000  0000000000000000  0002b02f  2**0
                  CONTENTS, RELOC, READONLY, DEBUGGING
204 .debug_macro  00000043  0000000000000000  0000000000000000  0002b051  2**0
                  CONTENTS, RELOC, READONLY, DEBUGGING
205 .debug_macro  0000003c  0000000000000000  0000000000000000  0002b094  2**0
                  CONTENTS, RELOC, READONLY, DEBUGGING
206 .debug_macro  00000173  0000000000000000  0000000000000000  0002b0d0  2**0
                  CONTENTS, RELOC, READONLY, DEBUGGING
207 .debug_macro  00000012  0000000000000000  0000000000000000  0002b243  2**0
                  CONTENTS, RELOC, READONLY, DEBUGGING
208 .debug_macro  00000010  0000000000000000  0000000000000000  0002b255  2**0
                  CONTENTS, RELOC, READONLY, DEBUGGING
209 .debug_macro  00000058  0000000000000000  0000000000000000  0002b265  2**0
                  CONTENTS, RELOC, READONLY, DEBUGGING
210 .debug_macro  000000b4  0000000000000000  0000000000000000  0002b2bd  2**0
                  CONTENTS, RELOC, READONLY, DEBUGGING
211 .debug_macro  00000016  0000000000000000  0000000000000000  0002b371  2**0
                  CONTENTS, RELOC, READONLY, DEBUGGING
212 .debug_macro  00000010  0000000000000000  0000000000000000  0002b387  2**0
                  CONTENTS, RELOC, READONLY, DEBUGGING
213 .debug_macro  00000037  0000000000000000  0000000000000000  0002b397  2**0
                  CONTENTS, RELOC, READONLY, DEBUGGING
214 .debug_macro  00000058  0000000000000000  0000000000000000  0002b3ce  2**0
                  CONTENTS, RELOC, READONLY, DEBUGGING
215 .debug_macro  00000011  0000000000000000  0000000000000000  0002b426  2**0
                  CONTENTS, RELOC, READONLY, DEBUGGING
216 .debug_macro  00000016  0000000000000000  0000000000000000  0002b437  2**0
                  CONTENTS, RELOC, READONLY, DEBUGGING
217 .debug_macro  00000010  0000000000000000  0000000000000000  0002b44d  2**0
                  CONTENTS, RELOC, READONLY, DEBUGGING
218 .debug_macro  00000010  0000000000000000  0000000000000000  0002b45d  2**0
                  CONTENTS, RELOC, READONLY, DEBUGGING
219 .debug_macro  00000022  0000000000000000  0000000000000000  0002b46d  2**0
                  CONTENTS, RELOC, READONLY, DEBUGGING
220 .debug_macro  00000122  0000000000000000  0000000000000000  0002b48f  2**0
                  CONTENTS, RELOC, READONLY, DEBUGGING
221 .debug_macro  0000008e  0000000000000000  0000000000000000  0002b5b1  2**0
                  CONTENTS, RELOC, READONLY, DEBUGGING
222 .debug_macro  00000016  0000000000000000  0000000000000000  0002b63f  2**0
                  CONTENTS, RELOC, READONLY, DEBUGGING
223 .debug_macro  00000058  0000000000000000  0000000000000000  0002b655  2**0
                  CONTENTS, RELOC, READONLY, DEBUGGING
224 .debug_macro  000000fa  0000000000000000  0000000000000000  0002b6ad  2**0
                  CONTENTS, RELOC, READONLY, DEBUGGING
225 .debug_macro  00000030  0000000000000000  0000000000000000  0002b7a7  2**0
                  CONTENTS, RELOC, READONLY, DEBUGGING
226 .debug_macro  000000c1  0000000000000000  0000000000000000  0002b7d7  2**0
                  CONTENTS, RELOC, READONLY, DEBUGGING
227 .debug_macro  0000004d  0000000000000000  0000000000000000  0002b898  2**0
                  CONTENTS, RELOC, READONLY, DEBUGGING
228 .debug_macro  00000010  0000000000000000  0000000000000000  0002b8e5  2**0
                  CONTENTS, RELOC, READONLY, DEBUGGING
229 .debug_macro  00000019  0000000000000000  0000000000000000  0002b8f5  2**0
                  CONTENTS, RELOC, READONLY, DEBUGGING
230 .debug_macro  00000020  0000000000000000  0000000000000000  0002b90e  2**0
                  CONTENTS, RELOC, READONLY, DEBUGGING
231 .debug_macro  00000018  0000000000000000  0000000000000000  0002b92e  2**0
                  CONTENTS, RELOC, READONLY, DEBUGGING
232 .debug_macro  00000023  0000000000000000  0000000000000000  0002b946  2**0
                  CONTENTS, RELOC, READONLY, DEBUGGING
233 .debug_macro  00000010  0000000000000000  0000000000000000  0002b969  2**0
                  CONTENTS, RELOC, READONLY, DEBUGGING
234 .debug_macro  00000016  0000000000000000  0000000000000000  0002b979  2**0
                  CONTENTS, RELOC, READONLY, DEBUGGING
235 .debug_macro  00000076  0000000000000000  0000000000000000  0002b98f  2**0
                  CONTENTS, RELOC, READONLY, DEBUGGING
236 .debug_macro  00000016  0000000000000000  0000000000000000  0002ba05  2**0
                  CONTENTS, RELOC, READONLY, DEBUGGING
237 .debug_macro  00000025  0000000000000000  0000000000000000  0002ba1b  2**0
                  CONTENTS, RELOC, READONLY, DEBUGGING
238 .debug_macro  000000de  0000000000000000  0000000000000000  0002ba40  2**0
                  CONTENTS, RELOC, READONLY, DEBUGGING
239 .debug_macro  0000001c  0000000000000000  0000000000000000  0002bb1e  2**0
                  CONTENTS, RELOC, READONLY, DEBUGGING
240 .debug_macro  00000058  0000000000000000  0000000000000000  0002bb3a  2**0
                  CONTENTS, RELOC, READONLY, DEBUGGING
241 .debug_macro  00000088  0000000000000000  0000000000000000  0002bb92  2**0
                  CONTENTS, RELOC, READONLY, DEBUGGING
242 .debug_macro  00000076  0000000000000000  0000000000000000  0002bc1a  2**0
                  CONTENTS, RELOC, READONLY, DEBUGGING
243 .debug_macro  00000010  0000000000000000  0000000000000000  0002bc90  2**0
                  CONTENTS, RELOC, READONLY, DEBUGGING
244 .debug_macro  00000041  0000000000000000  0000000000000000  0002bca0  2**0
                  CONTENTS, RELOC, READONLY, DEBUGGING
245 .debug_macro  000000ee  0000000000000000  0000000000000000  0002bce1  2**0
                  CONTENTS, RELOC, READONLY, DEBUGGING
246 .debug_macro  00000010  0000000000000000  0000000000000000  0002bdcf  2**0
                  CONTENTS, RELOC, READONLY, DEBUGGING
247 .debug_macro  000000e5  0000000000000000  0000000000000000  0002bddf  2**0
                  CONTENTS, RELOC, READONLY, DEBUGGING
248 .debug_macro  00000012  0000000000000000  0000000000000000  0002bec4  2**0
                  CONTENTS, RELOC, READONLY, DEBUGGING
249 .debug_macro  0000001f  0000000000000000  0000000000000000  0002bed6  2**0
                  CONTENTS, RELOC, READONLY, DEBUGGING
250 .debug_macro  00000016  0000000000000000  0000000000000000  0002bef5  2**0
                  CONTENTS, RELOC, READONLY, DEBUGGING
251 .debug_macro  00000010  0000000000000000  0000000000000000  0002bf0b  2**0
                  CONTENTS, RELOC, READONLY, DEBUGGING
252 .debug_line   00001051  0000000000000000  0000000000000000  0002bf1b  2**0
                  CONTENTS, RELOC, READONLY, DEBUGGING
253 .debug_str    00041211  0000000000000000  0000000000000000  0002cf6c  2**0
                  CONTENTS, READONLY, DEBUGGING
254 .data.DW.ref.__gxx_personality_v0 00000008  0000000000000000  0000000000000000  0006e180  2**3
                  CONTENTS, ALLOC, LOAD, RELOC, DATA
255 .comment      0000002e  0000000000000000  0000000000000000  0006e188  2**0
                  CONTENTS, READONLY
256 .note.GNU-stack 00000000  0000000000000000  0000000000000000  0006e1b6  2**0
                  CONTENTS, READONLY
257 .eh_frame     00000048  0000000000000000  0000000000000000  0006e1b8  2**3
                  CONTENTS, ALLOC, LOAD, RELOC, READONLY, DATA

Дизассемблирование раздела .text:

0000000000000000 <main>:
#include "mainwindow.h"
#include <QApplication>

int main(int argc, char *argv[])
{
   0:	55                   	push   %rbp
   1:	48 89 e5             	mov    %rsp,%rbp
   4:	53                   	push   %rbx
   5:	48 83 ec 68          	sub    $0x68,%rsp
   9:	89 7d 9c             	mov    %edi,-0x64(%rbp)
   c:	48 89 75 90          	mov    %rsi,-0x70(%rbp)
  10:	64 48 8b 04 25 28 00 	mov    %fs:0x28,%rax
  17:	00 00 
  19:	48 89 45 e8          	mov    %rax,-0x18(%rbp)
  1d:	31 c0                	xor    %eax,%eax
    QApplication a(argc, argv);
  1f:	48 8b 55 90          	mov    -0x70(%rbp),%rdx
  23:	48 8d 75 9c          	lea    -0x64(%rbp),%rsi
  27:	48 8d 45 a0          	lea    -0x60(%rbp),%rax
  2b:	b9 01 05 05 00       	mov    $0x50501,%ecx
  30:	48 89 c7             	mov    %rax,%rdi
  33:	e8 00 00 00 00       	callq  38 <main+0x38>
    MainWindow w;
  38:	48 8d 45 b0          	lea    -0x50(%rbp),%rax
  3c:	be 00 00 00 00       	mov    $0x0,%esi
  41:	48 89 c7             	mov    %rax,%rdi
  44:	e8 00 00 00 00       	callq  49 <main+0x49>
    w.show();
  49:	48 8d 45 b0          	lea    -0x50(%rbp),%rax
  4d:	48 89 c7             	mov    %rax,%rdi
  50:	e8 00 00 00 00       	callq  55 <main+0x55>

    return a.exec();
  55:	e8 00 00 00 00       	callq  5a <main+0x5a>
  5a:	89 c3                	mov    %eax,%ebx
#include <QApplication>

int main(int argc, char *argv[])
{
    QApplication a(argc, argv);
    MainWindow w;
  5c:	48 8d 45 b0          	lea    -0x50(%rbp),%rax
  60:	48 89 c7             	mov    %rax,%rdi
  63:	e8 00 00 00 00       	callq  68 <main+0x68>
#include "mainwindow.h"
#include <QApplication>

int main(int argc, char *argv[])
{
    QApplication a(argc, argv);
  68:	48 8d 45 a0          	lea    -0x60(%rbp),%rax
  6c:	48 89 c7             	mov    %rax,%rdi
  6f:	e8 00 00 00 00       	callq  74 <main+0x74>
  74:	89 d8                	mov    %ebx,%eax
    MainWindow w;
    w.show();

    return a.exec();
}
  76:	48 8b 4d e8          	mov    -0x18(%rbp),%rcx
  7a:	64 48 33 0c 25 28 00 	xor    %fs:0x28,%rcx
  81:	00 00 
  83:	74 32                	je     b7 <main+0xb7>
  85:	eb 2b                	jmp    b2 <main+0xb2>
  87:	48 89 c3             	mov    %rax,%rbx
#include <QApplication>

int main(int argc, char *argv[])
{
    QApplication a(argc, argv);
    MainWindow w;
  8a:	48 8d 45 b0          	lea    -0x50(%rbp),%rax
  8e:	48 89 c7             	mov    %rax,%rdi
  91:	e8 00 00 00 00       	callq  96 <main+0x96>
  96:	eb 03                	jmp    9b <main+0x9b>
  98:	48 89 c3             	mov    %rax,%rbx
#include "mainwindow.h"
#include <QApplication>

int main(int argc, char *argv[])
{
    QApplication a(argc, argv);
  9b:	48 8d 45 a0          	lea    -0x60(%rbp),%rax
  9f:	48 89 c7             	mov    %rax,%rdi
  a2:	e8 00 00 00 00       	callq  a7 <main+0xa7>
  a7:	48 89 d8             	mov    %rbx,%rax
  aa:	48 89 c7             	mov    %rax,%rdi
  ad:	e8 00 00 00 00       	callq  b2 <main+0xb2>
    MainWindow w;
    w.show();

    return a.exec();
}
  b2:	e8 00 00 00 00       	callq  b7 <main+0xb7>
  b7:	48 83 c4 68          	add    $0x68,%rsp
  bb:	5b                   	pop    %rbx
  bc:	5d                   	pop    %rbp
  bd:	c3                   	retq   
