
moc_analize.o:     формат файла elf64-x86-64

Разделы:
Инд Имя           Размер    VMA               LMA               Файл      Вырав
  0 .group        00000008  0000000000000000  0000000000000000  00000040  2**2
                  CONTENTS, READONLY, EXCLUDE, GROUP, LINK_ONCE_DISCARD
  1 .group        00000008  0000000000000000  0000000000000000  00000048  2**2
                  CONTENTS, READONLY, EXCLUDE, GROUP, LINK_ONCE_DISCARD
  2 .group        00000008  0000000000000000  0000000000000000  00000050  2**2
                  CONTENTS, READONLY, EXCLUDE, GROUP, LINK_ONCE_DISCARD
  3 .group        00000008  0000000000000000  0000000000000000  00000058  2**2
                  CONTENTS, READONLY, EXCLUDE, GROUP, LINK_ONCE_DISCARD
  4 .group        00000008  0000000000000000  0000000000000000  00000060  2**2
                  CONTENTS, READONLY, EXCLUDE, GROUP, LINK_ONCE_DISCARD
  5 .group        00000008  0000000000000000  0000000000000000  00000068  2**2
                  CONTENTS, READONLY, EXCLUDE, GROUP, LINK_ONCE_DISCARD
  6 .group        00000008  0000000000000000  0000000000000000  00000070  2**2
                  CONTENTS, READONLY, EXCLUDE, GROUP, LINK_ONCE_DISCARD
  7 .group        00000008  0000000000000000  0000000000000000  00000078  2**2
                  CONTENTS, READONLY, EXCLUDE, GROUP, LINK_ONCE_DISCARD
  8 .group        00000008  0000000000000000  0000000000000000  00000080  2**2
                  CONTENTS, READONLY, EXCLUDE, GROUP, LINK_ONCE_DISCARD
  9 .group        00000008  0000000000000000  0000000000000000  00000088  2**2
                  CONTENTS, READONLY, EXCLUDE, GROUP, LINK_ONCE_DISCARD
 10 .group        00000008  0000000000000000  0000000000000000  00000090  2**2
                  CONTENTS, READONLY, EXCLUDE, GROUP, LINK_ONCE_DISCARD
 11 .group        00000008  0000000000000000  0000000000000000  00000098  2**2
                  CONTENTS, READONLY, EXCLUDE, GROUP, LINK_ONCE_DISCARD
 12 .group        00000008  0000000000000000  0000000000000000  000000a0  2**2
                  CONTENTS, READONLY, EXCLUDE, GROUP, LINK_ONCE_DISCARD
 13 .group        00000008  0000000000000000  0000000000000000  000000a8  2**2
                  CONTENTS, READONLY, EXCLUDE, GROUP, LINK_ONCE_DISCARD
 14 .group        00000008  0000000000000000  0000000000000000  000000b0  2**2
                  CONTENTS, READONLY, EXCLUDE, GROUP, LINK_ONCE_DISCARD
 15 .group        00000008  0000000000000000  0000000000000000  000000b8  2**2
                  CONTENTS, READONLY, EXCLUDE, GROUP, LINK_ONCE_DISCARD
 16 .group        00000008  0000000000000000  0000000000000000  000000c0  2**2
                  CONTENTS, READONLY, EXCLUDE, GROUP, LINK_ONCE_DISCARD
 17 .group        00000008  0000000000000000  0000000000000000  000000c8  2**2
                  CONTENTS, READONLY, EXCLUDE, GROUP, LINK_ONCE_DISCARD
 18 .group        00000008  0000000000000000  0000000000000000  000000d0  2**2
                  CONTENTS, READONLY, EXCLUDE, GROUP, LINK_ONCE_DISCARD
 19 .group        00000008  0000000000000000  0000000000000000  000000d8  2**2
                  CONTENTS, READONLY, EXCLUDE, GROUP, LINK_ONCE_DISCARD
 20 .group        00000008  0000000000000000  0000000000000000  000000e0  2**2
                  CONTENTS, READONLY, EXCLUDE, GROUP, LINK_ONCE_DISCARD
 21 .group        00000008  0000000000000000  0000000000000000  000000e8  2**2
                  CONTENTS, READONLY, EXCLUDE, GROUP, LINK_ONCE_DISCARD
 22 .group        00000008  0000000000000000  0000000000000000  000000f0  2**2
                  CONTENTS, READONLY, EXCLUDE, GROUP, LINK_ONCE_DISCARD
 23 .group        00000008  0000000000000000  0000000000000000  000000f8  2**2
                  CONTENTS, READONLY, EXCLUDE, GROUP, LINK_ONCE_DISCARD
 24 .group        00000008  0000000000000000  0000000000000000  00000100  2**2
                  CONTENTS, READONLY, EXCLUDE, GROUP, LINK_ONCE_DISCARD
 25 .group        00000008  0000000000000000  0000000000000000  00000108  2**2
                  CONTENTS, READONLY, EXCLUDE, GROUP, LINK_ONCE_DISCARD
 26 .group        00000008  0000000000000000  0000000000000000  00000110  2**2
                  CONTENTS, READONLY, EXCLUDE, GROUP, LINK_ONCE_DISCARD
 27 .group        00000008  0000000000000000  0000000000000000  00000118  2**2
                  CONTENTS, READONLY, EXCLUDE, GROUP, LINK_ONCE_DISCARD
 28 .group        00000008  0000000000000000  0000000000000000  00000120  2**2
                  CONTENTS, READONLY, EXCLUDE, GROUP, LINK_ONCE_DISCARD
 29 .group        00000008  0000000000000000  0000000000000000  00000128  2**2
                  CONTENTS, READONLY, EXCLUDE, GROUP, LINK_ONCE_DISCARD
 30 .group        00000008  0000000000000000  0000000000000000  00000130  2**2
                  CONTENTS, READONLY, EXCLUDE, GROUP, LINK_ONCE_DISCARD
 31 .group        00000008  0000000000000000  0000000000000000  00000138  2**2
                  CONTENTS, READONLY, EXCLUDE, GROUP, LINK_ONCE_DISCARD
 32 .group        00000008  0000000000000000  0000000000000000  00000140  2**2
                  CONTENTS, READONLY, EXCLUDE, GROUP, LINK_ONCE_DISCARD
 33 .group        00000008  0000000000000000  0000000000000000  00000148  2**2
                  CONTENTS, READONLY, EXCLUDE, GROUP, LINK_ONCE_DISCARD
 34 .group        00000008  0000000000000000  0000000000000000  00000150  2**2
                  CONTENTS, READONLY, EXCLUDE, GROUP, LINK_ONCE_DISCARD
 35 .group        00000008  0000000000000000  0000000000000000  00000158  2**2
                  CONTENTS, READONLY, EXCLUDE, GROUP, LINK_ONCE_DISCARD
 36 .group        00000008  0000000000000000  0000000000000000  00000160  2**2
                  CONTENTS, READONLY, EXCLUDE, GROUP, LINK_ONCE_DISCARD
 37 .group        00000008  0000000000000000  0000000000000000  00000168  2**2
                  CONTENTS, READONLY, EXCLUDE, GROUP, LINK_ONCE_DISCARD
 38 .group        00000008  0000000000000000  0000000000000000  00000170  2**2
                  CONTENTS, READONLY, EXCLUDE, GROUP, LINK_ONCE_DISCARD
 39 .group        00000008  0000000000000000  0000000000000000  00000178  2**2
                  CONTENTS, READONLY, EXCLUDE, GROUP, LINK_ONCE_DISCARD
 40 .group        00000008  0000000000000000  0000000000000000  00000180  2**2
                  CONTENTS, READONLY, EXCLUDE, GROUP, LINK_ONCE_DISCARD
 41 .group        00000008  0000000000000000  0000000000000000  00000188  2**2
                  CONTENTS, READONLY, EXCLUDE, GROUP, LINK_ONCE_DISCARD
 42 .group        00000008  0000000000000000  0000000000000000  00000190  2**2
                  CONTENTS, READONLY, EXCLUDE, GROUP, LINK_ONCE_DISCARD
 43 .group        00000008  0000000000000000  0000000000000000  00000198  2**2
                  CONTENTS, READONLY, EXCLUDE, GROUP, LINK_ONCE_DISCARD
 44 .group        00000008  0000000000000000  0000000000000000  000001a0  2**2
                  CONTENTS, READONLY, EXCLUDE, GROUP, LINK_ONCE_DISCARD
 45 .group        00000008  0000000000000000  0000000000000000  000001a8  2**2
                  CONTENTS, READONLY, EXCLUDE, GROUP, LINK_ONCE_DISCARD
 46 .group        00000008  0000000000000000  0000000000000000  000001b0  2**2
                  CONTENTS, READONLY, EXCLUDE, GROUP, LINK_ONCE_DISCARD
 47 .group        00000008  0000000000000000  0000000000000000  000001b8  2**2
                  CONTENTS, READONLY, EXCLUDE, GROUP, LINK_ONCE_DISCARD
 48 .group        00000008  0000000000000000  0000000000000000  000001c0  2**2
                  CONTENTS, READONLY, EXCLUDE, GROUP, LINK_ONCE_DISCARD
 49 .group        00000008  0000000000000000  0000000000000000  000001c8  2**2
                  CONTENTS, READONLY, EXCLUDE, GROUP, LINK_ONCE_DISCARD
 50 .group        00000008  0000000000000000  0000000000000000  000001d0  2**2
                  CONTENTS, READONLY, EXCLUDE, GROUP, LINK_ONCE_DISCARD
 51 .group        00000008  0000000000000000  0000000000000000  000001d8  2**2
                  CONTENTS, READONLY, EXCLUDE, GROUP, LINK_ONCE_DISCARD
 52 .group        00000008  0000000000000000  0000000000000000  000001e0  2**2
                  CONTENTS, READONLY, EXCLUDE, GROUP, LINK_ONCE_DISCARD
 53 .group        00000008  0000000000000000  0000000000000000  000001e8  2**2
                  CONTENTS, READONLY, EXCLUDE, GROUP, LINK_ONCE_DISCARD
 54 .group        00000008  0000000000000000  0000000000000000  000001f0  2**2
                  CONTENTS, READONLY, EXCLUDE, GROUP, LINK_ONCE_DISCARD
 55 .group        00000008  0000000000000000  0000000000000000  000001f8  2**2
                  CONTENTS, READONLY, EXCLUDE, GROUP, LINK_ONCE_DISCARD
 56 .group        00000008  0000000000000000  0000000000000000  00000200  2**2
                  CONTENTS, READONLY, EXCLUDE, GROUP, LINK_ONCE_DISCARD
 57 .group        00000008  0000000000000000  0000000000000000  00000208  2**2
                  CONTENTS, READONLY, EXCLUDE, GROUP, LINK_ONCE_DISCARD
 58 .group        00000008  0000000000000000  0000000000000000  00000210  2**2
                  CONTENTS, READONLY, EXCLUDE, GROUP, LINK_ONCE_DISCARD
 59 .group        00000008  0000000000000000  0000000000000000  00000218  2**2
                  CONTENTS, READONLY, EXCLUDE, GROUP, LINK_ONCE_DISCARD
 60 .group        00000008  0000000000000000  0000000000000000  00000220  2**2
                  CONTENTS, READONLY, EXCLUDE, GROUP, LINK_ONCE_DISCARD
 61 .group        00000008  0000000000000000  0000000000000000  00000228  2**2
                  CONTENTS, READONLY, EXCLUDE, GROUP, LINK_ONCE_DISCARD
 62 .group        00000008  0000000000000000  0000000000000000  00000230  2**2
                  CONTENTS, READONLY, EXCLUDE, GROUP, LINK_ONCE_DISCARD
 63 .group        00000008  0000000000000000  0000000000000000  00000238  2**2
                  CONTENTS, READONLY, EXCLUDE, GROUP, LINK_ONCE_DISCARD
 64 .group        00000008  0000000000000000  0000000000000000  00000240  2**2
                  CONTENTS, READONLY, EXCLUDE, GROUP, LINK_ONCE_DISCARD
 65 .group        00000008  0000000000000000  0000000000000000  00000248  2**2
                  CONTENTS, READONLY, EXCLUDE, GROUP, LINK_ONCE_DISCARD
 66 .group        00000008  0000000000000000  0000000000000000  00000250  2**2
                  CONTENTS, READONLY, EXCLUDE, GROUP, LINK_ONCE_DISCARD
 67 .group        00000008  0000000000000000  0000000000000000  00000258  2**2
                  CONTENTS, READONLY, EXCLUDE, GROUP, LINK_ONCE_DISCARD
 68 .group        00000008  0000000000000000  0000000000000000  00000260  2**2
                  CONTENTS, READONLY, EXCLUDE, GROUP, LINK_ONCE_DISCARD
 69 .group        00000008  0000000000000000  0000000000000000  00000268  2**2
                  CONTENTS, READONLY, EXCLUDE, GROUP, LINK_ONCE_DISCARD
 70 .group        00000008  0000000000000000  0000000000000000  00000270  2**2
                  CONTENTS, READONLY, EXCLUDE, GROUP, LINK_ONCE_DISCARD
 71 .group        00000008  0000000000000000  0000000000000000  00000278  2**2
                  CONTENTS, READONLY, EXCLUDE, GROUP, LINK_ONCE_DISCARD
 72 .group        00000008  0000000000000000  0000000000000000  00000280  2**2
                  CONTENTS, READONLY, EXCLUDE, GROUP, LINK_ONCE_DISCARD
 73 .group        00000008  0000000000000000  0000000000000000  00000288  2**2
                  CONTENTS, READONLY, EXCLUDE, GROUP, LINK_ONCE_DISCARD
 74 .group        00000008  0000000000000000  0000000000000000  00000290  2**2
                  CONTENTS, READONLY, EXCLUDE, GROUP, LINK_ONCE_DISCARD
 75 .group        00000008  0000000000000000  0000000000000000  00000298  2**2
                  CONTENTS, READONLY, EXCLUDE, GROUP, LINK_ONCE_DISCARD
 76 .group        00000008  0000000000000000  0000000000000000  000002a0  2**2
                  CONTENTS, READONLY, EXCLUDE, GROUP, LINK_ONCE_DISCARD
 77 .group        00000008  0000000000000000  0000000000000000  000002a8  2**2
                  CONTENTS, READONLY, EXCLUDE, GROUP, LINK_ONCE_DISCARD
 78 .group        00000008  0000000000000000  0000000000000000  000002b0  2**2
                  CONTENTS, READONLY, EXCLUDE, GROUP, LINK_ONCE_DISCARD
 79 .group        00000008  0000000000000000  0000000000000000  000002b8  2**2
                  CONTENTS, READONLY, EXCLUDE, GROUP, LINK_ONCE_DISCARD
 80 .group        00000008  0000000000000000  0000000000000000  000002c0  2**2
                  CONTENTS, READONLY, EXCLUDE, GROUP, LINK_ONCE_DISCARD
 81 .group        00000008  0000000000000000  0000000000000000  000002c8  2**2
                  CONTENTS, READONLY, EXCLUDE, GROUP, LINK_ONCE_DISCARD
 82 .group        00000008  0000000000000000  0000000000000000  000002d0  2**2
                  CONTENTS, READONLY, EXCLUDE, GROUP, LINK_ONCE_DISCARD
 83 .group        00000008  0000000000000000  0000000000000000  000002d8  2**2
                  CONTENTS, READONLY, EXCLUDE, GROUP, LINK_ONCE_DISCARD
 84 .group        00000008  0000000000000000  0000000000000000  000002e0  2**2
                  CONTENTS, READONLY, EXCLUDE, GROUP, LINK_ONCE_DISCARD
 85 .group        00000008  0000000000000000  0000000000000000  000002e8  2**2
                  CONTENTS, READONLY, EXCLUDE, GROUP, LINK_ONCE_DISCARD
 86 .group        00000008  0000000000000000  0000000000000000  000002f0  2**2
                  CONTENTS, READONLY, EXCLUDE, GROUP, LINK_ONCE_DISCARD
 87 .group        00000008  0000000000000000  0000000000000000  000002f8  2**2
                  CONTENTS, READONLY, EXCLUDE, GROUP, LINK_ONCE_DISCARD
 88 .group        00000008  0000000000000000  0000000000000000  00000300  2**2
                  CONTENTS, READONLY, EXCLUDE, GROUP, LINK_ONCE_DISCARD
 89 .group        00000008  0000000000000000  0000000000000000  00000308  2**2
                  CONTENTS, READONLY, EXCLUDE, GROUP, LINK_ONCE_DISCARD
 90 .group        00000008  0000000000000000  0000000000000000  00000310  2**2
                  CONTENTS, READONLY, EXCLUDE, GROUP, LINK_ONCE_DISCARD
 91 .group        00000008  0000000000000000  0000000000000000  00000318  2**2
                  CONTENTS, READONLY, EXCLUDE, GROUP, LINK_ONCE_DISCARD
 92 .group        00000008  0000000000000000  0000000000000000  00000320  2**2
                  CONTENTS, READONLY, EXCLUDE, GROUP, LINK_ONCE_DISCARD
 93 .group        00000008  0000000000000000  0000000000000000  00000328  2**2
                  CONTENTS, READONLY, EXCLUDE, GROUP, LINK_ONCE_DISCARD
 94 .group        00000008  0000000000000000  0000000000000000  00000330  2**2
                  CONTENTS, READONLY, EXCLUDE, GROUP, LINK_ONCE_DISCARD
 95 .group        00000008  0000000000000000  0000000000000000  00000338  2**2
                  CONTENTS, READONLY, EXCLUDE, GROUP, LINK_ONCE_DISCARD
 96 .group        00000008  0000000000000000  0000000000000000  00000340  2**2
                  CONTENTS, READONLY, EXCLUDE, GROUP, LINK_ONCE_DISCARD
 97 .group        00000008  0000000000000000  0000000000000000  00000348  2**2
                  CONTENTS, READONLY, EXCLUDE, GROUP, LINK_ONCE_DISCARD
 98 .group        00000008  0000000000000000  0000000000000000  00000350  2**2
                  CONTENTS, READONLY, EXCLUDE, GROUP, LINK_ONCE_DISCARD
 99 .group        00000008  0000000000000000  0000000000000000  00000358  2**2
                  CONTENTS, READONLY, EXCLUDE, GROUP, LINK_ONCE_DISCARD
100 .group        00000008  0000000000000000  0000000000000000  00000360  2**2
                  CONTENTS, READONLY, EXCLUDE, GROUP, LINK_ONCE_DISCARD
101 .group        00000008  0000000000000000  0000000000000000  00000368  2**2
                  CONTENTS, READONLY, EXCLUDE, GROUP, LINK_ONCE_DISCARD
102 .group        00000008  0000000000000000  0000000000000000  00000370  2**2
                  CONTENTS, READONLY, EXCLUDE, GROUP, LINK_ONCE_DISCARD
103 .group        00000008  0000000000000000  0000000000000000  00000378  2**2
                  CONTENTS, READONLY, EXCLUDE, GROUP, LINK_ONCE_DISCARD
104 .group        00000008  0000000000000000  0000000000000000  00000380  2**2
                  CONTENTS, READONLY, EXCLUDE, GROUP, LINK_ONCE_DISCARD
105 .group        00000008  0000000000000000  0000000000000000  00000388  2**2
                  CONTENTS, READONLY, EXCLUDE, GROUP, LINK_ONCE_DISCARD
106 .group        00000008  0000000000000000  0000000000000000  00000390  2**2
                  CONTENTS, READONLY, EXCLUDE, GROUP, LINK_ONCE_DISCARD
107 .group        00000008  0000000000000000  0000000000000000  00000398  2**2
                  CONTENTS, READONLY, EXCLUDE, GROUP, LINK_ONCE_DISCARD
108 .group        00000008  0000000000000000  0000000000000000  000003a0  2**2
                  CONTENTS, READONLY, EXCLUDE, GROUP, LINK_ONCE_DISCARD
109 .group        00000008  0000000000000000  0000000000000000  000003a8  2**2
                  CONTENTS, READONLY, EXCLUDE, GROUP, LINK_ONCE_DISCARD
110 .group        00000008  0000000000000000  0000000000000000  000003b0  2**2
                  CONTENTS, READONLY, EXCLUDE, GROUP, LINK_ONCE_DISCARD
111 .group        00000008  0000000000000000  0000000000000000  000003b8  2**2
                  CONTENTS, READONLY, EXCLUDE, GROUP, LINK_ONCE_DISCARD
112 .group        00000008  0000000000000000  0000000000000000  000003c0  2**2
                  CONTENTS, READONLY, EXCLUDE, GROUP, LINK_ONCE_DISCARD
113 .group        00000008  0000000000000000  0000000000000000  000003c8  2**2
                  CONTENTS, READONLY, EXCLUDE, GROUP, LINK_ONCE_DISCARD
114 .group        00000008  0000000000000000  0000000000000000  000003d0  2**2
                  CONTENTS, READONLY, EXCLUDE, GROUP, LINK_ONCE_DISCARD
115 .group        00000008  0000000000000000  0000000000000000  000003d8  2**2
                  CONTENTS, READONLY, EXCLUDE, GROUP, LINK_ONCE_DISCARD
116 .group        00000008  0000000000000000  0000000000000000  000003e0  2**2
                  CONTENTS, READONLY, EXCLUDE, GROUP, LINK_ONCE_DISCARD
117 .group        00000008  0000000000000000  0000000000000000  000003e8  2**2
                  CONTENTS, READONLY, EXCLUDE, GROUP, LINK_ONCE_DISCARD
118 .group        00000008  0000000000000000  0000000000000000  000003f0  2**2
                  CONTENTS, READONLY, EXCLUDE, GROUP, LINK_ONCE_DISCARD
119 .group        00000008  0000000000000000  0000000000000000  000003f8  2**2
                  CONTENTS, READONLY, EXCLUDE, GROUP, LINK_ONCE_DISCARD
120 .group        00000008  0000000000000000  0000000000000000  00000400  2**2
                  CONTENTS, READONLY, EXCLUDE, GROUP, LINK_ONCE_DISCARD
121 .group        00000008  0000000000000000  0000000000000000  00000408  2**2
                  CONTENTS, READONLY, EXCLUDE, GROUP, LINK_ONCE_DISCARD
122 .group        00000008  0000000000000000  0000000000000000  00000410  2**2
                  CONTENTS, READONLY, EXCLUDE, GROUP, LINK_ONCE_DISCARD
123 .text         000000ed  0000000000000000  0000000000000000  00000418  2**1
                  CONTENTS, ALLOC, LOAD, RELOC, READONLY, CODE
124 .data         00000000  0000000000000000  0000000000000000  00000505  2**0
                  CONTENTS, ALLOC, LOAD, DATA
125 .bss          00000000  0000000000000000  0000000000000000  00000505  2**0
                  ALLOC
126 .text._Z7qt_noopv 00000007  0000000000000000  0000000000000000  00000505  2**0
                  CONTENTS, ALLOC, LOAD, READONLY, CODE
127 .rodata       00000093  0000000000000000  0000000000000000  00000520  2**5
                  CONTENTS, ALLOC, LOAD, READONLY, DATA
128 .data.rel.ro  00000030  0000000000000000  0000000000000000  000005c0  2**5
                  CONTENTS, ALLOC, LOAD, RELOC, DATA
129 .text._ZNK14QScopedPointerI11QObjectData21QScopedPointerDeleterIS0_EEptEv 0000003e  0000000000000000  0000000000000000  000005f0  2**1
                  CONTENTS, ALLOC, LOAD, RELOC, READONLY, CODE
130 .data.rel.ro._ZTV7Analize 00000070  0000000000000000  0000000000000000  00000630  2**3
                  CONTENTS, ALLOC, LOAD, RELOC, DATA
131 .data.rel.ro._ZTI7Analize 00000018  0000000000000000  0000000000000000  000006a0  2**3
                  CONTENTS, ALLOC, LOAD, RELOC, DATA
132 .rodata._ZTS7Analize 00000009  0000000000000000  0000000000000000  000006b8  2**3
                  CONTENTS, ALLOC, LOAD, READONLY, DATA
133 .debug_info   000137ec  0000000000000000  0000000000000000  000006c1  2**0
                  CONTENTS, RELOC, READONLY, DEBUGGING
134 .debug_abbrev 0000095a  0000000000000000  0000000000000000  00013ead  2**0
                  CONTENTS, READONLY, DEBUGGING
135 .debug_aranges 00000050  0000000000000000  0000000000000000  00014807  2**0
                  CONTENTS, RELOC, READONLY, DEBUGGING
136 .debug_ranges 00000040  0000000000000000  0000000000000000  00014857  2**0
                  CONTENTS, RELOC, READONLY, DEBUGGING
137 .debug_macro  000009bd  0000000000000000  0000000000000000  00014897  2**0
                  CONTENTS, RELOC, READONLY, DEBUGGING
138 .debug_macro  0000061c  0000000000000000  0000000000000000  00015254  2**0
                  CONTENTS, RELOC, READONLY, DEBUGGING
139 .debug_macro  00000022  0000000000000000  0000000000000000  00015870  2**0
                  CONTENTS, RELOC, READONLY, DEBUGGING
140 .debug_macro  00000136  0000000000000000  0000000000000000  00015892  2**0
                  CONTENTS, RELOC, READONLY, DEBUGGING
141 .debug_macro  00000010  0000000000000000  0000000000000000  000159c8  2**0
                  CONTENTS, RELOC, READONLY, DEBUGGING
142 .debug_macro  00000275  0000000000000000  0000000000000000  000159d8  2**0
                  CONTENTS, RELOC, READONLY, DEBUGGING
143 .debug_macro  0000016f  0000000000000000  0000000000000000  00015c4d  2**0
                  CONTENTS, RELOC, READONLY, DEBUGGING
144 .debug_macro  00000016  0000000000000000  0000000000000000  00015dbc  2**0
                  CONTENTS, RELOC, READONLY, DEBUGGING
145 .debug_macro  00000035  0000000000000000  0000000000000000  00015dd2  2**0
                  CONTENTS, RELOC, READONLY, DEBUGGING
146 .debug_macro  00000058  0000000000000000  0000000000000000  00015e07  2**0
                  CONTENTS, RELOC, READONLY, DEBUGGING
147 .debug_macro  000005b4  0000000000000000  0000000000000000  00015e5f  2**0
                  CONTENTS, RELOC, READONLY, DEBUGGING
148 .debug_macro  0000016d  0000000000000000  0000000000000000  00016413  2**0
                  CONTENTS, RELOC, READONLY, DEBUGGING
149 .debug_macro  00000016  0000000000000000  0000000000000000  00016580  2**0
                  CONTENTS, RELOC, READONLY, DEBUGGING
150 .debug_macro  0000009a  0000000000000000  0000000000000000  00016596  2**0
                  CONTENTS, RELOC, READONLY, DEBUGGING
151 .debug_macro  00000016  0000000000000000  0000000000000000  00016630  2**0
                  CONTENTS, RELOC, READONLY, DEBUGGING
152 .debug_macro  00000018  0000000000000000  0000000000000000  00016646  2**0
                  CONTENTS, RELOC, READONLY, DEBUGGING
153 .debug_macro  00000032  0000000000000000  0000000000000000  0001665e  2**0
                  CONTENTS, RELOC, READONLY, DEBUGGING
154 .debug_macro  000000c0  0000000000000000  0000000000000000  00016690  2**0
                  CONTENTS, RELOC, READONLY, DEBUGGING
155 .debug_macro  00000028  0000000000000000  0000000000000000  00016750  2**0
                  CONTENTS, RELOC, READONLY, DEBUGGING
156 .debug_macro  00000012  0000000000000000  0000000000000000  00016778  2**0
                  CONTENTS, RELOC, READONLY, DEBUGGING
157 .debug_macro  000000cf  0000000000000000  0000000000000000  0001678a  2**0
                  CONTENTS, RELOC, READONLY, DEBUGGING
158 .debug_macro  0000001c  0000000000000000  0000000000000000  00016859  2**0
                  CONTENTS, RELOC, READONLY, DEBUGGING
159 .debug_macro  00000018  0000000000000000  0000000000000000  00016875  2**0
                  CONTENTS, RELOC, READONLY, DEBUGGING
160 .debug_macro  0000006e  0000000000000000  0000000000000000  0001688d  2**0
                  CONTENTS, RELOC, READONLY, DEBUGGING
161 .debug_macro  00000082  0000000000000000  0000000000000000  000168fb  2**0
                  CONTENTS, RELOC, READONLY, DEBUGGING
162 .debug_macro  00000012  0000000000000000  0000000000000000  0001697d  2**0
                  CONTENTS, RELOC, READONLY, DEBUGGING
163 .debug_macro  00000012  0000000000000000  0000000000000000  0001698f  2**0
                  CONTENTS, RELOC, READONLY, DEBUGGING
164 .debug_macro  00000016  0000000000000000  0000000000000000  000169a1  2**0
                  CONTENTS, RELOC, READONLY, DEBUGGING
165 .debug_macro  00000035  0000000000000000  0000000000000000  000169b7  2**0
                  CONTENTS, RELOC, READONLY, DEBUGGING
166 .debug_macro  00000052  0000000000000000  0000000000000000  000169ec  2**0
                  CONTENTS, RELOC, READONLY, DEBUGGING
167 .debug_macro  0000004c  0000000000000000  0000000000000000  00016a3e  2**0
                  CONTENTS, RELOC, READONLY, DEBUGGING
168 .debug_macro  0000001c  0000000000000000  0000000000000000  00016a8a  2**0
                  CONTENTS, RELOC, READONLY, DEBUGGING
169 .debug_macro  00000028  0000000000000000  0000000000000000  00016aa6  2**0
                  CONTENTS, RELOC, READONLY, DEBUGGING
170 .debug_macro  0000005e  0000000000000000  0000000000000000  00016ace  2**0
                  CONTENTS, RELOC, READONLY, DEBUGGING
171 .debug_macro  000000e2  0000000000000000  0000000000000000  00016b2c  2**0
                  CONTENTS, RELOC, READONLY, DEBUGGING
172 .debug_macro  00000010  0000000000000000  0000000000000000  00016c0e  2**0
                  CONTENTS, RELOC, READONLY, DEBUGGING
173 .debug_macro  0000004c  0000000000000000  0000000000000000  00016c1e  2**0
                  CONTENTS, RELOC, READONLY, DEBUGGING
174 .debug_macro  00000022  0000000000000000  0000000000000000  00016c6a  2**0
                  CONTENTS, RELOC, READONLY, DEBUGGING
175 .debug_macro  00000068  0000000000000000  0000000000000000  00016c8c  2**0
                  CONTENTS, RELOC, READONLY, DEBUGGING
176 .debug_macro  0000007f  0000000000000000  0000000000000000  00016cf4  2**0
                  CONTENTS, RELOC, READONLY, DEBUGGING
177 .debug_macro  0000003a  0000000000000000  0000000000000000  00016d73  2**0
                  CONTENTS, RELOC, READONLY, DEBUGGING
178 .debug_macro  00000019  0000000000000000  0000000000000000  00016dad  2**0
                  CONTENTS, RELOC, READONLY, DEBUGGING
179 .debug_macro  00000020  0000000000000000  0000000000000000  00016dc6  2**0
                  CONTENTS, RELOC, READONLY, DEBUGGING
180 .debug_macro  00000022  0000000000000000  0000000000000000  00016de6  2**0
                  CONTENTS, RELOC, READONLY, DEBUGGING
181 .debug_macro  00000010  0000000000000000  0000000000000000  00016e08  2**0
                  CONTENTS, RELOC, READONLY, DEBUGGING
182 .debug_macro  00000016  0000000000000000  0000000000000000  00016e18  2**0
                  CONTENTS, RELOC, READONLY, DEBUGGING
183 .debug_macro  00000028  0000000000000000  0000000000000000  00016e2e  2**0
                  CONTENTS, RELOC, READONLY, DEBUGGING
184 .debug_macro  00000010  0000000000000000  0000000000000000  00016e56  2**0
                  CONTENTS, RELOC, READONLY, DEBUGGING
185 .debug_macro  00000046  0000000000000000  0000000000000000  00016e66  2**0
                  CONTENTS, RELOC, READONLY, DEBUGGING
186 .debug_macro  0000001c  0000000000000000  0000000000000000  00016eac  2**0
                  CONTENTS, RELOC, READONLY, DEBUGGING
187 .debug_macro  00000020  0000000000000000  0000000000000000  00016ec8  2**0
                  CONTENTS, RELOC, READONLY, DEBUGGING
188 .debug_macro  0000005a  0000000000000000  0000000000000000  00016ee8  2**0
                  CONTENTS, RELOC, READONLY, DEBUGGING
189 .debug_macro  00000010  0000000000000000  0000000000000000  00016f42  2**0
                  CONTENTS, RELOC, READONLY, DEBUGGING
190 .debug_macro  00000010  0000000000000000  0000000000000000  00016f52  2**0
                  CONTENTS, RELOC, READONLY, DEBUGGING
191 .debug_macro  000000e4  0000000000000000  0000000000000000  00016f62  2**0
                  CONTENTS, RELOC, READONLY, DEBUGGING
192 .debug_macro  0000025a  0000000000000000  0000000000000000  00017046  2**0
                  CONTENTS, RELOC, READONLY, DEBUGGING
193 .debug_macro  0000002d  0000000000000000  0000000000000000  000172a0  2**0
                  CONTENTS, RELOC, READONLY, DEBUGGING
194 .debug_macro  00000016  0000000000000000  0000000000000000  000172cd  2**0
                  CONTENTS, RELOC, READONLY, DEBUGGING
195 .debug_macro  00000050  0000000000000000  0000000000000000  000172e3  2**0
                  CONTENTS, RELOC, READONLY, DEBUGGING
196 .debug_macro  00000019  0000000000000000  0000000000000000  00017333  2**0
                  CONTENTS, RELOC, READONLY, DEBUGGING
197 .debug_macro  00000011  0000000000000000  0000000000000000  0001734c  2**0
                  CONTENTS, RELOC, READONLY, DEBUGGING
198 .debug_macro  0000014b  0000000000000000  0000000000000000  0001735d  2**0
                  CONTENTS, RELOC, READONLY, DEBUGGING
199 .debug_macro  0000001e  0000000000000000  0000000000000000  000174a8  2**0
                  CONTENTS, RELOC, READONLY, DEBUGGING
200 .debug_macro  0000001c  0000000000000000  0000000000000000  000174c6  2**0
                  CONTENTS, RELOC, READONLY, DEBUGGING
201 .debug_macro  0000001e  0000000000000000  0000000000000000  000174e2  2**0
                  CONTENTS, RELOC, READONLY, DEBUGGING
202 .debug_macro  000000fc  0000000000000000  0000000000000000  00017500  2**0
                  CONTENTS, RELOC, READONLY, DEBUGGING
203 .debug_macro  00000016  0000000000000000  0000000000000000  000175fc  2**0
                  CONTENTS, RELOC, READONLY, DEBUGGING
204 .debug_macro  00000018  0000000000000000  0000000000000000  00017612  2**0
                  CONTENTS, RELOC, READONLY, DEBUGGING
205 .debug_macro  00000019  0000000000000000  0000000000000000  0001762a  2**0
                  CONTENTS, RELOC, READONLY, DEBUGGING
206 .debug_macro  00000058  0000000000000000  0000000000000000  00017643  2**0
                  CONTENTS, RELOC, READONLY, DEBUGGING
207 .debug_macro  00000016  0000000000000000  0000000000000000  0001769b  2**0
                  CONTENTS, RELOC, READONLY, DEBUGGING
208 .debug_macro  0000001c  0000000000000000  0000000000000000  000176b1  2**0
                  CONTENTS, RELOC, READONLY, DEBUGGING
209 .debug_macro  00000016  0000000000000000  0000000000000000  000176cd  2**0
                  CONTENTS, RELOC, READONLY, DEBUGGING
210 .debug_macro  00000022  0000000000000000  0000000000000000  000176e3  2**0
                  CONTENTS, RELOC, READONLY, DEBUGGING
211 .debug_macro  00000043  0000000000000000  0000000000000000  00017705  2**0
                  CONTENTS, RELOC, READONLY, DEBUGGING
212 .debug_macro  0000003c  0000000000000000  0000000000000000  00017748  2**0
                  CONTENTS, RELOC, READONLY, DEBUGGING
213 .debug_macro  00000173  0000000000000000  0000000000000000  00017784  2**0
                  CONTENTS, RELOC, READONLY, DEBUGGING
214 .debug_macro  00000012  0000000000000000  0000000000000000  000178f7  2**0
                  CONTENTS, RELOC, READONLY, DEBUGGING
215 .debug_macro  00000010  0000000000000000  0000000000000000  00017909  2**0
                  CONTENTS, RELOC, READONLY, DEBUGGING
216 .debug_macro  00000058  0000000000000000  0000000000000000  00017919  2**0
                  CONTENTS, RELOC, READONLY, DEBUGGING
217 .debug_macro  000000b4  0000000000000000  0000000000000000  00017971  2**0
                  CONTENTS, RELOC, READONLY, DEBUGGING
218 .debug_macro  00000016  0000000000000000  0000000000000000  00017a25  2**0
                  CONTENTS, RELOC, READONLY, DEBUGGING
219 .debug_macro  00000010  0000000000000000  0000000000000000  00017a3b  2**0
                  CONTENTS, RELOC, READONLY, DEBUGGING
220 .debug_macro  00000037  0000000000000000  0000000000000000  00017a4b  2**0
                  CONTENTS, RELOC, READONLY, DEBUGGING
221 .debug_macro  00000058  0000000000000000  0000000000000000  00017a82  2**0
                  CONTENTS, RELOC, READONLY, DEBUGGING
222 .debug_macro  00000011  0000000000000000  0000000000000000  00017ada  2**0
                  CONTENTS, RELOC, READONLY, DEBUGGING
223 .debug_macro  00000016  0000000000000000  0000000000000000  00017aeb  2**0
                  CONTENTS, RELOC, READONLY, DEBUGGING
224 .debug_macro  00000010  0000000000000000  0000000000000000  00017b01  2**0
                  CONTENTS, RELOC, READONLY, DEBUGGING
225 .debug_macro  00000010  0000000000000000  0000000000000000  00017b11  2**0
                  CONTENTS, RELOC, READONLY, DEBUGGING
226 .debug_macro  00000022  0000000000000000  0000000000000000  00017b21  2**0
                  CONTENTS, RELOC, READONLY, DEBUGGING
227 .debug_macro  00000122  0000000000000000  0000000000000000  00017b43  2**0
                  CONTENTS, RELOC, READONLY, DEBUGGING
228 .debug_macro  0000008e  0000000000000000  0000000000000000  00017c65  2**0
                  CONTENTS, RELOC, READONLY, DEBUGGING
229 .debug_macro  00000016  0000000000000000  0000000000000000  00017cf3  2**0
                  CONTENTS, RELOC, READONLY, DEBUGGING
230 .debug_macro  00000058  0000000000000000  0000000000000000  00017d09  2**0
                  CONTENTS, RELOC, READONLY, DEBUGGING
231 .debug_macro  000000fa  0000000000000000  0000000000000000  00017d61  2**0
                  CONTENTS, RELOC, READONLY, DEBUGGING
232 .debug_macro  00000030  0000000000000000  0000000000000000  00017e5b  2**0
                  CONTENTS, RELOC, READONLY, DEBUGGING
233 .debug_macro  000000c1  0000000000000000  0000000000000000  00017e8b  2**0
                  CONTENTS, RELOC, READONLY, DEBUGGING
234 .debug_macro  0000004d  0000000000000000  0000000000000000  00017f4c  2**0
                  CONTENTS, RELOC, READONLY, DEBUGGING
235 .debug_macro  00000010  0000000000000000  0000000000000000  00017f99  2**0
                  CONTENTS, RELOC, READONLY, DEBUGGING
236 .debug_macro  00000019  0000000000000000  0000000000000000  00017fa9  2**0
                  CONTENTS, RELOC, READONLY, DEBUGGING
237 .debug_macro  00000020  0000000000000000  0000000000000000  00017fc2  2**0
                  CONTENTS, RELOC, READONLY, DEBUGGING
238 .debug_macro  00000018  0000000000000000  0000000000000000  00017fe2  2**0
                  CONTENTS, RELOC, READONLY, DEBUGGING
239 .debug_macro  00000023  0000000000000000  0000000000000000  00017ffa  2**0
                  CONTENTS, RELOC, READONLY, DEBUGGING
240 .debug_macro  00000010  0000000000000000  0000000000000000  0001801d  2**0
                  CONTENTS, RELOC, READONLY, DEBUGGING
241 .debug_macro  00000016  0000000000000000  0000000000000000  0001802d  2**0
                  CONTENTS, RELOC, READONLY, DEBUGGING
242 .debug_macro  00000076  0000000000000000  0000000000000000  00018043  2**0
                  CONTENTS, RELOC, READONLY, DEBUGGING
243 .debug_macro  00000016  0000000000000000  0000000000000000  000180b9  2**0
                  CONTENTS, RELOC, READONLY, DEBUGGING
244 .debug_macro  00000025  0000000000000000  0000000000000000  000180cf  2**0
                  CONTENTS, RELOC, READONLY, DEBUGGING
245 .debug_macro  000000de  0000000000000000  0000000000000000  000180f4  2**0
                  CONTENTS, RELOC, READONLY, DEBUGGING
246 .debug_macro  0000001c  0000000000000000  0000000000000000  000181d2  2**0
                  CONTENTS, RELOC, READONLY, DEBUGGING
247 .debug_macro  00000058  0000000000000000  0000000000000000  000181ee  2**0
                  CONTENTS, RELOC, READONLY, DEBUGGING
248 .debug_macro  00000088  0000000000000000  0000000000000000  00018246  2**0
                  CONTENTS, RELOC, READONLY, DEBUGGING
249 .debug_macro  00000076  0000000000000000  0000000000000000  000182ce  2**0
                  CONTENTS, RELOC, READONLY, DEBUGGING
250 .debug_macro  00000010  0000000000000000  0000000000000000  00018344  2**0
                  CONTENTS, RELOC, READONLY, DEBUGGING
251 .debug_macro  00000041  0000000000000000  0000000000000000  00018354  2**0
                  CONTENTS, RELOC, READONLY, DEBUGGING
252 .debug_macro  000000ee  0000000000000000  0000000000000000  00018395  2**0
                  CONTENTS, RELOC, READONLY, DEBUGGING
253 .debug_macro  00000010  0000000000000000  0000000000000000  00018483  2**0
                  CONTENTS, RELOC, READONLY, DEBUGGING
254 .debug_macro  000000e5  0000000000000000  0000000000000000  00018493  2**0
                  CONTENTS, RELOC, READONLY, DEBUGGING
255 .debug_macro  00000012  0000000000000000  0000000000000000  00018578  2**0
                  CONTENTS, RELOC, READONLY, DEBUGGING
256 .debug_line   00000d78  0000000000000000  0000000000000000  0001858a  2**0
                  CONTENTS, RELOC, READONLY, DEBUGGING
257 .debug_str    0002ba6d  0000000000000000  0000000000000000  00019302  2**0
                  CONTENTS, READONLY, DEBUGGING
258 .comment      0000002e  0000000000000000  0000000000000000  00044d6f  2**0
                  CONTENTS, READONLY
259 .note.GNU-stack 00000000  0000000000000000  0000000000000000  00044d9d  2**0
                  CONTENTS, READONLY
260 .eh_frame     000000d8  0000000000000000  0000000000000000  00044da0  2**3
                  CONTENTS, ALLOC, LOAD, RELOC, READONLY, DATA

Дизассемблирование раздела .text:

0000000000000000 <_ZN7Analize18qt_static_metacallEP7QObjectN11QMetaObject4CallEiPPv>:

       0        // eod
};

void Analize::qt_static_metacall(QObject *_o, QMetaObject::Call _c, int _id, void **_a)
{
   0:	55                   	push   %rbp
   1:	48 89 e5             	mov    %rsp,%rbp
   4:	48 89 7d f8          	mov    %rdi,-0x8(%rbp)
   8:	89 75 f4             	mov    %esi,-0xc(%rbp)
   b:	89 55 f0             	mov    %edx,-0x10(%rbp)
   e:	48 89 4d e8          	mov    %rcx,-0x18(%rbp)
    Q_UNUSED(_o);
    Q_UNUSED(_id);
    Q_UNUSED(_c);
    Q_UNUSED(_a);
}
  12:	90                   	nop
  13:	5d                   	pop    %rbp
  14:	c3                   	retq   
  15:	90                   	nop

0000000000000016 <_ZNK7Analize10metaObjectEv>:
      qt_meta_data_Analize,  qt_static_metacall, Q_NULLPTR, Q_NULLPTR}
};


const QMetaObject *Analize::metaObject() const
{
  16:	55                   	push   %rbp
  17:	48 89 e5             	mov    %rsp,%rbp
  1a:	48 83 ec 10          	sub    $0x10,%rsp
  1e:	48 89 7d f8          	mov    %rdi,-0x8(%rbp)
    return QObject::d_ptr->metaObject ? QObject::d_ptr->dynamicMetaObject() : &staticMetaObject;
  22:	48 8b 45 f8          	mov    -0x8(%rbp),%rax
  26:	48 83 c0 08          	add    $0x8,%rax
  2a:	48 89 c7             	mov    %rax,%rdi
  2d:	e8 00 00 00 00       	callq  32 <_ZNK7Analize10metaObjectEv+0x1c>
  32:	48 8b 40 28          	mov    0x28(%rax),%rax
  36:	48 85 c0             	test   %rax,%rax
  39:	74 1a                	je     55 <_ZNK7Analize10metaObjectEv+0x3f>
  3b:	48 8b 45 f8          	mov    -0x8(%rbp),%rax
  3f:	48 83 c0 08          	add    $0x8,%rax
  43:	48 89 c7             	mov    %rax,%rdi
  46:	e8 00 00 00 00       	callq  4b <_ZNK7Analize10metaObjectEv+0x35>
  4b:	48 89 c7             	mov    %rax,%rdi
  4e:	e8 00 00 00 00       	callq  53 <_ZNK7Analize10metaObjectEv+0x3d>
  53:	eb 07                	jmp    5c <_ZNK7Analize10metaObjectEv+0x46>
  55:	48 8b 05 00 00 00 00 	mov    0x0(%rip),%rax        # 5c <_ZNK7Analize10metaObjectEv+0x46>
}
  5c:	c9                   	leaveq 
  5d:	c3                   	retq   

000000000000005e <_ZN7Analize11qt_metacastEPKc>:

void *Analize::qt_metacast(const char *_clname)
{
  5e:	55                   	push   %rbp
  5f:	48 89 e5             	mov    %rsp,%rbp
  62:	48 83 ec 10          	sub    $0x10,%rsp
  66:	48 89 7d f8          	mov    %rdi,-0x8(%rbp)
  6a:	48 89 75 f0          	mov    %rsi,-0x10(%rbp)
    if (!_clname) return Q_NULLPTR;
  6e:	48 83 7d f0 00       	cmpq   $0x0,-0x10(%rbp)
  73:	75 07                	jne    7c <_ZN7Analize11qt_metacastEPKc+0x1e>
  75:	b8 00 00 00 00       	mov    $0x0,%eax
  7a:	eb 30                	jmp    ac <_ZN7Analize11qt_metacastEPKc+0x4e>
    if (!strcmp(_clname, qt_meta_stringdata_Analize.stringdata0))
  7c:	48 8b 45 f0          	mov    -0x10(%rbp),%rax
  80:	48 8d 35 00 00 00 00 	lea    0x0(%rip),%rsi        # 87 <_ZN7Analize11qt_metacastEPKc+0x29>
  87:	48 89 c7             	mov    %rax,%rdi
  8a:	e8 00 00 00 00       	callq  8f <_ZN7Analize11qt_metacastEPKc+0x31>
  8f:	85 c0                	test   %eax,%eax
  91:	75 06                	jne    99 <_ZN7Analize11qt_metacastEPKc+0x3b>
        return static_cast<void*>(const_cast< Analize*>(this));
  93:	48 8b 45 f8          	mov    -0x8(%rbp),%rax
  97:	eb 13                	jmp    ac <_ZN7Analize11qt_metacastEPKc+0x4e>
    return QObject::qt_metacast(_clname);
  99:	48 8b 45 f8          	mov    -0x8(%rbp),%rax
  9d:	48 8b 55 f0          	mov    -0x10(%rbp),%rdx
  a1:	48 89 d6             	mov    %rdx,%rsi
  a4:	48 89 c7             	mov    %rax,%rdi
  a7:	e8 00 00 00 00       	callq  ac <_ZN7Analize11qt_metacastEPKc+0x4e>
}
  ac:	c9                   	leaveq 
  ad:	c3                   	retq   

00000000000000ae <_ZN7Analize11qt_metacallEN11QMetaObject4CallEiPPv>:

int Analize::qt_metacall(QMetaObject::Call _c, int _id, void **_a)
{
  ae:	55                   	push   %rbp
  af:	48 89 e5             	mov    %rsp,%rbp
  b2:	48 83 ec 20          	sub    $0x20,%rsp
  b6:	48 89 7d f8          	mov    %rdi,-0x8(%rbp)
  ba:	89 75 f4             	mov    %esi,-0xc(%rbp)
  bd:	89 55 f0             	mov    %edx,-0x10(%rbp)
  c0:	48 89 4d e8          	mov    %rcx,-0x18(%rbp)
    _id = QObject::qt_metacall(_c, _id, _a);
  c4:	48 8b 45 f8          	mov    -0x8(%rbp),%rax
  c8:	48 8b 4d e8          	mov    -0x18(%rbp),%rcx
  cc:	8b 55 f0             	mov    -0x10(%rbp),%edx
  cf:	8b 75 f4             	mov    -0xc(%rbp),%esi
  d2:	48 89 c7             	mov    %rax,%rdi
  d5:	e8 00 00 00 00       	callq  da <_ZN7Analize11qt_metacallEN11QMetaObject4CallEiPPv+0x2c>
  da:	89 45 f0             	mov    %eax,-0x10(%rbp)
    if (_id < 0)
  dd:	83 7d f0 00          	cmpl   $0x0,-0x10(%rbp)
  e1:	79 05                	jns    e8 <_ZN7Analize11qt_metacallEN11QMetaObject4CallEiPPv+0x3a>
        return _id;
  e3:	8b 45 f0             	mov    -0x10(%rbp),%eax
  e6:	eb 03                	jmp    eb <_ZN7Analize11qt_metacallEN11QMetaObject4CallEiPPv+0x3d>
    return _id;
  e8:	8b 45 f0             	mov    -0x10(%rbp),%eax
}
  eb:	c9                   	leaveq 
  ec:	c3                   	retq   

Дизассемблирование раздела .text._Z7qt_noopv:

0000000000000000 <_Z7qt_noopv>:

       0        // eod
};

void Analize::qt_static_metacall(QObject *_o, QMetaObject::Call _c, int _id, void **_a)
{
   0:	55                   	push   %rbp
   1:	48 89 e5             	mov    %rsp,%rbp
   4:	90                   	nop
   5:	5d                   	pop    %rbp
   6:	c3                   	retq   

Дизассемблирование раздела .text._ZNK14QScopedPointerI11QObjectData21QScopedPointerDeleterIS0_EEptEv:

0000000000000000 <_ZNK14QScopedPointerI11QObjectData21QScopedPointerDeleterIS0_EEptEv>:
   0:	55                   	push   %rbp
   1:	48 89 e5             	mov    %rsp,%rbp
   4:	48 83 ec 10          	sub    $0x10,%rsp
   8:	48 89 7d f8          	mov    %rdi,-0x8(%rbp)
   c:	48 8b 45 f8          	mov    -0x8(%rbp),%rax
  10:	48 8b 00             	mov    (%rax),%rax
    Q_UNUSED(_o);
    Q_UNUSED(_id);
    Q_UNUSED(_c);
    Q_UNUSED(_a);
}
  13:	48 85 c0             	test   %rax,%rax
      qt_meta_data_Analize,  qt_static_metacall, Q_NULLPTR, Q_NULLPTR}
};


const QMetaObject *Analize::metaObject() const
{
  16:	75 18                	jne    30 <_ZNK14QScopedPointerI11QObjectData21QScopedPointerDeleterIS0_EEptEv+0x30>
  18:	ba 70 00 00 00       	mov    $0x70,%edx
  1d:	48 8d 35 00 00 00 00 	lea    0x0(%rip),%rsi        # 24 <_ZNK14QScopedPointerI11QObjectData21QScopedPointerDeleterIS0_EEptEv+0x24>
    return QObject::d_ptr->metaObject ? QObject::d_ptr->dynamicMetaObject() : &staticMetaObject;
  24:	48 8d 3d 00 00 00 00 	lea    0x0(%rip),%rdi        # 2b <_ZNK14QScopedPointerI11QObjectData21QScopedPointerDeleterIS0_EEptEv+0x2b>
  2b:	e8 00 00 00 00       	callq  30 <_ZNK14QScopedPointerI11QObjectData21QScopedPointerDeleterIS0_EEptEv+0x30>
  30:	e8 00 00 00 00       	callq  35 <_ZNK14QScopedPointerI11QObjectData21QScopedPointerDeleterIS0_EEptEv+0x35>
  35:	48 8b 45 f8          	mov    -0x8(%rbp),%rax
  39:	48 8b 00             	mov    (%rax),%rax
  3c:	c9                   	leaveq 
  3d:	c3                   	retq   
