
moc_atom.o:     формат файла elf64-x86-64

Разделы:
Инд Имя           Размер    VMA               LMA               Файл      Вырав
  0 .group        00000008  0000000000000000  0000000000000000  00000040  2**2
                  CONTENTS, READONLY, EXCLUDE, GROUP, LINK_ONCE_DISCARD
  1 .group        00000008  0000000000000000  0000000000000000  00000048  2**2
                  CONTENTS, READONLY, EXCLUDE, GROUP, LINK_ONCE_DISCARD
  2 .group        00000008  0000000000000000  0000000000000000  00000050  2**2
                  CONTENTS, READONLY, EXCLUDE, GROUP, LINK_ONCE_DISCARD
  3 .group        00000008  0000000000000000  0000000000000000  00000058  2**2
                  CONTENTS, READONLY, EXCLUDE, GROUP, LINK_ONCE_DISCARD
  4 .group        00000008  0000000000000000  0000000000000000  00000060  2**2
                  CONTENTS, READONLY, EXCLUDE, GROUP, LINK_ONCE_DISCARD
  5 .group        00000008  0000000000000000  0000000000000000  00000068  2**2
                  CONTENTS, READONLY, EXCLUDE, GROUP, LINK_ONCE_DISCARD
  6 .group        00000008  0000000000000000  0000000000000000  00000070  2**2
                  CONTENTS, READONLY, EXCLUDE, GROUP, LINK_ONCE_DISCARD
  7 .group        0000000c  0000000000000000  0000000000000000  00000078  2**2
                  CONTENTS, READONLY, EXCLUDE, GROUP, LINK_ONCE_DISCARD
  8 .group        00000008  0000000000000000  0000000000000000  00000084  2**2
                  CONTENTS, READONLY, EXCLUDE, GROUP, LINK_ONCE_DISCARD
  9 .group        00000008  0000000000000000  0000000000000000  0000008c  2**2
                  CONTENTS, READONLY, EXCLUDE, GROUP, LINK_ONCE_DISCARD
 10 .group        00000008  0000000000000000  0000000000000000  00000094  2**2
                  CONTENTS, READONLY, EXCLUDE, GROUP, LINK_ONCE_DISCARD
 11 .group        00000008  0000000000000000  0000000000000000  0000009c  2**2
                  CONTENTS, READONLY, EXCLUDE, GROUP, LINK_ONCE_DISCARD
 12 .group        00000008  0000000000000000  0000000000000000  000000a4  2**2
                  CONTENTS, READONLY, EXCLUDE, GROUP, LINK_ONCE_DISCARD
 13 .group        00000010  0000000000000000  0000000000000000  000000ac  2**2
                  CONTENTS, READONLY, EXCLUDE, GROUP, LINK_ONCE_DISCARD
 14 .group        00000008  0000000000000000  0000000000000000  000000bc  2**2
                  CONTENTS, READONLY, EXCLUDE, GROUP, LINK_ONCE_DISCARD
 15 .group        00000008  0000000000000000  0000000000000000  000000c4  2**2
                  CONTENTS, READONLY, EXCLUDE, GROUP, LINK_ONCE_DISCARD
 16 .group        00000008  0000000000000000  0000000000000000  000000cc  2**2
                  CONTENTS, READONLY, EXCLUDE, GROUP, LINK_ONCE_DISCARD
 17 .group        00000008  0000000000000000  0000000000000000  000000d4  2**2
                  CONTENTS, READONLY, EXCLUDE, GROUP, LINK_ONCE_DISCARD
 18 .group        00000008  0000000000000000  0000000000000000  000000dc  2**2
                  CONTENTS, READONLY, EXCLUDE, GROUP, LINK_ONCE_DISCARD
 19 .group        00000008  0000000000000000  0000000000000000  000000e4  2**2
                  CONTENTS, READONLY, EXCLUDE, GROUP, LINK_ONCE_DISCARD
 20 .group        00000008  0000000000000000  0000000000000000  000000ec  2**2
                  CONTENTS, READONLY, EXCLUDE, GROUP, LINK_ONCE_DISCARD
 21 .group        00000008  0000000000000000  0000000000000000  000000f4  2**2
                  CONTENTS, READONLY, EXCLUDE, GROUP, LINK_ONCE_DISCARD
 22 .group        00000008  0000000000000000  0000000000000000  000000fc  2**2
                  CONTENTS, READONLY, EXCLUDE, GROUP, LINK_ONCE_DISCARD
 23 .group        00000008  0000000000000000  0000000000000000  00000104  2**2
                  CONTENTS, READONLY, EXCLUDE, GROUP, LINK_ONCE_DISCARD
 24 .group        00000008  0000000000000000  0000000000000000  0000010c  2**2
                  CONTENTS, READONLY, EXCLUDE, GROUP, LINK_ONCE_DISCARD
 25 .group        00000008  0000000000000000  0000000000000000  00000114  2**2
                  CONTENTS, READONLY, EXCLUDE, GROUP, LINK_ONCE_DISCARD
 26 .group        00000008  0000000000000000  0000000000000000  0000011c  2**2
                  CONTENTS, READONLY, EXCLUDE, GROUP, LINK_ONCE_DISCARD
 27 .group        00000008  0000000000000000  0000000000000000  00000124  2**2
                  CONTENTS, READONLY, EXCLUDE, GROUP, LINK_ONCE_DISCARD
 28 .group        00000008  0000000000000000  0000000000000000  0000012c  2**2
                  CONTENTS, READONLY, EXCLUDE, GROUP, LINK_ONCE_DISCARD
 29 .group        00000008  0000000000000000  0000000000000000  00000134  2**2
                  CONTENTS, READONLY, EXCLUDE, GROUP, LINK_ONCE_DISCARD
 30 .group        00000008  0000000000000000  0000000000000000  0000013c  2**2
                  CONTENTS, READONLY, EXCLUDE, GROUP, LINK_ONCE_DISCARD
 31 .group        00000008  0000000000000000  0000000000000000  00000144  2**2
                  CONTENTS, READONLY, EXCLUDE, GROUP, LINK_ONCE_DISCARD
 32 .group        00000008  0000000000000000  0000000000000000  0000014c  2**2
                  CONTENTS, READONLY, EXCLUDE, GROUP, LINK_ONCE_DISCARD
 33 .group        00000008  0000000000000000  0000000000000000  00000154  2**2
                  CONTENTS, READONLY, EXCLUDE, GROUP, LINK_ONCE_DISCARD
 34 .group        00000008  0000000000000000  0000000000000000  0000015c  2**2
                  CONTENTS, READONLY, EXCLUDE, GROUP, LINK_ONCE_DISCARD
 35 .group        00000008  0000000000000000  0000000000000000  00000164  2**2
                  CONTENTS, READONLY, EXCLUDE, GROUP, LINK_ONCE_DISCARD
 36 .group        00000008  0000000000000000  0000000000000000  0000016c  2**2
                  CONTENTS, READONLY, EXCLUDE, GROUP, LINK_ONCE_DISCARD
 37 .group        00000008  0000000000000000  0000000000000000  00000174  2**2
                  CONTENTS, READONLY, EXCLUDE, GROUP, LINK_ONCE_DISCARD
 38 .group        00000008  0000000000000000  0000000000000000  0000017c  2**2
                  CONTENTS, READONLY, EXCLUDE, GROUP, LINK_ONCE_DISCARD
 39 .group        00000008  0000000000000000  0000000000000000  00000184  2**2
                  CONTENTS, READONLY, EXCLUDE, GROUP, LINK_ONCE_DISCARD
 40 .group        00000008  0000000000000000  0000000000000000  0000018c  2**2
                  CONTENTS, READONLY, EXCLUDE, GROUP, LINK_ONCE_DISCARD
 41 .group        00000008  0000000000000000  0000000000000000  00000194  2**2
                  CONTENTS, READONLY, EXCLUDE, GROUP, LINK_ONCE_DISCARD
 42 .group        00000008  0000000000000000  0000000000000000  0000019c  2**2
                  CONTENTS, READONLY, EXCLUDE, GROUP, LINK_ONCE_DISCARD
 43 .group        00000008  0000000000000000  0000000000000000  000001a4  2**2
                  CONTENTS, READONLY, EXCLUDE, GROUP, LINK_ONCE_DISCARD
 44 .group        00000008  0000000000000000  0000000000000000  000001ac  2**2
                  CONTENTS, READONLY, EXCLUDE, GROUP, LINK_ONCE_DISCARD
 45 .group        00000008  0000000000000000  0000000000000000  000001b4  2**2
                  CONTENTS, READONLY, EXCLUDE, GROUP, LINK_ONCE_DISCARD
 46 .group        00000008  0000000000000000  0000000000000000  000001bc  2**2
                  CONTENTS, READONLY, EXCLUDE, GROUP, LINK_ONCE_DISCARD
 47 .group        00000008  0000000000000000  0000000000000000  000001c4  2**2
                  CONTENTS, READONLY, EXCLUDE, GROUP, LINK_ONCE_DISCARD
 48 .group        00000008  0000000000000000  0000000000000000  000001cc  2**2
                  CONTENTS, READONLY, EXCLUDE, GROUP, LINK_ONCE_DISCARD
 49 .group        00000008  0000000000000000  0000000000000000  000001d4  2**2
                  CONTENTS, READONLY, EXCLUDE, GROUP, LINK_ONCE_DISCARD
 50 .group        00000008  0000000000000000  0000000000000000  000001dc  2**2
                  CONTENTS, READONLY, EXCLUDE, GROUP, LINK_ONCE_DISCARD
 51 .group        00000008  0000000000000000  0000000000000000  000001e4  2**2
                  CONTENTS, READONLY, EXCLUDE, GROUP, LINK_ONCE_DISCARD
 52 .group        00000008  0000000000000000  0000000000000000  000001ec  2**2
                  CONTENTS, READONLY, EXCLUDE, GROUP, LINK_ONCE_DISCARD
 53 .group        00000008  0000000000000000  0000000000000000  000001f4  2**2
                  CONTENTS, READONLY, EXCLUDE, GROUP, LINK_ONCE_DISCARD
 54 .group        00000008  0000000000000000  0000000000000000  000001fc  2**2
                  CONTENTS, READONLY, EXCLUDE, GROUP, LINK_ONCE_DISCARD
 55 .group        00000008  0000000000000000  0000000000000000  00000204  2**2
                  CONTENTS, READONLY, EXCLUDE, GROUP, LINK_ONCE_DISCARD
 56 .group        00000008  0000000000000000  0000000000000000  0000020c  2**2
                  CONTENTS, READONLY, EXCLUDE, GROUP, LINK_ONCE_DISCARD
 57 .group        00000008  0000000000000000  0000000000000000  00000214  2**2
                  CONTENTS, READONLY, EXCLUDE, GROUP, LINK_ONCE_DISCARD
 58 .group        00000008  0000000000000000  0000000000000000  0000021c  2**2
                  CONTENTS, READONLY, EXCLUDE, GROUP, LINK_ONCE_DISCARD
 59 .group        00000008  0000000000000000  0000000000000000  00000224  2**2
                  CONTENTS, READONLY, EXCLUDE, GROUP, LINK_ONCE_DISCARD
 60 .group        00000008  0000000000000000  0000000000000000  0000022c  2**2
                  CONTENTS, READONLY, EXCLUDE, GROUP, LINK_ONCE_DISCARD
 61 .group        00000008  0000000000000000  0000000000000000  00000234  2**2
                  CONTENTS, READONLY, EXCLUDE, GROUP, LINK_ONCE_DISCARD
 62 .group        00000008  0000000000000000  0000000000000000  0000023c  2**2
                  CONTENTS, READONLY, EXCLUDE, GROUP, LINK_ONCE_DISCARD
 63 .group        00000008  0000000000000000  0000000000000000  00000244  2**2
                  CONTENTS, READONLY, EXCLUDE, GROUP, LINK_ONCE_DISCARD
 64 .group        00000008  0000000000000000  0000000000000000  0000024c  2**2
                  CONTENTS, READONLY, EXCLUDE, GROUP, LINK_ONCE_DISCARD
 65 .group        00000008  0000000000000000  0000000000000000  00000254  2**2
                  CONTENTS, READONLY, EXCLUDE, GROUP, LINK_ONCE_DISCARD
 66 .group        00000008  0000000000000000  0000000000000000  0000025c  2**2
                  CONTENTS, READONLY, EXCLUDE, GROUP, LINK_ONCE_DISCARD
 67 .group        00000008  0000000000000000  0000000000000000  00000264  2**2
                  CONTENTS, READONLY, EXCLUDE, GROUP, LINK_ONCE_DISCARD
 68 .group        00000008  0000000000000000  0000000000000000  0000026c  2**2
                  CONTENTS, READONLY, EXCLUDE, GROUP, LINK_ONCE_DISCARD
 69 .group        00000008  0000000000000000  0000000000000000  00000274  2**2
                  CONTENTS, READONLY, EXCLUDE, GROUP, LINK_ONCE_DISCARD
 70 .group        00000008  0000000000000000  0000000000000000  0000027c  2**2
                  CONTENTS, READONLY, EXCLUDE, GROUP, LINK_ONCE_DISCARD
 71 .group        00000008  0000000000000000  0000000000000000  00000284  2**2
                  CONTENTS, READONLY, EXCLUDE, GROUP, LINK_ONCE_DISCARD
 72 .group        00000008  0000000000000000  0000000000000000  0000028c  2**2
                  CONTENTS, READONLY, EXCLUDE, GROUP, LINK_ONCE_DISCARD
 73 .group        00000008  0000000000000000  0000000000000000  00000294  2**2
                  CONTENTS, READONLY, EXCLUDE, GROUP, LINK_ONCE_DISCARD
 74 .group        00000008  0000000000000000  0000000000000000  0000029c  2**2
                  CONTENTS, READONLY, EXCLUDE, GROUP, LINK_ONCE_DISCARD
 75 .group        00000008  0000000000000000  0000000000000000  000002a4  2**2
                  CONTENTS, READONLY, EXCLUDE, GROUP, LINK_ONCE_DISCARD
 76 .group        00000008  0000000000000000  0000000000000000  000002ac  2**2
                  CONTENTS, READONLY, EXCLUDE, GROUP, LINK_ONCE_DISCARD
 77 .group        00000008  0000000000000000  0000000000000000  000002b4  2**2
                  CONTENTS, READONLY, EXCLUDE, GROUP, LINK_ONCE_DISCARD
 78 .group        00000008  0000000000000000  0000000000000000  000002bc  2**2
                  CONTENTS, READONLY, EXCLUDE, GROUP, LINK_ONCE_DISCARD
 79 .group        00000008  0000000000000000  0000000000000000  000002c4  2**2
                  CONTENTS, READONLY, EXCLUDE, GROUP, LINK_ONCE_DISCARD
 80 .group        00000008  0000000000000000  0000000000000000  000002cc  2**2
                  CONTENTS, READONLY, EXCLUDE, GROUP, LINK_ONCE_DISCARD
 81 .group        00000008  0000000000000000  0000000000000000  000002d4  2**2
                  CONTENTS, READONLY, EXCLUDE, GROUP, LINK_ONCE_DISCARD
 82 .group        00000008  0000000000000000  0000000000000000  000002dc  2**2
                  CONTENTS, READONLY, EXCLUDE, GROUP, LINK_ONCE_DISCARD
 83 .group        00000008  0000000000000000  0000000000000000  000002e4  2**2
                  CONTENTS, READONLY, EXCLUDE, GROUP, LINK_ONCE_DISCARD
 84 .group        00000008  0000000000000000  0000000000000000  000002ec  2**2
                  CONTENTS, READONLY, EXCLUDE, GROUP, LINK_ONCE_DISCARD
 85 .group        00000008  0000000000000000  0000000000000000  000002f4  2**2
                  CONTENTS, READONLY, EXCLUDE, GROUP, LINK_ONCE_DISCARD
 86 .group        00000008  0000000000000000  0000000000000000  000002fc  2**2
                  CONTENTS, READONLY, EXCLUDE, GROUP, LINK_ONCE_DISCARD
 87 .group        00000008  0000000000000000  0000000000000000  00000304  2**2
                  CONTENTS, READONLY, EXCLUDE, GROUP, LINK_ONCE_DISCARD
 88 .group        00000008  0000000000000000  0000000000000000  0000030c  2**2
                  CONTENTS, READONLY, EXCLUDE, GROUP, LINK_ONCE_DISCARD
 89 .group        00000008  0000000000000000  0000000000000000  00000314  2**2
                  CONTENTS, READONLY, EXCLUDE, GROUP, LINK_ONCE_DISCARD
 90 .group        00000008  0000000000000000  0000000000000000  0000031c  2**2
                  CONTENTS, READONLY, EXCLUDE, GROUP, LINK_ONCE_DISCARD
 91 .group        00000008  0000000000000000  0000000000000000  00000324  2**2
                  CONTENTS, READONLY, EXCLUDE, GROUP, LINK_ONCE_DISCARD
 92 .group        00000008  0000000000000000  0000000000000000  0000032c  2**2
                  CONTENTS, READONLY, EXCLUDE, GROUP, LINK_ONCE_DISCARD
 93 .group        00000008  0000000000000000  0000000000000000  00000334  2**2
                  CONTENTS, READONLY, EXCLUDE, GROUP, LINK_ONCE_DISCARD
 94 .group        00000008  0000000000000000  0000000000000000  0000033c  2**2
                  CONTENTS, READONLY, EXCLUDE, GROUP, LINK_ONCE_DISCARD
 95 .group        00000008  0000000000000000  0000000000000000  00000344  2**2
                  CONTENTS, READONLY, EXCLUDE, GROUP, LINK_ONCE_DISCARD
 96 .group        00000008  0000000000000000  0000000000000000  0000034c  2**2
                  CONTENTS, READONLY, EXCLUDE, GROUP, LINK_ONCE_DISCARD
 97 .group        00000008  0000000000000000  0000000000000000  00000354  2**2
                  CONTENTS, READONLY, EXCLUDE, GROUP, LINK_ONCE_DISCARD
 98 .group        00000008  0000000000000000  0000000000000000  0000035c  2**2
                  CONTENTS, READONLY, EXCLUDE, GROUP, LINK_ONCE_DISCARD
 99 .group        00000008  0000000000000000  0000000000000000  00000364  2**2
                  CONTENTS, READONLY, EXCLUDE, GROUP, LINK_ONCE_DISCARD
100 .group        00000008  0000000000000000  0000000000000000  0000036c  2**2
                  CONTENTS, READONLY, EXCLUDE, GROUP, LINK_ONCE_DISCARD
101 .group        00000008  0000000000000000  0000000000000000  00000374  2**2
                  CONTENTS, READONLY, EXCLUDE, GROUP, LINK_ONCE_DISCARD
102 .group        00000008  0000000000000000  0000000000000000  0000037c  2**2
                  CONTENTS, READONLY, EXCLUDE, GROUP, LINK_ONCE_DISCARD
103 .group        00000008  0000000000000000  0000000000000000  00000384  2**2
                  CONTENTS, READONLY, EXCLUDE, GROUP, LINK_ONCE_DISCARD
104 .group        00000008  0000000000000000  0000000000000000  0000038c  2**2
                  CONTENTS, READONLY, EXCLUDE, GROUP, LINK_ONCE_DISCARD
105 .group        00000008  0000000000000000  0000000000000000  00000394  2**2
                  CONTENTS, READONLY, EXCLUDE, GROUP, LINK_ONCE_DISCARD
106 .group        00000008  0000000000000000  0000000000000000  0000039c  2**2
                  CONTENTS, READONLY, EXCLUDE, GROUP, LINK_ONCE_DISCARD
107 .group        00000008  0000000000000000  0000000000000000  000003a4  2**2
                  CONTENTS, READONLY, EXCLUDE, GROUP, LINK_ONCE_DISCARD
108 .group        00000008  0000000000000000  0000000000000000  000003ac  2**2
                  CONTENTS, READONLY, EXCLUDE, GROUP, LINK_ONCE_DISCARD
109 .group        00000008  0000000000000000  0000000000000000  000003b4  2**2
                  CONTENTS, READONLY, EXCLUDE, GROUP, LINK_ONCE_DISCARD
110 .group        00000008  0000000000000000  0000000000000000  000003bc  2**2
                  CONTENTS, READONLY, EXCLUDE, GROUP, LINK_ONCE_DISCARD
111 .group        00000008  0000000000000000  0000000000000000  000003c4  2**2
                  CONTENTS, READONLY, EXCLUDE, GROUP, LINK_ONCE_DISCARD
112 .group        00000008  0000000000000000  0000000000000000  000003cc  2**2
                  CONTENTS, READONLY, EXCLUDE, GROUP, LINK_ONCE_DISCARD
113 .group        00000008  0000000000000000  0000000000000000  000003d4  2**2
                  CONTENTS, READONLY, EXCLUDE, GROUP, LINK_ONCE_DISCARD
114 .group        00000008  0000000000000000  0000000000000000  000003dc  2**2
                  CONTENTS, READONLY, EXCLUDE, GROUP, LINK_ONCE_DISCARD
115 .group        00000008  0000000000000000  0000000000000000  000003e4  2**2
                  CONTENTS, READONLY, EXCLUDE, GROUP, LINK_ONCE_DISCARD
116 .group        00000008  0000000000000000  0000000000000000  000003ec  2**2
                  CONTENTS, READONLY, EXCLUDE, GROUP, LINK_ONCE_DISCARD
117 .group        00000008  0000000000000000  0000000000000000  000003f4  2**2
                  CONTENTS, READONLY, EXCLUDE, GROUP, LINK_ONCE_DISCARD
118 .group        00000008  0000000000000000  0000000000000000  000003fc  2**2
                  CONTENTS, READONLY, EXCLUDE, GROUP, LINK_ONCE_DISCARD
119 .group        00000008  0000000000000000  0000000000000000  00000404  2**2
                  CONTENTS, READONLY, EXCLUDE, GROUP, LINK_ONCE_DISCARD
120 .group        00000008  0000000000000000  0000000000000000  0000040c  2**2
                  CONTENTS, READONLY, EXCLUDE, GROUP, LINK_ONCE_DISCARD
121 .group        00000008  0000000000000000  0000000000000000  00000414  2**2
                  CONTENTS, READONLY, EXCLUDE, GROUP, LINK_ONCE_DISCARD
122 .group        00000008  0000000000000000  0000000000000000  0000041c  2**2
                  CONTENTS, READONLY, EXCLUDE, GROUP, LINK_ONCE_DISCARD
123 .group        00000008  0000000000000000  0000000000000000  00000424  2**2
                  CONTENTS, READONLY, EXCLUDE, GROUP, LINK_ONCE_DISCARD
124 .group        00000008  0000000000000000  0000000000000000  0000042c  2**2
                  CONTENTS, READONLY, EXCLUDE, GROUP, LINK_ONCE_DISCARD
125 .group        00000008  0000000000000000  0000000000000000  00000434  2**2
                  CONTENTS, READONLY, EXCLUDE, GROUP, LINK_ONCE_DISCARD
126 .group        00000008  0000000000000000  0000000000000000  0000043c  2**2
                  CONTENTS, READONLY, EXCLUDE, GROUP, LINK_ONCE_DISCARD
127 .group        00000008  0000000000000000  0000000000000000  00000444  2**2
                  CONTENTS, READONLY, EXCLUDE, GROUP, LINK_ONCE_DISCARD
128 .group        00000008  0000000000000000  0000000000000000  0000044c  2**2
                  CONTENTS, READONLY, EXCLUDE, GROUP, LINK_ONCE_DISCARD
129 .group        00000008  0000000000000000  0000000000000000  00000454  2**2
                  CONTENTS, READONLY, EXCLUDE, GROUP, LINK_ONCE_DISCARD
130 .group        00000008  0000000000000000  0000000000000000  0000045c  2**2
                  CONTENTS, READONLY, EXCLUDE, GROUP, LINK_ONCE_DISCARD
131 .group        00000008  0000000000000000  0000000000000000  00000464  2**2
                  CONTENTS, READONLY, EXCLUDE, GROUP, LINK_ONCE_DISCARD
132 .group        00000008  0000000000000000  0000000000000000  0000046c  2**2
                  CONTENTS, READONLY, EXCLUDE, GROUP, LINK_ONCE_DISCARD
133 .group        00000008  0000000000000000  0000000000000000  00000474  2**2
                  CONTENTS, READONLY, EXCLUDE, GROUP, LINK_ONCE_DISCARD
134 .group        00000008  0000000000000000  0000000000000000  0000047c  2**2
                  CONTENTS, READONLY, EXCLUDE, GROUP, LINK_ONCE_DISCARD
135 .text         000000ed  0000000000000000  0000000000000000  00000484  2**1
                  CONTENTS, ALLOC, LOAD, RELOC, READONLY, CODE
136 .data         00000000  0000000000000000  0000000000000000  00000571  2**0
                  CONTENTS, ALLOC, LOAD, DATA
137 .bss          00000000  0000000000000000  0000000000000000  00000571  2**0
                  ALLOC
138 .text._Z7qt_noopv 00000007  0000000000000000  0000000000000000  00000571  2**0
                  CONTENTS, ALLOC, LOAD, READONLY, CODE
139 .text._ZN9QtPrivate8RefCount5derefEv 00000043  0000000000000000  0000000000000000  00000578  2**1
                  CONTENTS, ALLOC, LOAD, RELOC, READONLY, CODE
140 .text._ZN7QStringD2Ev 00000034  0000000000000000  0000000000000000  000005bc  2**1
                  CONTENTS, ALLOC, LOAD, RELOC, READONLY, CODE
141 .text._ZN19QListSpecialMethodsI7QStringED2Ev 0000000b  0000000000000000  0000000000000000  000005f0  2**1
                  CONTENTS, ALLOC, LOAD, READONLY, CODE
142 .rodata       00000093  0000000000000000  0000000000000000  00000600  2**5
                  CONTENTS, ALLOC, LOAD, READONLY, DATA
143 .data.rel.ro  00000030  0000000000000000  0000000000000000  000006a0  2**5
                  CONTENTS, ALLOC, LOAD, RELOC, DATA
144 .text._ZNK19QBasicAtomicIntegerIiE4loadEv 00000019  0000000000000000  0000000000000000  000006d0  2**1
                  CONTENTS, ALLOC, LOAD, READONLY, CODE
145 .text._ZN19QBasicAtomicIntegerIiE5derefEv 0000001a  0000000000000000  0000000000000000  000006ea  2**1
                  CONTENTS, ALLOC, LOAD, RELOC, READONLY, CODE
146 .text._ZN15QTypedArrayDataItE10deallocateEP10QArrayData 00000025  0000000000000000  0000000000000000  00000704  2**0
                  CONTENTS, ALLOC, LOAD, RELOC, READONLY, CODE
147 .text._ZN5QListI7QStringED2Ev 00000068  0000000000000000  0000000000000000  0000072a  2**1
                  CONTENTS, ALLOC, LOAD, RELOC, READONLY, CODE
148 .gcc_except_table._ZN5QListI7QStringED2Ev 0000000c  0000000000000000  0000000000000000  00000792  2**0
                  CONTENTS, ALLOC, LOAD, READONLY, DATA
149 .text._ZNK14QScopedPointerI11QObjectData21QScopedPointerDeleterIS0_EEptEv 0000003e  0000000000000000  0000000000000000  0000079e  2**1
                  CONTENTS, ALLOC, LOAD, RELOC, READONLY, CODE
150 .text._ZN15QBasicAtomicOpsILi4EE5derefIiEEbRT_ 00000023  0000000000000000  0000000000000000  000007dc  2**0
                  CONTENTS, ALLOC, LOAD, READONLY, CODE
151 .text._ZN5QListI7QStringE7deallocEPN9QListData4DataE 0000005e  0000000000000000  0000000000000000  00000800  2**1
                  CONTENTS, ALLOC, LOAD, RELOC, READONLY, CODE
152 .text._ZN5QListI7QStringE13node_destructEPNS1_4NodeES3_ 00000034  0000000000000000  0000000000000000  0000085e  2**1
                  CONTENTS, ALLOC, LOAD, RELOC, READONLY, CODE
153 .data.rel.ro._ZTV4Atom 00000070  0000000000000000  0000000000000000  00000898  2**3
                  CONTENTS, ALLOC, LOAD, RELOC, DATA
154 .text._ZN4AtomD2Ev 00000073  0000000000000000  0000000000000000  00000908  2**1
                  CONTENTS, ALLOC, LOAD, RELOC, READONLY, CODE
155 .gcc_except_table._ZN4AtomD2Ev 00000010  0000000000000000  0000000000000000  0000097b  2**0
                  CONTENTS, ALLOC, LOAD, READONLY, DATA
156 .text._ZN4AtomD0Ev 00000026  0000000000000000  0000000000000000  0000098c  2**1
                  CONTENTS, ALLOC, LOAD, RELOC, READONLY, CODE
157 .data.rel.ro._ZTI4Atom 00000018  0000000000000000  0000000000000000  000009b8  2**3
                  CONTENTS, ALLOC, LOAD, RELOC, DATA
158 .rodata._ZTS4Atom 00000006  0000000000000000  0000000000000000  000009d0  2**0
                  CONTENTS, ALLOC, LOAD, READONLY, DATA
159 .debug_info   00013877  0000000000000000  0000000000000000  000009d6  2**0
                  CONTENTS, RELOC, READONLY, DEBUGGING
160 .debug_abbrev 00000a4e  0000000000000000  0000000000000000  0001424d  2**0
                  CONTENTS, READONLY, DEBUGGING
161 .debug_aranges 00000110  0000000000000000  0000000000000000  00014c9b  2**0
                  CONTENTS, RELOC, READONLY, DEBUGGING
162 .debug_ranges 00000100  0000000000000000  0000000000000000  00014dab  2**0
                  CONTENTS, RELOC, READONLY, DEBUGGING
163 .debug_macro  0000097d  0000000000000000  0000000000000000  00014eab  2**0
                  CONTENTS, RELOC, READONLY, DEBUGGING
164 .debug_macro  0000061c  0000000000000000  0000000000000000  00015828  2**0
                  CONTENTS, RELOC, READONLY, DEBUGGING
165 .debug_macro  00000022  0000000000000000  0000000000000000  00015e44  2**0
                  CONTENTS, RELOC, READONLY, DEBUGGING
166 .debug_macro  00000136  0000000000000000  0000000000000000  00015e66  2**0
                  CONTENTS, RELOC, READONLY, DEBUGGING
167 .debug_macro  00000010  0000000000000000  0000000000000000  00015f9c  2**0
                  CONTENTS, RELOC, READONLY, DEBUGGING
168 .debug_macro  00000275  0000000000000000  0000000000000000  00015fac  2**0
                  CONTENTS, RELOC, READONLY, DEBUGGING
169 .debug_macro  0000016f  0000000000000000  0000000000000000  00016221  2**0
                  CONTENTS, RELOC, READONLY, DEBUGGING
170 .debug_macro  00000016  0000000000000000  0000000000000000  00016390  2**0
                  CONTENTS, RELOC, READONLY, DEBUGGING
171 .debug_macro  00000035  0000000000000000  0000000000000000  000163a6  2**0
                  CONTENTS, RELOC, READONLY, DEBUGGING
172 .debug_macro  00000058  0000000000000000  0000000000000000  000163db  2**0
                  CONTENTS, RELOC, READONLY, DEBUGGING
173 .debug_macro  000005b4  0000000000000000  0000000000000000  00016433  2**0
                  CONTENTS, RELOC, READONLY, DEBUGGING
174 .debug_macro  0000016d  0000000000000000  0000000000000000  000169e7  2**0
                  CONTENTS, RELOC, READONLY, DEBUGGING
175 .debug_macro  00000016  0000000000000000  0000000000000000  00016b54  2**0
                  CONTENTS, RELOC, READONLY, DEBUGGING
176 .debug_macro  0000009a  0000000000000000  0000000000000000  00016b6a  2**0
                  CONTENTS, RELOC, READONLY, DEBUGGING
177 .debug_macro  00000016  0000000000000000  0000000000000000  00016c04  2**0
                  CONTENTS, RELOC, READONLY, DEBUGGING
178 .debug_macro  00000018  0000000000000000  0000000000000000  00016c1a  2**0
                  CONTENTS, RELOC, READONLY, DEBUGGING
179 .debug_macro  00000032  0000000000000000  0000000000000000  00016c32  2**0
                  CONTENTS, RELOC, READONLY, DEBUGGING
180 .debug_macro  000000c0  0000000000000000  0000000000000000  00016c64  2**0
                  CONTENTS, RELOC, READONLY, DEBUGGING
181 .debug_macro  00000028  0000000000000000  0000000000000000  00016d24  2**0
                  CONTENTS, RELOC, READONLY, DEBUGGING
182 .debug_macro  00000012  0000000000000000  0000000000000000  00016d4c  2**0
                  CONTENTS, RELOC, READONLY, DEBUGGING
183 .debug_macro  000000cf  0000000000000000  0000000000000000  00016d5e  2**0
                  CONTENTS, RELOC, READONLY, DEBUGGING
184 .debug_macro  0000001c  0000000000000000  0000000000000000  00016e2d  2**0
                  CONTENTS, RELOC, READONLY, DEBUGGING
185 .debug_macro  00000018  0000000000000000  0000000000000000  00016e49  2**0
                  CONTENTS, RELOC, READONLY, DEBUGGING
186 .debug_macro  0000006e  0000000000000000  0000000000000000  00016e61  2**0
                  CONTENTS, RELOC, READONLY, DEBUGGING
187 .debug_macro  00000082  0000000000000000  0000000000000000  00016ecf  2**0
                  CONTENTS, RELOC, READONLY, DEBUGGING
188 .debug_macro  00000012  0000000000000000  0000000000000000  00016f51  2**0
                  CONTENTS, RELOC, READONLY, DEBUGGING
189 .debug_macro  00000012  0000000000000000  0000000000000000  00016f63  2**0
                  CONTENTS, RELOC, READONLY, DEBUGGING
190 .debug_macro  00000016  0000000000000000  0000000000000000  00016f75  2**0
                  CONTENTS, RELOC, READONLY, DEBUGGING
191 .debug_macro  00000035  0000000000000000  0000000000000000  00016f8b  2**0
                  CONTENTS, RELOC, READONLY, DEBUGGING
192 .debug_macro  00000052  0000000000000000  0000000000000000  00016fc0  2**0
                  CONTENTS, RELOC, READONLY, DEBUGGING
193 .debug_macro  0000004c  0000000000000000  0000000000000000  00017012  2**0
                  CONTENTS, RELOC, READONLY, DEBUGGING
194 .debug_macro  0000001c  0000000000000000  0000000000000000  0001705e  2**0
                  CONTENTS, RELOC, READONLY, DEBUGGING
195 .debug_macro  00000028  0000000000000000  0000000000000000  0001707a  2**0
                  CONTENTS, RELOC, READONLY, DEBUGGING
196 .debug_macro  0000005e  0000000000000000  0000000000000000  000170a2  2**0
                  CONTENTS, RELOC, READONLY, DEBUGGING
197 .debug_macro  000000e2  0000000000000000  0000000000000000  00017100  2**0
                  CONTENTS, RELOC, READONLY, DEBUGGING
198 .debug_macro  00000010  0000000000000000  0000000000000000  000171e2  2**0
                  CONTENTS, RELOC, READONLY, DEBUGGING
199 .debug_macro  0000004c  0000000000000000  0000000000000000  000171f2  2**0
                  CONTENTS, RELOC, READONLY, DEBUGGING
200 .debug_macro  00000022  0000000000000000  0000000000000000  0001723e  2**0
                  CONTENTS, RELOC, READONLY, DEBUGGING
201 .debug_macro  00000068  0000000000000000  0000000000000000  00017260  2**0
                  CONTENTS, RELOC, READONLY, DEBUGGING
202 .debug_macro  0000007f  0000000000000000  0000000000000000  000172c8  2**0
                  CONTENTS, RELOC, READONLY, DEBUGGING
203 .debug_macro  0000003a  0000000000000000  0000000000000000  00017347  2**0
                  CONTENTS, RELOC, READONLY, DEBUGGING
204 .debug_macro  00000019  0000000000000000  0000000000000000  00017381  2**0
                  CONTENTS, RELOC, READONLY, DEBUGGING
205 .debug_macro  00000020  0000000000000000  0000000000000000  0001739a  2**0
                  CONTENTS, RELOC, READONLY, DEBUGGING
206 .debug_macro  00000022  0000000000000000  0000000000000000  000173ba  2**0
                  CONTENTS, RELOC, READONLY, DEBUGGING
207 .debug_macro  00000010  0000000000000000  0000000000000000  000173dc  2**0
                  CONTENTS, RELOC, READONLY, DEBUGGING
208 .debug_macro  00000016  0000000000000000  0000000000000000  000173ec  2**0
                  CONTENTS, RELOC, READONLY, DEBUGGING
209 .debug_macro  00000028  0000000000000000  0000000000000000  00017402  2**0
                  CONTENTS, RELOC, READONLY, DEBUGGING
210 .debug_macro  00000010  0000000000000000  0000000000000000  0001742a  2**0
                  CONTENTS, RELOC, READONLY, DEBUGGING
211 .debug_macro  00000046  0000000000000000  0000000000000000  0001743a  2**0
                  CONTENTS, RELOC, READONLY, DEBUGGING
212 .debug_macro  0000001c  0000000000000000  0000000000000000  00017480  2**0
                  CONTENTS, RELOC, READONLY, DEBUGGING
213 .debug_macro  00000020  0000000000000000  0000000000000000  0001749c  2**0
                  CONTENTS, RELOC, READONLY, DEBUGGING
214 .debug_macro  0000005a  0000000000000000  0000000000000000  000174bc  2**0
                  CONTENTS, RELOC, READONLY, DEBUGGING
215 .debug_macro  00000010  0000000000000000  0000000000000000  00017516  2**0
                  CONTENTS, RELOC, READONLY, DEBUGGING
216 .debug_macro  00000010  0000000000000000  0000000000000000  00017526  2**0
                  CONTENTS, RELOC, READONLY, DEBUGGING
217 .debug_macro  000000e4  0000000000000000  0000000000000000  00017536  2**0
                  CONTENTS, RELOC, READONLY, DEBUGGING
218 .debug_macro  0000025a  0000000000000000  0000000000000000  0001761a  2**0
                  CONTENTS, RELOC, READONLY, DEBUGGING
219 .debug_macro  0000002d  0000000000000000  0000000000000000  00017874  2**0
                  CONTENTS, RELOC, READONLY, DEBUGGING
220 .debug_macro  00000016  0000000000000000  0000000000000000  000178a1  2**0
                  CONTENTS, RELOC, READONLY, DEBUGGING
221 .debug_macro  00000050  0000000000000000  0000000000000000  000178b7  2**0
                  CONTENTS, RELOC, READONLY, DEBUGGING
222 .debug_macro  00000019  0000000000000000  0000000000000000  00017907  2**0
                  CONTENTS, RELOC, READONLY, DEBUGGING
223 .debug_macro  00000011  0000000000000000  0000000000000000  00017920  2**0
                  CONTENTS, RELOC, READONLY, DEBUGGING
224 .debug_macro  0000014b  0000000000000000  0000000000000000  00017931  2**0
                  CONTENTS, RELOC, READONLY, DEBUGGING
225 .debug_macro  0000001e  0000000000000000  0000000000000000  00017a7c  2**0
                  CONTENTS, RELOC, READONLY, DEBUGGING
226 .debug_macro  0000001c  0000000000000000  0000000000000000  00017a9a  2**0
                  CONTENTS, RELOC, READONLY, DEBUGGING
227 .debug_macro  0000001e  0000000000000000  0000000000000000  00017ab6  2**0
                  CONTENTS, RELOC, READONLY, DEBUGGING
228 .debug_macro  000000fc  0000000000000000  0000000000000000  00017ad4  2**0
                  CONTENTS, RELOC, READONLY, DEBUGGING
229 .debug_macro  00000016  0000000000000000  0000000000000000  00017bd0  2**0
                  CONTENTS, RELOC, READONLY, DEBUGGING
230 .debug_macro  00000018  0000000000000000  0000000000000000  00017be6  2**0
                  CONTENTS, RELOC, READONLY, DEBUGGING
231 .debug_macro  00000019  0000000000000000  0000000000000000  00017bfe  2**0
                  CONTENTS, RELOC, READONLY, DEBUGGING
232 .debug_macro  00000058  0000000000000000  0000000000000000  00017c17  2**0
                  CONTENTS, RELOC, READONLY, DEBUGGING
233 .debug_macro  00000016  0000000000000000  0000000000000000  00017c6f  2**0
                  CONTENTS, RELOC, READONLY, DEBUGGING
234 .debug_macro  0000001c  0000000000000000  0000000000000000  00017c85  2**0
                  CONTENTS, RELOC, READONLY, DEBUGGING
235 .debug_macro  00000016  0000000000000000  0000000000000000  00017ca1  2**0
                  CONTENTS, RELOC, READONLY, DEBUGGING
236 .debug_macro  00000022  0000000000000000  0000000000000000  00017cb7  2**0
                  CONTENTS, RELOC, READONLY, DEBUGGING
237 .debug_macro  00000043  0000000000000000  0000000000000000  00017cd9  2**0
                  CONTENTS, RELOC, READONLY, DEBUGGING
238 .debug_macro  0000003c  0000000000000000  0000000000000000  00017d1c  2**0
                  CONTENTS, RELOC, READONLY, DEBUGGING
239 .debug_macro  00000173  0000000000000000  0000000000000000  00017d58  2**0
                  CONTENTS, RELOC, READONLY, DEBUGGING
240 .debug_macro  00000012  0000000000000000  0000000000000000  00017ecb  2**0
                  CONTENTS, RELOC, READONLY, DEBUGGING
241 .debug_macro  00000010  0000000000000000  0000000000000000  00017edd  2**0
                  CONTENTS, RELOC, READONLY, DEBUGGING
242 .debug_macro  00000058  0000000000000000  0000000000000000  00017eed  2**0
                  CONTENTS, RELOC, READONLY, DEBUGGING
243 .debug_macro  000000b4  0000000000000000  0000000000000000  00017f45  2**0
                  CONTENTS, RELOC, READONLY, DEBUGGING
244 .debug_macro  00000016  0000000000000000  0000000000000000  00017ff9  2**0
                  CONTENTS, RELOC, READONLY, DEBUGGING
245 .debug_macro  00000010  0000000000000000  0000000000000000  0001800f  2**0
                  CONTENTS, RELOC, READONLY, DEBUGGING
246 .debug_macro  00000037  0000000000000000  0000000000000000  0001801f  2**0
                  CONTENTS, RELOC, READONLY, DEBUGGING
247 .debug_macro  00000058  0000000000000000  0000000000000000  00018056  2**0
                  CONTENTS, RELOC, READONLY, DEBUGGING
248 .debug_macro  00000011  0000000000000000  0000000000000000  000180ae  2**0
                  CONTENTS, RELOC, READONLY, DEBUGGING
249 .debug_macro  00000016  0000000000000000  0000000000000000  000180bf  2**0
                  CONTENTS, RELOC, READONLY, DEBUGGING
250 .debug_macro  00000010  0000000000000000  0000000000000000  000180d5  2**0
                  CONTENTS, RELOC, READONLY, DEBUGGING
251 .debug_macro  00000010  0000000000000000  0000000000000000  000180e5  2**0
                  CONTENTS, RELOC, READONLY, DEBUGGING
252 .debug_macro  00000022  0000000000000000  0000000000000000  000180f5  2**0
                  CONTENTS, RELOC, READONLY, DEBUGGING
253 .debug_macro  00000122  0000000000000000  0000000000000000  00018117  2**0
                  CONTENTS, RELOC, READONLY, DEBUGGING
254 .debug_macro  0000008e  0000000000000000  0000000000000000  00018239  2**0
                  CONTENTS, RELOC, READONLY, DEBUGGING
255 .debug_macro  00000016  0000000000000000  0000000000000000  000182c7  2**0
                  CONTENTS, RELOC, READONLY, DEBUGGING
256 .debug_macro  00000058  0000000000000000  0000000000000000  000182dd  2**0
                  CONTENTS, RELOC, READONLY, DEBUGGING
257 .debug_macro  000000fa  0000000000000000  0000000000000000  00018335  2**0
                  CONTENTS, RELOC, READONLY, DEBUGGING
258 .debug_macro  00000030  0000000000000000  0000000000000000  0001842f  2**0
                  CONTENTS, RELOC, READONLY, DEBUGGING
259 .debug_macro  000000c1  0000000000000000  0000000000000000  0001845f  2**0
                  CONTENTS, RELOC, READONLY, DEBUGGING
260 .debug_macro  0000004d  0000000000000000  0000000000000000  00018520  2**0
                  CONTENTS, RELOC, READONLY, DEBUGGING
261 .debug_macro  00000010  0000000000000000  0000000000000000  0001856d  2**0
                  CONTENTS, RELOC, READONLY, DEBUGGING
262 .debug_macro  00000019  0000000000000000  0000000000000000  0001857d  2**0
                  CONTENTS, RELOC, READONLY, DEBUGGING
263 .debug_macro  00000020  0000000000000000  0000000000000000  00018596  2**0
                  CONTENTS, RELOC, READONLY, DEBUGGING
264 .debug_macro  00000018  0000000000000000  0000000000000000  000185b6  2**0
                  CONTENTS, RELOC, READONLY, DEBUGGING
265 .debug_macro  00000023  0000000000000000  0000000000000000  000185ce  2**0
                  CONTENTS, RELOC, READONLY, DEBUGGING
266 .debug_macro  00000010  0000000000000000  0000000000000000  000185f1  2**0
                  CONTENTS, RELOC, READONLY, DEBUGGING
267 .debug_macro  00000016  0000000000000000  0000000000000000  00018601  2**0
                  CONTENTS, RELOC, READONLY, DEBUGGING
268 .debug_macro  00000076  0000000000000000  0000000000000000  00018617  2**0
                  CONTENTS, RELOC, READONLY, DEBUGGING
269 .debug_macro  00000016  0000000000000000  0000000000000000  0001868d  2**0
                  CONTENTS, RELOC, READONLY, DEBUGGING
270 .debug_macro  00000025  0000000000000000  0000000000000000  000186a3  2**0
                  CONTENTS, RELOC, READONLY, DEBUGGING
271 .debug_macro  000000de  0000000000000000  0000000000000000  000186c8  2**0
                  CONTENTS, RELOC, READONLY, DEBUGGING
272 .debug_macro  0000001c  0000000000000000  0000000000000000  000187a6  2**0
                  CONTENTS, RELOC, READONLY, DEBUGGING
273 .debug_macro  00000058  0000000000000000  0000000000000000  000187c2  2**0
                  CONTENTS, RELOC, READONLY, DEBUGGING
274 .debug_macro  00000088  0000000000000000  0000000000000000  0001881a  2**0
                  CONTENTS, RELOC, READONLY, DEBUGGING
275 .debug_macro  00000076  0000000000000000  0000000000000000  000188a2  2**0
                  CONTENTS, RELOC, READONLY, DEBUGGING
276 .debug_macro  00000010  0000000000000000  0000000000000000  00018918  2**0
                  CONTENTS, RELOC, READONLY, DEBUGGING
277 .debug_macro  00000041  0000000000000000  0000000000000000  00018928  2**0
                  CONTENTS, RELOC, READONLY, DEBUGGING
278 .debug_macro  000000ee  0000000000000000  0000000000000000  00018969  2**0
                  CONTENTS, RELOC, READONLY, DEBUGGING
279 .debug_macro  00000010  0000000000000000  0000000000000000  00018a57  2**0
                  CONTENTS, RELOC, READONLY, DEBUGGING
280 .debug_macro  000000e5  0000000000000000  0000000000000000  00018a67  2**0
                  CONTENTS, RELOC, READONLY, DEBUGGING
281 .debug_macro  00000012  0000000000000000  0000000000000000  00018b4c  2**0
                  CONTENTS, RELOC, READONLY, DEBUGGING
282 .debug_line   00000e6a  0000000000000000  0000000000000000  00018b5e  2**0
                  CONTENTS, RELOC, READONLY, DEBUGGING
283 .debug_str    0002b628  0000000000000000  0000000000000000  000199c8  2**0
                  CONTENTS, READONLY, DEBUGGING
284 .data.DW.ref.__gxx_personality_v0 00000008  0000000000000000  0000000000000000  00044ff0  2**3
                  CONTENTS, ALLOC, LOAD, RELOC, DATA
285 .comment      0000002e  0000000000000000  0000000000000000  00044ff8  2**0
                  CONTENTS, READONLY
286 .note.GNU-stack 00000000  0000000000000000  0000000000000000  00045026  2**0
                  CONTENTS, READONLY
287 .eh_frame     00000288  0000000000000000  0000000000000000  00045028  2**3
                  CONTENTS, ALLOC, LOAD, RELOC, READONLY, DATA

Дизассемблирование раздела .text:

0000000000000000 <_ZN4Atom18qt_static_metacallEP7QObjectN11QMetaObject4CallEiPPv>:

       0        // eod
};

void Atom::qt_static_metacall(QObject *_o, QMetaObject::Call _c, int _id, void **_a)
{
   0:	55                   	push   %rbp
   1:	48 89 e5             	mov    %rsp,%rbp
   4:	48 89 7d f8          	mov    %rdi,-0x8(%rbp)
   8:	89 75 f4             	mov    %esi,-0xc(%rbp)
   b:	89 55 f0             	mov    %edx,-0x10(%rbp)
   e:	48 89 4d e8          	mov    %rcx,-0x18(%rbp)
    Q_UNUSED(_o);
    Q_UNUSED(_id);
    Q_UNUSED(_c);
    Q_UNUSED(_a);
}
  12:	90                   	nop
  13:	5d                   	pop    %rbp
  14:	c3                   	retq   
  15:	90                   	nop

0000000000000016 <_ZNK4Atom10metaObjectEv>:
      qt_meta_data_Atom,  qt_static_metacall, Q_NULLPTR, Q_NULLPTR}
};


const QMetaObject *Atom::metaObject() const
{
  16:	55                   	push   %rbp
  17:	48 89 e5             	mov    %rsp,%rbp
  1a:	48 83 ec 10          	sub    $0x10,%rsp
  1e:	48 89 7d f8          	mov    %rdi,-0x8(%rbp)
    return QObject::d_ptr->metaObject ? QObject::d_ptr->dynamicMetaObject() : &staticMetaObject;
  22:	48 8b 45 f8          	mov    -0x8(%rbp),%rax
  26:	48 83 c0 08          	add    $0x8,%rax
  2a:	48 89 c7             	mov    %rax,%rdi
  2d:	e8 00 00 00 00       	callq  32 <_ZNK4Atom10metaObjectEv+0x1c>
  32:	48 8b 40 28          	mov    0x28(%rax),%rax
  36:	48 85 c0             	test   %rax,%rax
  39:	74 1a                	je     55 <_ZNK4Atom10metaObjectEv+0x3f>
  3b:	48 8b 45 f8          	mov    -0x8(%rbp),%rax
  3f:	48 83 c0 08          	add    $0x8,%rax
  43:	48 89 c7             	mov    %rax,%rdi
  46:	e8 00 00 00 00       	callq  4b <_ZNK4Atom10metaObjectEv+0x35>
  4b:	48 89 c7             	mov    %rax,%rdi
  4e:	e8 00 00 00 00       	callq  53 <_ZNK4Atom10metaObjectEv+0x3d>
  53:	eb 07                	jmp    5c <_ZNK4Atom10metaObjectEv+0x46>
  55:	48 8b 05 00 00 00 00 	mov    0x0(%rip),%rax        # 5c <_ZNK4Atom10metaObjectEv+0x46>
}
  5c:	c9                   	leaveq 
  5d:	c3                   	retq   

000000000000005e <_ZN4Atom11qt_metacastEPKc>:

void *Atom::qt_metacast(const char *_clname)
{
  5e:	55                   	push   %rbp
  5f:	48 89 e5             	mov    %rsp,%rbp
  62:	48 83 ec 10          	sub    $0x10,%rsp
  66:	48 89 7d f8          	mov    %rdi,-0x8(%rbp)
  6a:	48 89 75 f0          	mov    %rsi,-0x10(%rbp)
    if (!_clname) return Q_NULLPTR;
  6e:	48 83 7d f0 00       	cmpq   $0x0,-0x10(%rbp)
  73:	75 07                	jne    7c <_ZN4Atom11qt_metacastEPKc+0x1e>
  75:	b8 00 00 00 00       	mov    $0x0,%eax
  7a:	eb 30                	jmp    ac <_ZN4Atom11qt_metacastEPKc+0x4e>
    if (!strcmp(_clname, qt_meta_stringdata_Atom.stringdata0))
  7c:	48 8b 45 f0          	mov    -0x10(%rbp),%rax
  80:	48 8d 35 00 00 00 00 	lea    0x0(%rip),%rsi        # 87 <_ZN4Atom11qt_metacastEPKc+0x29>
  87:	48 89 c7             	mov    %rax,%rdi
  8a:	e8 00 00 00 00       	callq  8f <_ZN4Atom11qt_metacastEPKc+0x31>
  8f:	85 c0                	test   %eax,%eax
  91:	75 06                	jne    99 <_ZN4Atom11qt_metacastEPKc+0x3b>
        return static_cast<void*>(const_cast< Atom*>(this));
  93:	48 8b 45 f8          	mov    -0x8(%rbp),%rax
  97:	eb 13                	jmp    ac <_ZN4Atom11qt_metacastEPKc+0x4e>
    return QObject::qt_metacast(_clname);
  99:	48 8b 45 f8          	mov    -0x8(%rbp),%rax
  9d:	48 8b 55 f0          	mov    -0x10(%rbp),%rdx
  a1:	48 89 d6             	mov    %rdx,%rsi
  a4:	48 89 c7             	mov    %rax,%rdi
  a7:	e8 00 00 00 00       	callq  ac <_ZN4Atom11qt_metacastEPKc+0x4e>
}
  ac:	c9                   	leaveq 
  ad:	c3                   	retq   

00000000000000ae <_ZN4Atom11qt_metacallEN11QMetaObject4CallEiPPv>:

int Atom::qt_metacall(QMetaObject::Call _c, int _id, void **_a)
{
  ae:	55                   	push   %rbp
  af:	48 89 e5             	mov    %rsp,%rbp
  b2:	48 83 ec 20          	sub    $0x20,%rsp
  b6:	48 89 7d f8          	mov    %rdi,-0x8(%rbp)
  ba:	89 75 f4             	mov    %esi,-0xc(%rbp)
  bd:	89 55 f0             	mov    %edx,-0x10(%rbp)
  c0:	48 89 4d e8          	mov    %rcx,-0x18(%rbp)
    _id = QObject::qt_metacall(_c, _id, _a);
  c4:	48 8b 45 f8          	mov    -0x8(%rbp),%rax
  c8:	48 8b 4d e8          	mov    -0x18(%rbp),%rcx
  cc:	8b 55 f0             	mov    -0x10(%rbp),%edx
  cf:	8b 75 f4             	mov    -0xc(%rbp),%esi
  d2:	48 89 c7             	mov    %rax,%rdi
  d5:	e8 00 00 00 00       	callq  da <_ZN4Atom11qt_metacallEN11QMetaObject4CallEiPPv+0x2c>
  da:	89 45 f0             	mov    %eax,-0x10(%rbp)
    if (_id < 0)
  dd:	83 7d f0 00          	cmpl   $0x0,-0x10(%rbp)
  e1:	79 05                	jns    e8 <_ZN4Atom11qt_metacallEN11QMetaObject4CallEiPPv+0x3a>
        return _id;
  e3:	8b 45 f0             	mov    -0x10(%rbp),%eax
  e6:	eb 03                	jmp    eb <_ZN4Atom11qt_metacallEN11QMetaObject4CallEiPPv+0x3d>
    return _id;
  e8:	8b 45 f0             	mov    -0x10(%rbp),%eax
}
  eb:	c9                   	leaveq 
  ec:	c3                   	retq   

Дизассемблирование раздела .text._Z7qt_noopv:

0000000000000000 <_Z7qt_noopv>:

       0        // eod
};

void Atom::qt_static_metacall(QObject *_o, QMetaObject::Call _c, int _id, void **_a)
{
   0:	55                   	push   %rbp
   1:	48 89 e5             	mov    %rsp,%rbp
   4:	90                   	nop
   5:	5d                   	pop    %rbp
   6:	c3                   	retq   

Дизассемблирование раздела .text._ZN9QtPrivate8RefCount5derefEv:

0000000000000000 <_ZN9QtPrivate8RefCount5derefEv>:
   0:	55                   	push   %rbp
   1:	48 89 e5             	mov    %rsp,%rbp
   4:	48 83 ec 20          	sub    $0x20,%rsp
   8:	48 89 7d e8          	mov    %rdi,-0x18(%rbp)
   c:	48 8b 45 e8          	mov    -0x18(%rbp),%rax
  10:	48 89 c7             	mov    %rax,%rdi
    Q_UNUSED(_o);
    Q_UNUSED(_id);
    Q_UNUSED(_c);
    Q_UNUSED(_a);
}
  13:	e8 00 00 00 00       	callq  18 <_ZN9QtPrivate8RefCount5derefEv+0x18>
      qt_meta_data_Atom,  qt_static_metacall, Q_NULLPTR, Q_NULLPTR}
};


const QMetaObject *Atom::metaObject() const
{
  18:	89 45 fc             	mov    %eax,-0x4(%rbp)
  1b:	83 7d fc 00          	cmpl   $0x0,-0x4(%rbp)
  1f:	75 07                	jne    28 <_ZN9QtPrivate8RefCount5derefEv+0x28>
  21:	b8 00 00 00 00       	mov    $0x0,%eax
    return QObject::d_ptr->metaObject ? QObject::d_ptr->dynamicMetaObject() : &staticMetaObject;
  26:	eb 19                	jmp    41 <_ZN9QtPrivate8RefCount5derefEv+0x41>
  28:	83 7d fc ff          	cmpl   $0xffffffff,-0x4(%rbp)
  2c:	75 07                	jne    35 <_ZN9QtPrivate8RefCount5derefEv+0x35>
  2e:	b8 01 00 00 00       	mov    $0x1,%eax
  33:	eb 0c                	jmp    41 <_ZN9QtPrivate8RefCount5derefEv+0x41>
  35:	48 8b 45 e8          	mov    -0x18(%rbp),%rax
  39:	48 89 c7             	mov    %rax,%rdi
  3c:	e8 00 00 00 00       	callq  41 <_ZN9QtPrivate8RefCount5derefEv+0x41>
  41:	c9                   	leaveq 
  42:	c3                   	retq   

Дизассемблирование раздела .text._ZN7QStringD2Ev:

0000000000000000 <_ZN7QStringD1Ev>:

       0        // eod
};

void Atom::qt_static_metacall(QObject *_o, QMetaObject::Call _c, int _id, void **_a)
{
   0:	55                   	push   %rbp
   1:	48 89 e5             	mov    %rsp,%rbp
   4:	48 83 ec 10          	sub    $0x10,%rsp
   8:	48 89 7d f8          	mov    %rdi,-0x8(%rbp)
   c:	48 8b 45 f8          	mov    -0x8(%rbp),%rax
  10:	48 8b 00             	mov    (%rax),%rax
    Q_UNUSED(_o);
    Q_UNUSED(_id);
    Q_UNUSED(_c);
    Q_UNUSED(_a);
}
  13:	48 89 c7             	mov    %rax,%rdi
      qt_meta_data_Atom,  qt_static_metacall, Q_NULLPTR, Q_NULLPTR}
};


const QMetaObject *Atom::metaObject() const
{
  16:	e8 00 00 00 00       	callq  1b <_ZN7QStringD1Ev+0x1b>
  1b:	83 f0 01             	xor    $0x1,%eax
  1e:	84 c0                	test   %al,%al
  20:	74 0f                	je     31 <_ZN7QStringD1Ev+0x31>
    return QObject::d_ptr->metaObject ? QObject::d_ptr->dynamicMetaObject() : &staticMetaObject;
  22:	48 8b 45 f8          	mov    -0x8(%rbp),%rax
  26:	48 8b 00             	mov    (%rax),%rax
  29:	48 89 c7             	mov    %rax,%rdi
  2c:	e8 00 00 00 00       	callq  31 <_ZN7QStringD1Ev+0x31>
  31:	90                   	nop
  32:	c9                   	leaveq 
  33:	c3                   	retq   

Дизассемблирование раздела .text._ZN19QListSpecialMethodsI7QStringED2Ev:

0000000000000000 <_ZN19QListSpecialMethodsI7QStringED1Ev>:

       0        // eod
};

void Atom::qt_static_metacall(QObject *_o, QMetaObject::Call _c, int _id, void **_a)
{
   0:	55                   	push   %rbp
   1:	48 89 e5             	mov    %rsp,%rbp
   4:	48 89 7d f8          	mov    %rdi,-0x8(%rbp)
   8:	90                   	nop
   9:	5d                   	pop    %rbp
   a:	c3                   	retq   

Дизассемблирование раздела .text._ZNK19QBasicAtomicIntegerIiE4loadEv:

0000000000000000 <_ZNK19QBasicAtomicIntegerIiE4loadEv>:
   0:	55                   	push   %rbp
   1:	48 89 e5             	mov    %rsp,%rbp
   4:	48 89 7d e8          	mov    %rdi,-0x18(%rbp)
   8:	48 8b 45 e8          	mov    -0x18(%rbp),%rax
   c:	48 89 45 f8          	mov    %rax,-0x8(%rbp)
  10:	48 8b 45 f8          	mov    -0x8(%rbp),%rax
    Q_UNUSED(_o);
    Q_UNUSED(_id);
    Q_UNUSED(_c);
    Q_UNUSED(_a);
}
  14:	8b 00                	mov    (%rax),%eax
      qt_meta_data_Atom,  qt_static_metacall, Q_NULLPTR, Q_NULLPTR}
};


const QMetaObject *Atom::metaObject() const
{
  16:	90                   	nop
  17:	5d                   	pop    %rbp
  18:	c3                   	retq   

Дизассемблирование раздела .text._ZN19QBasicAtomicIntegerIiE5derefEv:

0000000000000000 <_ZN19QBasicAtomicIntegerIiE5derefEv>:

       0        // eod
};

void Atom::qt_static_metacall(QObject *_o, QMetaObject::Call _c, int _id, void **_a)
{
   0:	55                   	push   %rbp
   1:	48 89 e5             	mov    %rsp,%rbp
   4:	48 83 ec 10          	sub    $0x10,%rsp
   8:	48 89 7d f8          	mov    %rdi,-0x8(%rbp)
   c:	48 8b 45 f8          	mov    -0x8(%rbp),%rax
  10:	48 89 c7             	mov    %rax,%rdi
    Q_UNUSED(_o);
    Q_UNUSED(_id);
    Q_UNUSED(_c);
    Q_UNUSED(_a);
}
  13:	e8 00 00 00 00       	callq  18 <_ZN19QBasicAtomicIntegerIiE5derefEv+0x18>
      qt_meta_data_Atom,  qt_static_metacall, Q_NULLPTR, Q_NULLPTR}
};


const QMetaObject *Atom::metaObject() const
{
  18:	c9                   	leaveq 
  19:	c3                   	retq   

Дизассемблирование раздела .text._ZN15QTypedArrayDataItE10deallocateEP10QArrayData:

0000000000000000 <_ZN15QTypedArrayDataItE10deallocateEP10QArrayData>:

       0        // eod
};

void Atom::qt_static_metacall(QObject *_o, QMetaObject::Call _c, int _id, void **_a)
{
   0:	55                   	push   %rbp
   1:	48 89 e5             	mov    %rsp,%rbp
   4:	48 83 ec 10          	sub    $0x10,%rsp
   8:	48 89 7d f8          	mov    %rdi,-0x8(%rbp)
   c:	48 8b 45 f8          	mov    -0x8(%rbp),%rax
  10:	ba 08 00 00 00       	mov    $0x8,%edx
    Q_UNUSED(_o);
    Q_UNUSED(_id);
    Q_UNUSED(_c);
    Q_UNUSED(_a);
}
  15:	be 02 00 00 00       	mov    $0x2,%esi
      qt_meta_data_Atom,  qt_static_metacall, Q_NULLPTR, Q_NULLPTR}
};


const QMetaObject *Atom::metaObject() const
{
  1a:	48 89 c7             	mov    %rax,%rdi
  1d:	e8 00 00 00 00       	callq  22 <_ZN15QTypedArrayDataItE10deallocateEP10QArrayData+0x22>
    return QObject::d_ptr->metaObject ? QObject::d_ptr->dynamicMetaObject() : &staticMetaObject;
  22:	90                   	nop
  23:	c9                   	leaveq 
  24:	c3                   	retq   

Дизассемблирование раздела .text._ZN5QListI7QStringED2Ev:

0000000000000000 <_ZN5QListI7QStringED1Ev>:

       0        // eod
};

void Atom::qt_static_metacall(QObject *_o, QMetaObject::Call _c, int _id, void **_a)
{
   0:	55                   	push   %rbp
   1:	48 89 e5             	mov    %rsp,%rbp
   4:	53                   	push   %rbx
   5:	48 83 ec 18          	sub    $0x18,%rsp
   9:	48 89 7d e8          	mov    %rdi,-0x18(%rbp)
   d:	48 8b 45 e8          	mov    -0x18(%rbp),%rax
  11:	48 8b 00             	mov    (%rax),%rax
    Q_UNUSED(_o);
    Q_UNUSED(_id);
    Q_UNUSED(_c);
    Q_UNUSED(_a);
}
  14:	48 89 c7             	mov    %rax,%rdi
      qt_meta_data_Atom,  qt_static_metacall, Q_NULLPTR, Q_NULLPTR}
};


const QMetaObject *Atom::metaObject() const
{
  17:	e8 00 00 00 00       	callq  1c <_ZN5QListI7QStringED1Ev+0x1c>
  1c:	83 f0 01             	xor    $0x1,%eax
  1f:	84 c0                	test   %al,%al
  21:	74 16                	je     39 <_ZN5QListI7QStringED1Ev+0x39>
    return QObject::d_ptr->metaObject ? QObject::d_ptr->dynamicMetaObject() : &staticMetaObject;
  23:	48 8b 45 e8          	mov    -0x18(%rbp),%rax
  27:	48 8b 10             	mov    (%rax),%rdx
  2a:	48 8b 45 e8          	mov    -0x18(%rbp),%rax
  2e:	48 89 d6             	mov    %rdx,%rsi
  31:	48 89 c7             	mov    %rax,%rdi
  34:	e8 00 00 00 00       	callq  39 <_ZN5QListI7QStringED1Ev+0x39>
  39:	48 8b 45 e8          	mov    -0x18(%rbp),%rax
  3d:	48 89 c7             	mov    %rax,%rdi
  40:	e8 00 00 00 00       	callq  45 <_ZN5QListI7QStringED1Ev+0x45>
  45:	eb 1a                	jmp    61 <_ZN5QListI7QStringED1Ev+0x61>
  47:	48 89 c3             	mov    %rax,%rbx
  4a:	48 8b 45 e8          	mov    -0x18(%rbp),%rax
  4e:	48 89 c7             	mov    %rax,%rdi
  51:	e8 00 00 00 00       	callq  56 <_ZN5QListI7QStringED1Ev+0x56>
  56:	48 89 d8             	mov    %rbx,%rax
  59:	48 89 c7             	mov    %rax,%rdi
}
  5c:	e8 00 00 00 00       	callq  61 <_ZN5QListI7QStringED1Ev+0x61>

void *Atom::qt_metacast(const char *_clname)
{
  61:	48 83 c4 18          	add    $0x18,%rsp
  65:	5b                   	pop    %rbx
  66:	5d                   	pop    %rbp
  67:	c3                   	retq   

Дизассемблирование раздела .text._ZNK14QScopedPointerI11QObjectData21QScopedPointerDeleterIS0_EEptEv:

0000000000000000 <_ZNK14QScopedPointerI11QObjectData21QScopedPointerDeleterIS0_EEptEv>:

       0        // eod
};

void Atom::qt_static_metacall(QObject *_o, QMetaObject::Call _c, int _id, void **_a)
{
   0:	55                   	push   %rbp
   1:	48 89 e5             	mov    %rsp,%rbp
   4:	48 83 ec 10          	sub    $0x10,%rsp
   8:	48 89 7d f8          	mov    %rdi,-0x8(%rbp)
   c:	48 8b 45 f8          	mov    -0x8(%rbp),%rax
  10:	48 8b 00             	mov    (%rax),%rax
    Q_UNUSED(_o);
    Q_UNUSED(_id);
    Q_UNUSED(_c);
    Q_UNUSED(_a);
}
  13:	48 85 c0             	test   %rax,%rax
      qt_meta_data_Atom,  qt_static_metacall, Q_NULLPTR, Q_NULLPTR}
};


const QMetaObject *Atom::metaObject() const
{
  16:	75 18                	jne    30 <_ZNK14QScopedPointerI11QObjectData21QScopedPointerDeleterIS0_EEptEv+0x30>
  18:	ba 70 00 00 00       	mov    $0x70,%edx
  1d:	48 8d 35 00 00 00 00 	lea    0x0(%rip),%rsi        # 24 <_ZNK14QScopedPointerI11QObjectData21QScopedPointerDeleterIS0_EEptEv+0x24>
    return QObject::d_ptr->metaObject ? QObject::d_ptr->dynamicMetaObject() : &staticMetaObject;
  24:	48 8d 3d 00 00 00 00 	lea    0x0(%rip),%rdi        # 2b <_ZNK14QScopedPointerI11QObjectData21QScopedPointerDeleterIS0_EEptEv+0x2b>
  2b:	e8 00 00 00 00       	callq  30 <_ZNK14QScopedPointerI11QObjectData21QScopedPointerDeleterIS0_EEptEv+0x30>
  30:	e8 00 00 00 00       	callq  35 <_ZNK14QScopedPointerI11QObjectData21QScopedPointerDeleterIS0_EEptEv+0x35>
  35:	48 8b 45 f8          	mov    -0x8(%rbp),%rax
  39:	48 8b 00             	mov    (%rax),%rax
  3c:	c9                   	leaveq 
  3d:	c3                   	retq   

Дизассемблирование раздела .text._ZN15QBasicAtomicOpsILi4EE5derefIiEEbRT_:

0000000000000000 <_ZN15QBasicAtomicOpsILi4EE5derefIiEEbRT_>:

       0        // eod
};

void Atom::qt_static_metacall(QObject *_o, QMetaObject::Call _c, int _id, void **_a)
{
   0:	55                   	push   %rbp
   1:	48 89 e5             	mov    %rsp,%rbp
   4:	48 89 7d e8          	mov    %rdi,-0x18(%rbp)
   8:	48 8b 45 e8          	mov    -0x18(%rbp),%rax
   c:	48 8b 55 e8          	mov    -0x18(%rbp),%rdx
  10:	f0 83 28 01          	lock subl $0x1,(%rax)
    Q_UNUSED(_o);
    Q_UNUSED(_id);
    Q_UNUSED(_c);
    Q_UNUSED(_a);
}
  14:	0f 95 c2             	setne  %dl
      qt_meta_data_Atom,  qt_static_metacall, Q_NULLPTR, Q_NULLPTR}
};


const QMetaObject *Atom::metaObject() const
{
  17:	88 55 ff             	mov    %dl,-0x1(%rbp)
  1a:	80 7d ff 00          	cmpb   $0x0,-0x1(%rbp)
  1e:	0f 95 c0             	setne  %al
  21:	5d                   	pop    %rbp
    return QObject::d_ptr->metaObject ? QObject::d_ptr->dynamicMetaObject() : &staticMetaObject;
  22:	c3                   	retq   

Дизассемблирование раздела .text._ZN5QListI7QStringE7deallocEPN9QListData4DataE:

0000000000000000 <_ZN5QListI7QStringE7deallocEPN9QListData4DataE>:

       0        // eod
};

void Atom::qt_static_metacall(QObject *_o, QMetaObject::Call _c, int _id, void **_a)
{
   0:	55                   	push   %rbp
   1:	48 89 e5             	mov    %rsp,%rbp
   4:	48 83 ec 10          	sub    $0x10,%rsp
   8:	48 89 7d f8          	mov    %rdi,-0x8(%rbp)
   c:	48 89 75 f0          	mov    %rsi,-0x10(%rbp)
  10:	48 8b 45 f0          	mov    -0x10(%rbp),%rax
    Q_UNUSED(_o);
    Q_UNUSED(_id);
    Q_UNUSED(_c);
    Q_UNUSED(_a);
}
  14:	48 8d 50 10          	lea    0x10(%rax),%rdx
      qt_meta_data_Atom,  qt_static_metacall, Q_NULLPTR, Q_NULLPTR}
};


const QMetaObject *Atom::metaObject() const
{
  18:	48 8b 45 f0          	mov    -0x10(%rbp),%rax
  1c:	8b 40 0c             	mov    0xc(%rax),%eax
  1f:	48 98                	cltq   
  21:	48 c1 e0 03          	shl    $0x3,%rax
    return QObject::d_ptr->metaObject ? QObject::d_ptr->dynamicMetaObject() : &staticMetaObject;
  25:	48 01 c2             	add    %rax,%rdx
  28:	48 8b 45 f0          	mov    -0x10(%rbp),%rax
  2c:	48 8d 48 10          	lea    0x10(%rax),%rcx
  30:	48 8b 45 f0          	mov    -0x10(%rbp),%rax
  34:	8b 40 08             	mov    0x8(%rax),%eax
  37:	48 98                	cltq   
  39:	48 c1 e0 03          	shl    $0x3,%rax
  3d:	48 01 c1             	add    %rax,%rcx
  40:	48 8b 45 f8          	mov    -0x8(%rbp),%rax
  44:	48 89 ce             	mov    %rcx,%rsi
  47:	48 89 c7             	mov    %rax,%rdi
  4a:	e8 00 00 00 00       	callq  4f <_ZN5QListI7QStringE7deallocEPN9QListData4DataE+0x4f>
  4f:	48 8b 45 f0          	mov    -0x10(%rbp),%rax
  53:	48 89 c7             	mov    %rax,%rdi
  56:	e8 00 00 00 00       	callq  5b <_ZN5QListI7QStringE7deallocEPN9QListData4DataE+0x5b>
  5b:	90                   	nop
}
  5c:	c9                   	leaveq 
  5d:	c3                   	retq   

Дизассемблирование раздела .text._ZN5QListI7QStringE13node_destructEPNS1_4NodeES3_:

0000000000000000 <_ZN5QListI7QStringE13node_destructEPNS1_4NodeES3_>:

       0        // eod
};

void Atom::qt_static_metacall(QObject *_o, QMetaObject::Call _c, int _id, void **_a)
{
   0:	55                   	push   %rbp
   1:	48 89 e5             	mov    %rsp,%rbp
   4:	48 83 ec 20          	sub    $0x20,%rsp
   8:	48 89 7d f8          	mov    %rdi,-0x8(%rbp)
   c:	48 89 75 f0          	mov    %rsi,-0x10(%rbp)
  10:	48 89 55 e8          	mov    %rdx,-0x18(%rbp)
    Q_UNUSED(_o);
    Q_UNUSED(_id);
    Q_UNUSED(_c);
    Q_UNUSED(_a);
}
  14:	48 8b 45 f0          	mov    -0x10(%rbp),%rax
      qt_meta_data_Atom,  qt_static_metacall, Q_NULLPTR, Q_NULLPTR}
};


const QMetaObject *Atom::metaObject() const
{
  18:	48 3b 45 e8          	cmp    -0x18(%rbp),%rax
  1c:	74 13                	je     31 <_ZN5QListI7QStringE13node_destructEPNS1_4NodeES3_+0x31>
  1e:	48 83 6d e8 08       	subq   $0x8,-0x18(%rbp)
    return QObject::d_ptr->metaObject ? QObject::d_ptr->dynamicMetaObject() : &staticMetaObject;
  23:	48 8b 45 e8          	mov    -0x18(%rbp),%rax
  27:	48 89 c7             	mov    %rax,%rdi
  2a:	e8 00 00 00 00       	callq  2f <_ZN5QListI7QStringE13node_destructEPNS1_4NodeES3_+0x2f>
  2f:	eb e3                	jmp    14 <_ZN5QListI7QStringE13node_destructEPNS1_4NodeES3_+0x14>
  31:	90                   	nop
  32:	c9                   	leaveq 
  33:	c3                   	retq   

Дизассемблирование раздела .text._ZN4AtomD2Ev:

0000000000000000 <_ZN4AtomD1Ev>:

       0        // eod
};

void Atom::qt_static_metacall(QObject *_o, QMetaObject::Call _c, int _id, void **_a)
{
   0:	55                   	push   %rbp
   1:	48 89 e5             	mov    %rsp,%rbp
   4:	53                   	push   %rbx
   5:	48 83 ec 18          	sub    $0x18,%rsp
   9:	48 89 7d e8          	mov    %rdi,-0x18(%rbp)
   d:	48 8b 05 00 00 00 00 	mov    0x0(%rip),%rax        # 14 <_ZN4AtomD1Ev+0x14>
    Q_UNUSED(_o);
    Q_UNUSED(_id);
    Q_UNUSED(_c);
    Q_UNUSED(_a);
}
  14:	48 8d 50 10          	lea    0x10(%rax),%rdx
      qt_meta_data_Atom,  qt_static_metacall, Q_NULLPTR, Q_NULLPTR}
};


const QMetaObject *Atom::metaObject() const
{
  18:	48 8b 45 e8          	mov    -0x18(%rbp),%rax
  1c:	48 89 10             	mov    %rdx,(%rax)
  1f:	48 8b 45 e8          	mov    -0x18(%rbp),%rax
    return QObject::d_ptr->metaObject ? QObject::d_ptr->dynamicMetaObject() : &staticMetaObject;
  23:	48 83 c0 10          	add    $0x10,%rax
  27:	48 89 c7             	mov    %rax,%rdi
  2a:	e8 00 00 00 00       	callq  2f <_ZN4AtomD1Ev+0x2f>
  2f:	48 8b 45 e8          	mov    -0x18(%rbp),%rax
  33:	48 89 c7             	mov    %rax,%rdi
  36:	e8 00 00 00 00       	callq  3b <_ZN4AtomD1Ev+0x3b>
  3b:	b8 00 00 00 00       	mov    $0x0,%eax
  40:	85 c0                	test   %eax,%eax
  42:	74 28                	je     6c <_ZN4AtomD1Ev+0x6c>
  44:	48 8b 45 e8          	mov    -0x18(%rbp),%rax
  48:	48 89 c7             	mov    %rax,%rdi
  4b:	e8 00 00 00 00       	callq  50 <_ZN4AtomD1Ev+0x50>
  50:	eb 1a                	jmp    6c <_ZN4AtomD1Ev+0x6c>
  52:	48 89 c3             	mov    %rax,%rbx
  55:	48 8b 45 e8          	mov    -0x18(%rbp),%rax
  59:	48 89 c7             	mov    %rax,%rdi
}
  5c:	e8 00 00 00 00       	callq  61 <_ZN4AtomD1Ev+0x61>

void *Atom::qt_metacast(const char *_clname)
{
  61:	48 89 d8             	mov    %rbx,%rax
  64:	48 89 c7             	mov    %rax,%rdi
  67:	e8 00 00 00 00       	callq  6c <_ZN4AtomD1Ev+0x6c>
  6c:	48 83 c4 18          	add    $0x18,%rsp
    if (!_clname) return Q_NULLPTR;
  70:	5b                   	pop    %rbx
  71:	5d                   	pop    %rbp
  72:	c3                   	retq   

Дизассемблирование раздела .text._ZN4AtomD0Ev:

0000000000000000 <_ZN4AtomD0Ev>:

       0        // eod
};

void Atom::qt_static_metacall(QObject *_o, QMetaObject::Call _c, int _id, void **_a)
{
   0:	55                   	push   %rbp
   1:	48 89 e5             	mov    %rsp,%rbp
   4:	48 83 ec 10          	sub    $0x10,%rsp
   8:	48 89 7d f8          	mov    %rdi,-0x8(%rbp)
   c:	48 8b 45 f8          	mov    -0x8(%rbp),%rax
  10:	48 89 c7             	mov    %rax,%rdi
    Q_UNUSED(_o);
    Q_UNUSED(_id);
    Q_UNUSED(_c);
    Q_UNUSED(_a);
}
  13:	e8 00 00 00 00       	callq  18 <_ZN4AtomD0Ev+0x18>
      qt_meta_data_Atom,  qt_static_metacall, Q_NULLPTR, Q_NULLPTR}
};


const QMetaObject *Atom::metaObject() const
{
  18:	48 8b 45 f8          	mov    -0x8(%rbp),%rax
  1c:	48 89 c7             	mov    %rax,%rdi
  1f:	e8 00 00 00 00       	callq  24 <_ZN4AtomD0Ev+0x24>
    return QObject::d_ptr->metaObject ? QObject::d_ptr->dynamicMetaObject() : &staticMetaObject;
  24:	c9                   	leaveq 
  25:	c3                   	retq   
