
moc_mainwindow.o:     формат файла elf64-x86-64

Разделы:
Инд Имя           Размер    VMA               LMA               Файл      Вырав
  0 .group        00000008  0000000000000000  0000000000000000  00000040  2**2
                  CONTENTS, READONLY, EXCLUDE, GROUP, LINK_ONCE_DISCARD
  1 .group        00000008  0000000000000000  0000000000000000  00000048  2**2
                  CONTENTS, READONLY, EXCLUDE, GROUP, LINK_ONCE_DISCARD
  2 .group        00000008  0000000000000000  0000000000000000  00000050  2**2
                  CONTENTS, READONLY, EXCLUDE, GROUP, LINK_ONCE_DISCARD
  3 .group        00000008  0000000000000000  0000000000000000  00000058  2**2
                  CONTENTS, READONLY, EXCLUDE, GROUP, LINK_ONCE_DISCARD
  4 .group        00000008  0000000000000000  0000000000000000  00000060  2**2
                  CONTENTS, READONLY, EXCLUDE, GROUP, LINK_ONCE_DISCARD
  5 .group        00000008  0000000000000000  0000000000000000  00000068  2**2
                  CONTENTS, READONLY, EXCLUDE, GROUP, LINK_ONCE_DISCARD
  6 .group        00000008  0000000000000000  0000000000000000  00000070  2**2
                  CONTENTS, READONLY, EXCLUDE, GROUP, LINK_ONCE_DISCARD
  7 .group        00000008  0000000000000000  0000000000000000  00000078  2**2
                  CONTENTS, READONLY, EXCLUDE, GROUP, LINK_ONCE_DISCARD
  8 .group        00000008  0000000000000000  0000000000000000  00000080  2**2
                  CONTENTS, READONLY, EXCLUDE, GROUP, LINK_ONCE_DISCARD
  9 .group        00000008  0000000000000000  0000000000000000  00000088  2**2
                  CONTENTS, READONLY, EXCLUDE, GROUP, LINK_ONCE_DISCARD
 10 .group        00000008  0000000000000000  0000000000000000  00000090  2**2
                  CONTENTS, READONLY, EXCLUDE, GROUP, LINK_ONCE_DISCARD
 11 .group        00000008  0000000000000000  0000000000000000  00000098  2**2
                  CONTENTS, READONLY, EXCLUDE, GROUP, LINK_ONCE_DISCARD
 12 .group        00000008  0000000000000000  0000000000000000  000000a0  2**2
                  CONTENTS, READONLY, EXCLUDE, GROUP, LINK_ONCE_DISCARD
 13 .group        00000008  0000000000000000  0000000000000000  000000a8  2**2
                  CONTENTS, READONLY, EXCLUDE, GROUP, LINK_ONCE_DISCARD
 14 .group        00000008  0000000000000000  0000000000000000  000000b0  2**2
                  CONTENTS, READONLY, EXCLUDE, GROUP, LINK_ONCE_DISCARD
 15 .group        00000008  0000000000000000  0000000000000000  000000b8  2**2
                  CONTENTS, READONLY, EXCLUDE, GROUP, LINK_ONCE_DISCARD
 16 .group        00000008  0000000000000000  0000000000000000  000000c0  2**2
                  CONTENTS, READONLY, EXCLUDE, GROUP, LINK_ONCE_DISCARD
 17 .group        00000008  0000000000000000  0000000000000000  000000c8  2**2
                  CONTENTS, READONLY, EXCLUDE, GROUP, LINK_ONCE_DISCARD
 18 .group        00000008  0000000000000000  0000000000000000  000000d0  2**2
                  CONTENTS, READONLY, EXCLUDE, GROUP, LINK_ONCE_DISCARD
 19 .group        00000008  0000000000000000  0000000000000000  000000d8  2**2
                  CONTENTS, READONLY, EXCLUDE, GROUP, LINK_ONCE_DISCARD
 20 .group        00000008  0000000000000000  0000000000000000  000000e0  2**2
                  CONTENTS, READONLY, EXCLUDE, GROUP, LINK_ONCE_DISCARD
 21 .group        00000008  0000000000000000  0000000000000000  000000e8  2**2
                  CONTENTS, READONLY, EXCLUDE, GROUP, LINK_ONCE_DISCARD
 22 .group        00000008  0000000000000000  0000000000000000  000000f0  2**2
                  CONTENTS, READONLY, EXCLUDE, GROUP, LINK_ONCE_DISCARD
 23 .group        00000008  0000000000000000  0000000000000000  000000f8  2**2
                  CONTENTS, READONLY, EXCLUDE, GROUP, LINK_ONCE_DISCARD
 24 .group        00000008  0000000000000000  0000000000000000  00000100  2**2
                  CONTENTS, READONLY, EXCLUDE, GROUP, LINK_ONCE_DISCARD
 25 .group        00000008  0000000000000000  0000000000000000  00000108  2**2
                  CONTENTS, READONLY, EXCLUDE, GROUP, LINK_ONCE_DISCARD
 26 .group        00000008  0000000000000000  0000000000000000  00000110  2**2
                  CONTENTS, READONLY, EXCLUDE, GROUP, LINK_ONCE_DISCARD
 27 .group        00000008  0000000000000000  0000000000000000  00000118  2**2
                  CONTENTS, READONLY, EXCLUDE, GROUP, LINK_ONCE_DISCARD
 28 .group        00000008  0000000000000000  0000000000000000  00000120  2**2
                  CONTENTS, READONLY, EXCLUDE, GROUP, LINK_ONCE_DISCARD
 29 .group        00000008  0000000000000000  0000000000000000  00000128  2**2
                  CONTENTS, READONLY, EXCLUDE, GROUP, LINK_ONCE_DISCARD
 30 .group        00000008  0000000000000000  0000000000000000  00000130  2**2
                  CONTENTS, READONLY, EXCLUDE, GROUP, LINK_ONCE_DISCARD
 31 .group        00000008  0000000000000000  0000000000000000  00000138  2**2
                  CONTENTS, READONLY, EXCLUDE, GROUP, LINK_ONCE_DISCARD
 32 .group        00000008  0000000000000000  0000000000000000  00000140  2**2
                  CONTENTS, READONLY, EXCLUDE, GROUP, LINK_ONCE_DISCARD
 33 .group        00000008  0000000000000000  0000000000000000  00000148  2**2
                  CONTENTS, READONLY, EXCLUDE, GROUP, LINK_ONCE_DISCARD
 34 .group        00000008  0000000000000000  0000000000000000  00000150  2**2
                  CONTENTS, READONLY, EXCLUDE, GROUP, LINK_ONCE_DISCARD
 35 .group        00000008  0000000000000000  0000000000000000  00000158  2**2
                  CONTENTS, READONLY, EXCLUDE, GROUP, LINK_ONCE_DISCARD
 36 .group        00000008  0000000000000000  0000000000000000  00000160  2**2
                  CONTENTS, READONLY, EXCLUDE, GROUP, LINK_ONCE_DISCARD
 37 .group        00000008  0000000000000000  0000000000000000  00000168  2**2
                  CONTENTS, READONLY, EXCLUDE, GROUP, LINK_ONCE_DISCARD
 38 .group        00000008  0000000000000000  0000000000000000  00000170  2**2
                  CONTENTS, READONLY, EXCLUDE, GROUP, LINK_ONCE_DISCARD
 39 .group        00000008  0000000000000000  0000000000000000  00000178  2**2
                  CONTENTS, READONLY, EXCLUDE, GROUP, LINK_ONCE_DISCARD
 40 .group        00000008  0000000000000000  0000000000000000  00000180  2**2
                  CONTENTS, READONLY, EXCLUDE, GROUP, LINK_ONCE_DISCARD
 41 .group        00000008  0000000000000000  0000000000000000  00000188  2**2
                  CONTENTS, READONLY, EXCLUDE, GROUP, LINK_ONCE_DISCARD
 42 .group        00000008  0000000000000000  0000000000000000  00000190  2**2
                  CONTENTS, READONLY, EXCLUDE, GROUP, LINK_ONCE_DISCARD
 43 .group        00000008  0000000000000000  0000000000000000  00000198  2**2
                  CONTENTS, READONLY, EXCLUDE, GROUP, LINK_ONCE_DISCARD
 44 .group        00000008  0000000000000000  0000000000000000  000001a0  2**2
                  CONTENTS, READONLY, EXCLUDE, GROUP, LINK_ONCE_DISCARD
 45 .group        00000008  0000000000000000  0000000000000000  000001a8  2**2
                  CONTENTS, READONLY, EXCLUDE, GROUP, LINK_ONCE_DISCARD
 46 .group        00000008  0000000000000000  0000000000000000  000001b0  2**2
                  CONTENTS, READONLY, EXCLUDE, GROUP, LINK_ONCE_DISCARD
 47 .group        00000008  0000000000000000  0000000000000000  000001b8  2**2
                  CONTENTS, READONLY, EXCLUDE, GROUP, LINK_ONCE_DISCARD
 48 .group        00000008  0000000000000000  0000000000000000  000001c0  2**2
                  CONTENTS, READONLY, EXCLUDE, GROUP, LINK_ONCE_DISCARD
 49 .group        00000008  0000000000000000  0000000000000000  000001c8  2**2
                  CONTENTS, READONLY, EXCLUDE, GROUP, LINK_ONCE_DISCARD
 50 .group        00000008  0000000000000000  0000000000000000  000001d0  2**2
                  CONTENTS, READONLY, EXCLUDE, GROUP, LINK_ONCE_DISCARD
 51 .group        00000008  0000000000000000  0000000000000000  000001d8  2**2
                  CONTENTS, READONLY, EXCLUDE, GROUP, LINK_ONCE_DISCARD
 52 .group        00000008  0000000000000000  0000000000000000  000001e0  2**2
                  CONTENTS, READONLY, EXCLUDE, GROUP, LINK_ONCE_DISCARD
 53 .group        00000008  0000000000000000  0000000000000000  000001e8  2**2
                  CONTENTS, READONLY, EXCLUDE, GROUP, LINK_ONCE_DISCARD
 54 .group        00000008  0000000000000000  0000000000000000  000001f0  2**2
                  CONTENTS, READONLY, EXCLUDE, GROUP, LINK_ONCE_DISCARD
 55 .group        00000008  0000000000000000  0000000000000000  000001f8  2**2
                  CONTENTS, READONLY, EXCLUDE, GROUP, LINK_ONCE_DISCARD
 56 .group        00000008  0000000000000000  0000000000000000  00000200  2**2
                  CONTENTS, READONLY, EXCLUDE, GROUP, LINK_ONCE_DISCARD
 57 .group        00000008  0000000000000000  0000000000000000  00000208  2**2
                  CONTENTS, READONLY, EXCLUDE, GROUP, LINK_ONCE_DISCARD
 58 .group        00000008  0000000000000000  0000000000000000  00000210  2**2
                  CONTENTS, READONLY, EXCLUDE, GROUP, LINK_ONCE_DISCARD
 59 .group        00000008  0000000000000000  0000000000000000  00000218  2**2
                  CONTENTS, READONLY, EXCLUDE, GROUP, LINK_ONCE_DISCARD
 60 .group        00000008  0000000000000000  0000000000000000  00000220  2**2
                  CONTENTS, READONLY, EXCLUDE, GROUP, LINK_ONCE_DISCARD
 61 .group        00000008  0000000000000000  0000000000000000  00000228  2**2
                  CONTENTS, READONLY, EXCLUDE, GROUP, LINK_ONCE_DISCARD
 62 .group        00000008  0000000000000000  0000000000000000  00000230  2**2
                  CONTENTS, READONLY, EXCLUDE, GROUP, LINK_ONCE_DISCARD
 63 .group        00000008  0000000000000000  0000000000000000  00000238  2**2
                  CONTENTS, READONLY, EXCLUDE, GROUP, LINK_ONCE_DISCARD
 64 .group        00000008  0000000000000000  0000000000000000  00000240  2**2
                  CONTENTS, READONLY, EXCLUDE, GROUP, LINK_ONCE_DISCARD
 65 .group        00000008  0000000000000000  0000000000000000  00000248  2**2
                  CONTENTS, READONLY, EXCLUDE, GROUP, LINK_ONCE_DISCARD
 66 .group        00000008  0000000000000000  0000000000000000  00000250  2**2
                  CONTENTS, READONLY, EXCLUDE, GROUP, LINK_ONCE_DISCARD
 67 .group        00000008  0000000000000000  0000000000000000  00000258  2**2
                  CONTENTS, READONLY, EXCLUDE, GROUP, LINK_ONCE_DISCARD
 68 .group        00000008  0000000000000000  0000000000000000  00000260  2**2
                  CONTENTS, READONLY, EXCLUDE, GROUP, LINK_ONCE_DISCARD
 69 .group        00000008  0000000000000000  0000000000000000  00000268  2**2
                  CONTENTS, READONLY, EXCLUDE, GROUP, LINK_ONCE_DISCARD
 70 .group        00000008  0000000000000000  0000000000000000  00000270  2**2
                  CONTENTS, READONLY, EXCLUDE, GROUP, LINK_ONCE_DISCARD
 71 .group        00000008  0000000000000000  0000000000000000  00000278  2**2
                  CONTENTS, READONLY, EXCLUDE, GROUP, LINK_ONCE_DISCARD
 72 .group        00000008  0000000000000000  0000000000000000  00000280  2**2
                  CONTENTS, READONLY, EXCLUDE, GROUP, LINK_ONCE_DISCARD
 73 .group        00000008  0000000000000000  0000000000000000  00000288  2**2
                  CONTENTS, READONLY, EXCLUDE, GROUP, LINK_ONCE_DISCARD
 74 .group        00000008  0000000000000000  0000000000000000  00000290  2**2
                  CONTENTS, READONLY, EXCLUDE, GROUP, LINK_ONCE_DISCARD
 75 .group        00000008  0000000000000000  0000000000000000  00000298  2**2
                  CONTENTS, READONLY, EXCLUDE, GROUP, LINK_ONCE_DISCARD
 76 .group        00000008  0000000000000000  0000000000000000  000002a0  2**2
                  CONTENTS, READONLY, EXCLUDE, GROUP, LINK_ONCE_DISCARD
 77 .group        00000008  0000000000000000  0000000000000000  000002a8  2**2
                  CONTENTS, READONLY, EXCLUDE, GROUP, LINK_ONCE_DISCARD
 78 .group        00000008  0000000000000000  0000000000000000  000002b0  2**2
                  CONTENTS, READONLY, EXCLUDE, GROUP, LINK_ONCE_DISCARD
 79 .group        00000008  0000000000000000  0000000000000000  000002b8  2**2
                  CONTENTS, READONLY, EXCLUDE, GROUP, LINK_ONCE_DISCARD
 80 .group        00000008  0000000000000000  0000000000000000  000002c0  2**2
                  CONTENTS, READONLY, EXCLUDE, GROUP, LINK_ONCE_DISCARD
 81 .group        00000008  0000000000000000  0000000000000000  000002c8  2**2
                  CONTENTS, READONLY, EXCLUDE, GROUP, LINK_ONCE_DISCARD
 82 .group        00000008  0000000000000000  0000000000000000  000002d0  2**2
                  CONTENTS, READONLY, EXCLUDE, GROUP, LINK_ONCE_DISCARD
 83 .group        00000008  0000000000000000  0000000000000000  000002d8  2**2
                  CONTENTS, READONLY, EXCLUDE, GROUP, LINK_ONCE_DISCARD
 84 .group        00000008  0000000000000000  0000000000000000  000002e0  2**2
                  CONTENTS, READONLY, EXCLUDE, GROUP, LINK_ONCE_DISCARD
 85 .group        00000008  0000000000000000  0000000000000000  000002e8  2**2
                  CONTENTS, READONLY, EXCLUDE, GROUP, LINK_ONCE_DISCARD
 86 .group        00000008  0000000000000000  0000000000000000  000002f0  2**2
                  CONTENTS, READONLY, EXCLUDE, GROUP, LINK_ONCE_DISCARD
 87 .group        00000008  0000000000000000  0000000000000000  000002f8  2**2
                  CONTENTS, READONLY, EXCLUDE, GROUP, LINK_ONCE_DISCARD
 88 .group        00000008  0000000000000000  0000000000000000  00000300  2**2
                  CONTENTS, READONLY, EXCLUDE, GROUP, LINK_ONCE_DISCARD
 89 .group        00000008  0000000000000000  0000000000000000  00000308  2**2
                  CONTENTS, READONLY, EXCLUDE, GROUP, LINK_ONCE_DISCARD
 90 .group        00000008  0000000000000000  0000000000000000  00000310  2**2
                  CONTENTS, READONLY, EXCLUDE, GROUP, LINK_ONCE_DISCARD
 91 .group        00000008  0000000000000000  0000000000000000  00000318  2**2
                  CONTENTS, READONLY, EXCLUDE, GROUP, LINK_ONCE_DISCARD
 92 .group        00000008  0000000000000000  0000000000000000  00000320  2**2
                  CONTENTS, READONLY, EXCLUDE, GROUP, LINK_ONCE_DISCARD
 93 .group        00000008  0000000000000000  0000000000000000  00000328  2**2
                  CONTENTS, READONLY, EXCLUDE, GROUP, LINK_ONCE_DISCARD
 94 .group        00000008  0000000000000000  0000000000000000  00000330  2**2
                  CONTENTS, READONLY, EXCLUDE, GROUP, LINK_ONCE_DISCARD
 95 .group        00000008  0000000000000000  0000000000000000  00000338  2**2
                  CONTENTS, READONLY, EXCLUDE, GROUP, LINK_ONCE_DISCARD
 96 .group        00000008  0000000000000000  0000000000000000  00000340  2**2
                  CONTENTS, READONLY, EXCLUDE, GROUP, LINK_ONCE_DISCARD
 97 .group        00000008  0000000000000000  0000000000000000  00000348  2**2
                  CONTENTS, READONLY, EXCLUDE, GROUP, LINK_ONCE_DISCARD
 98 .group        00000008  0000000000000000  0000000000000000  00000350  2**2
                  CONTENTS, READONLY, EXCLUDE, GROUP, LINK_ONCE_DISCARD
 99 .group        00000008  0000000000000000  0000000000000000  00000358  2**2
                  CONTENTS, READONLY, EXCLUDE, GROUP, LINK_ONCE_DISCARD
100 .group        00000008  0000000000000000  0000000000000000  00000360  2**2
                  CONTENTS, READONLY, EXCLUDE, GROUP, LINK_ONCE_DISCARD
101 .group        00000008  0000000000000000  0000000000000000  00000368  2**2
                  CONTENTS, READONLY, EXCLUDE, GROUP, LINK_ONCE_DISCARD
102 .group        00000008  0000000000000000  0000000000000000  00000370  2**2
                  CONTENTS, READONLY, EXCLUDE, GROUP, LINK_ONCE_DISCARD
103 .group        00000008  0000000000000000  0000000000000000  00000378  2**2
                  CONTENTS, READONLY, EXCLUDE, GROUP, LINK_ONCE_DISCARD
104 .group        00000008  0000000000000000  0000000000000000  00000380  2**2
                  CONTENTS, READONLY, EXCLUDE, GROUP, LINK_ONCE_DISCARD
105 .group        00000008  0000000000000000  0000000000000000  00000388  2**2
                  CONTENTS, READONLY, EXCLUDE, GROUP, LINK_ONCE_DISCARD
106 .group        00000008  0000000000000000  0000000000000000  00000390  2**2
                  CONTENTS, READONLY, EXCLUDE, GROUP, LINK_ONCE_DISCARD
107 .group        00000008  0000000000000000  0000000000000000  00000398  2**2
                  CONTENTS, READONLY, EXCLUDE, GROUP, LINK_ONCE_DISCARD
108 .group        00000008  0000000000000000  0000000000000000  000003a0  2**2
                  CONTENTS, READONLY, EXCLUDE, GROUP, LINK_ONCE_DISCARD
109 .group        00000008  0000000000000000  0000000000000000  000003a8  2**2
                  CONTENTS, READONLY, EXCLUDE, GROUP, LINK_ONCE_DISCARD
110 .group        00000008  0000000000000000  0000000000000000  000003b0  2**2
                  CONTENTS, READONLY, EXCLUDE, GROUP, LINK_ONCE_DISCARD
111 .group        00000008  0000000000000000  0000000000000000  000003b8  2**2
                  CONTENTS, READONLY, EXCLUDE, GROUP, LINK_ONCE_DISCARD
112 .group        00000008  0000000000000000  0000000000000000  000003c0  2**2
                  CONTENTS, READONLY, EXCLUDE, GROUP, LINK_ONCE_DISCARD
113 .group        00000008  0000000000000000  0000000000000000  000003c8  2**2
                  CONTENTS, READONLY, EXCLUDE, GROUP, LINK_ONCE_DISCARD
114 .group        00000008  0000000000000000  0000000000000000  000003d0  2**2
                  CONTENTS, READONLY, EXCLUDE, GROUP, LINK_ONCE_DISCARD
115 .group        00000008  0000000000000000  0000000000000000  000003d8  2**2
                  CONTENTS, READONLY, EXCLUDE, GROUP, LINK_ONCE_DISCARD
116 .group        00000008  0000000000000000  0000000000000000  000003e0  2**2
                  CONTENTS, READONLY, EXCLUDE, GROUP, LINK_ONCE_DISCARD
117 .group        00000008  0000000000000000  0000000000000000  000003e8  2**2
                  CONTENTS, READONLY, EXCLUDE, GROUP, LINK_ONCE_DISCARD
118 .group        00000008  0000000000000000  0000000000000000  000003f0  2**2
                  CONTENTS, READONLY, EXCLUDE, GROUP, LINK_ONCE_DISCARD
119 .group        00000008  0000000000000000  0000000000000000  000003f8  2**2
                  CONTENTS, READONLY, EXCLUDE, GROUP, LINK_ONCE_DISCARD
120 .group        00000008  0000000000000000  0000000000000000  00000400  2**2
                  CONTENTS, READONLY, EXCLUDE, GROUP, LINK_ONCE_DISCARD
121 .group        00000008  0000000000000000  0000000000000000  00000408  2**2
                  CONTENTS, READONLY, EXCLUDE, GROUP, LINK_ONCE_DISCARD
122 .group        00000008  0000000000000000  0000000000000000  00000410  2**2
                  CONTENTS, READONLY, EXCLUDE, GROUP, LINK_ONCE_DISCARD
123 .group        00000008  0000000000000000  0000000000000000  00000418  2**2
                  CONTENTS, READONLY, EXCLUDE, GROUP, LINK_ONCE_DISCARD
124 .group        00000008  0000000000000000  0000000000000000  00000420  2**2
                  CONTENTS, READONLY, EXCLUDE, GROUP, LINK_ONCE_DISCARD
125 .group        00000008  0000000000000000  0000000000000000  00000428  2**2
                  CONTENTS, READONLY, EXCLUDE, GROUP, LINK_ONCE_DISCARD
126 .group        00000008  0000000000000000  0000000000000000  00000430  2**2
                  CONTENTS, READONLY, EXCLUDE, GROUP, LINK_ONCE_DISCARD
127 .group        00000008  0000000000000000  0000000000000000  00000438  2**2
                  CONTENTS, READONLY, EXCLUDE, GROUP, LINK_ONCE_DISCARD
128 .group        00000008  0000000000000000  0000000000000000  00000440  2**2
                  CONTENTS, READONLY, EXCLUDE, GROUP, LINK_ONCE_DISCARD
129 .group        00000008  0000000000000000  0000000000000000  00000448  2**2
                  CONTENTS, READONLY, EXCLUDE, GROUP, LINK_ONCE_DISCARD
130 .group        00000008  0000000000000000  0000000000000000  00000450  2**2
                  CONTENTS, READONLY, EXCLUDE, GROUP, LINK_ONCE_DISCARD
131 .group        00000008  0000000000000000  0000000000000000  00000458  2**2
                  CONTENTS, READONLY, EXCLUDE, GROUP, LINK_ONCE_DISCARD
132 .group        00000008  0000000000000000  0000000000000000  00000460  2**2
                  CONTENTS, READONLY, EXCLUDE, GROUP, LINK_ONCE_DISCARD
133 .group        00000008  0000000000000000  0000000000000000  00000468  2**2
                  CONTENTS, READONLY, EXCLUDE, GROUP, LINK_ONCE_DISCARD
134 .group        00000008  0000000000000000  0000000000000000  00000470  2**2
                  CONTENTS, READONLY, EXCLUDE, GROUP, LINK_ONCE_DISCARD
135 .group        00000008  0000000000000000  0000000000000000  00000478  2**2
                  CONTENTS, READONLY, EXCLUDE, GROUP, LINK_ONCE_DISCARD
136 .group        00000008  0000000000000000  0000000000000000  00000480  2**2
                  CONTENTS, READONLY, EXCLUDE, GROUP, LINK_ONCE_DISCARD
137 .text         000001f6  0000000000000000  0000000000000000  00000488  2**1
                  CONTENTS, ALLOC, LOAD, RELOC, READONLY, CODE
138 .data         00000000  0000000000000000  0000000000000000  0000067e  2**0
                  CONTENTS, ALLOC, LOAD, DATA
139 .bss          00000000  0000000000000000  0000000000000000  0000067e  2**0
                  ALLOC
140 .text._Z7qt_noopv 00000007  0000000000000000  0000000000000000  0000067e  2**0
                  CONTENTS, ALLOC, LOAD, READONLY, CODE
141 .text._ZN9QtPrivate8RefCount3refEv 00000041  0000000000000000  0000000000000000  00000686  2**1
                  CONTENTS, ALLOC, LOAD, RELOC, READONLY, CODE
142 .text._ZN9QtPrivate8RefCount5derefEv 00000043  0000000000000000  0000000000000000  000006c8  2**1
                  CONTENTS, ALLOC, LOAD, RELOC, READONLY, CODE
143 .rodata       000001e3  0000000000000000  0000000000000000  00000720  2**5
                  CONTENTS, ALLOC, LOAD, READONLY, DATA
144 .text._ZN7QStringC2ERKS_ 00000057  0000000000000000  0000000000000000  00000904  2**1
                  CONTENTS, ALLOC, LOAD, RELOC, READONLY, CODE
145 .text._ZN7QStringD2Ev 00000034  0000000000000000  0000000000000000  0000095c  2**1
                  CONTENTS, ALLOC, LOAD, RELOC, READONLY, CODE
146 .gcc_except_table 00000018  0000000000000000  0000000000000000  00000990  2**0
                  CONTENTS, ALLOC, LOAD, READONLY, DATA
147 .data.rel.ro  00000030  0000000000000000  0000000000000000  000009c0  2**5
                  CONTENTS, ALLOC, LOAD, RELOC, DATA
148 .text._ZNK19QBasicAtomicIntegerIiE4loadEv 00000019  0000000000000000  0000000000000000  000009f0  2**1
                  CONTENTS, ALLOC, LOAD, READONLY, CODE
149 .text._ZN19QBasicAtomicIntegerIiE3refEv 0000001a  0000000000000000  0000000000000000  00000a0a  2**1
                  CONTENTS, ALLOC, LOAD, RELOC, READONLY, CODE
150 .text._ZN19QBasicAtomicIntegerIiE5derefEv 0000001a  0000000000000000  0000000000000000  00000a24  2**1
                  CONTENTS, ALLOC, LOAD, RELOC, READONLY, CODE
151 .text._ZN15QTypedArrayDataItE10deallocateEP10QArrayData 00000025  0000000000000000  0000000000000000  00000a3e  2**0
                  CONTENTS, ALLOC, LOAD, RELOC, READONLY, CODE
152 .text._ZNK14QScopedPointerI11QObjectData21QScopedPointerDeleterIS0_EEptEv 0000003e  0000000000000000  0000000000000000  00000a64  2**1
                  CONTENTS, ALLOC, LOAD, RELOC, READONLY, CODE
153 .text._ZN15QBasicAtomicOpsILi4EE3refIiEEbRT_ 00000023  0000000000000000  0000000000000000  00000aa2  2**0
                  CONTENTS, ALLOC, LOAD, READONLY, CODE
154 .text._ZN15QBasicAtomicOpsILi4EE5derefIiEEbRT_ 00000023  0000000000000000  0000000000000000  00000ac5  2**0
                  CONTENTS, ALLOC, LOAD, READONLY, CODE
155 .data.rel.ro._ZTV10MainWindow 00000208  0000000000000000  0000000000000000  00000ae8  2**3
                  CONTENTS, ALLOC, LOAD, RELOC, DATA
156 .data.rel.ro._ZTI10MainWindow 00000018  0000000000000000  0000000000000000  00000cf0  2**3
                  CONTENTS, ALLOC, LOAD, RELOC, DATA
157 .rodata._ZTS10MainWindow 0000000d  0000000000000000  0000000000000000  00000d08  2**3
                  CONTENTS, ALLOC, LOAD, READONLY, DATA
158 .debug_info   000148af  0000000000000000  0000000000000000  00000d15  2**0
                  CONTENTS, RELOC, READONLY, DEBUGGING
159 .debug_abbrev 000009ed  0000000000000000  0000000000000000  000155c4  2**0
                  CONTENTS, READONLY, DEBUGGING
160 .debug_aranges 000000f0  0000000000000000  0000000000000000  00015fb1  2**0
                  CONTENTS, RELOC, READONLY, DEBUGGING
161 .debug_ranges 00000120  0000000000000000  0000000000000000  000160a1  2**0
                  CONTENTS, RELOC, READONLY, DEBUGGING
162 .debug_macro  00000c32  0000000000000000  0000000000000000  000161c1  2**0
                  CONTENTS, RELOC, READONLY, DEBUGGING
163 .debug_macro  0000061c  0000000000000000  0000000000000000  00016df3  2**0
                  CONTENTS, RELOC, READONLY, DEBUGGING
164 .debug_macro  00000022  0000000000000000  0000000000000000  0001740f  2**0
                  CONTENTS, RELOC, READONLY, DEBUGGING
165 .debug_macro  00000136  0000000000000000  0000000000000000  00017431  2**0
                  CONTENTS, RELOC, READONLY, DEBUGGING
166 .debug_macro  00000010  0000000000000000  0000000000000000  00017567  2**0
                  CONTENTS, RELOC, READONLY, DEBUGGING
167 .debug_macro  00000275  0000000000000000  0000000000000000  00017577  2**0
                  CONTENTS, RELOC, READONLY, DEBUGGING
168 .debug_macro  0000016f  0000000000000000  0000000000000000  000177ec  2**0
                  CONTENTS, RELOC, READONLY, DEBUGGING
169 .debug_macro  00000016  0000000000000000  0000000000000000  0001795b  2**0
                  CONTENTS, RELOC, READONLY, DEBUGGING
170 .debug_macro  00000035  0000000000000000  0000000000000000  00017971  2**0
                  CONTENTS, RELOC, READONLY, DEBUGGING
171 .debug_macro  00000058  0000000000000000  0000000000000000  000179a6  2**0
                  CONTENTS, RELOC, READONLY, DEBUGGING
172 .debug_macro  000005b4  0000000000000000  0000000000000000  000179fe  2**0
                  CONTENTS, RELOC, READONLY, DEBUGGING
173 .debug_macro  0000016d  0000000000000000  0000000000000000  00017fb2  2**0
                  CONTENTS, RELOC, READONLY, DEBUGGING
174 .debug_macro  00000016  0000000000000000  0000000000000000  0001811f  2**0
                  CONTENTS, RELOC, READONLY, DEBUGGING
175 .debug_macro  0000009a  0000000000000000  0000000000000000  00018135  2**0
                  CONTENTS, RELOC, READONLY, DEBUGGING
176 .debug_macro  00000016  0000000000000000  0000000000000000  000181cf  2**0
                  CONTENTS, RELOC, READONLY, DEBUGGING
177 .debug_macro  00000018  0000000000000000  0000000000000000  000181e5  2**0
                  CONTENTS, RELOC, READONLY, DEBUGGING
178 .debug_macro  00000032  0000000000000000  0000000000000000  000181fd  2**0
                  CONTENTS, RELOC, READONLY, DEBUGGING
179 .debug_macro  000000c0  0000000000000000  0000000000000000  0001822f  2**0
                  CONTENTS, RELOC, READONLY, DEBUGGING
180 .debug_macro  00000028  0000000000000000  0000000000000000  000182ef  2**0
                  CONTENTS, RELOC, READONLY, DEBUGGING
181 .debug_macro  00000012  0000000000000000  0000000000000000  00018317  2**0
                  CONTENTS, RELOC, READONLY, DEBUGGING
182 .debug_macro  000000cf  0000000000000000  0000000000000000  00018329  2**0
                  CONTENTS, RELOC, READONLY, DEBUGGING
183 .debug_macro  0000001c  0000000000000000  0000000000000000  000183f8  2**0
                  CONTENTS, RELOC, READONLY, DEBUGGING
184 .debug_macro  00000018  0000000000000000  0000000000000000  00018414  2**0
                  CONTENTS, RELOC, READONLY, DEBUGGING
185 .debug_macro  0000006e  0000000000000000  0000000000000000  0001842c  2**0
                  CONTENTS, RELOC, READONLY, DEBUGGING
186 .debug_macro  00000082  0000000000000000  0000000000000000  0001849a  2**0
                  CONTENTS, RELOC, READONLY, DEBUGGING
187 .debug_macro  00000012  0000000000000000  0000000000000000  0001851c  2**0
                  CONTENTS, RELOC, READONLY, DEBUGGING
188 .debug_macro  00000012  0000000000000000  0000000000000000  0001852e  2**0
                  CONTENTS, RELOC, READONLY, DEBUGGING
189 .debug_macro  00000016  0000000000000000  0000000000000000  00018540  2**0
                  CONTENTS, RELOC, READONLY, DEBUGGING
190 .debug_macro  00000035  0000000000000000  0000000000000000  00018556  2**0
                  CONTENTS, RELOC, READONLY, DEBUGGING
191 .debug_macro  00000052  0000000000000000  0000000000000000  0001858b  2**0
                  CONTENTS, RELOC, READONLY, DEBUGGING
192 .debug_macro  0000004c  0000000000000000  0000000000000000  000185dd  2**0
                  CONTENTS, RELOC, READONLY, DEBUGGING
193 .debug_macro  0000001c  0000000000000000  0000000000000000  00018629  2**0
                  CONTENTS, RELOC, READONLY, DEBUGGING
194 .debug_macro  00000028  0000000000000000  0000000000000000  00018645  2**0
                  CONTENTS, RELOC, READONLY, DEBUGGING
195 .debug_macro  0000005e  0000000000000000  0000000000000000  0001866d  2**0
                  CONTENTS, RELOC, READONLY, DEBUGGING
196 .debug_macro  000000e2  0000000000000000  0000000000000000  000186cb  2**0
                  CONTENTS, RELOC, READONLY, DEBUGGING
197 .debug_macro  00000010  0000000000000000  0000000000000000  000187ad  2**0
                  CONTENTS, RELOC, READONLY, DEBUGGING
198 .debug_macro  0000004c  0000000000000000  0000000000000000  000187bd  2**0
                  CONTENTS, RELOC, READONLY, DEBUGGING
199 .debug_macro  00000022  0000000000000000  0000000000000000  00018809  2**0
                  CONTENTS, RELOC, READONLY, DEBUGGING
200 .debug_macro  00000068  0000000000000000  0000000000000000  0001882b  2**0
                  CONTENTS, RELOC, READONLY, DEBUGGING
201 .debug_macro  0000007f  0000000000000000  0000000000000000  00018893  2**0
                  CONTENTS, RELOC, READONLY, DEBUGGING
202 .debug_macro  0000003a  0000000000000000  0000000000000000  00018912  2**0
                  CONTENTS, RELOC, READONLY, DEBUGGING
203 .debug_macro  00000019  0000000000000000  0000000000000000  0001894c  2**0
                  CONTENTS, RELOC, READONLY, DEBUGGING
204 .debug_macro  00000020  0000000000000000  0000000000000000  00018965  2**0
                  CONTENTS, RELOC, READONLY, DEBUGGING
205 .debug_macro  00000022  0000000000000000  0000000000000000  00018985  2**0
                  CONTENTS, RELOC, READONLY, DEBUGGING
206 .debug_macro  00000010  0000000000000000  0000000000000000  000189a7  2**0
                  CONTENTS, RELOC, READONLY, DEBUGGING
207 .debug_macro  00000016  0000000000000000  0000000000000000  000189b7  2**0
                  CONTENTS, RELOC, READONLY, DEBUGGING
208 .debug_macro  00000028  0000000000000000  0000000000000000  000189cd  2**0
                  CONTENTS, RELOC, READONLY, DEBUGGING
209 .debug_macro  00000010  0000000000000000  0000000000000000  000189f5  2**0
                  CONTENTS, RELOC, READONLY, DEBUGGING
210 .debug_macro  00000046  0000000000000000  0000000000000000  00018a05  2**0
                  CONTENTS, RELOC, READONLY, DEBUGGING
211 .debug_macro  0000001c  0000000000000000  0000000000000000  00018a4b  2**0
                  CONTENTS, RELOC, READONLY, DEBUGGING
212 .debug_macro  00000020  0000000000000000  0000000000000000  00018a67  2**0
                  CONTENTS, RELOC, READONLY, DEBUGGING
213 .debug_macro  0000005a  0000000000000000  0000000000000000  00018a87  2**0
                  CONTENTS, RELOC, READONLY, DEBUGGING
214 .debug_macro  00000010  0000000000000000  0000000000000000  00018ae1  2**0
                  CONTENTS, RELOC, READONLY, DEBUGGING
215 .debug_macro  00000010  0000000000000000  0000000000000000  00018af1  2**0
                  CONTENTS, RELOC, READONLY, DEBUGGING
216 .debug_macro  000000e4  0000000000000000  0000000000000000  00018b01  2**0
                  CONTENTS, RELOC, READONLY, DEBUGGING
217 .debug_macro  0000025a  0000000000000000  0000000000000000  00018be5  2**0
                  CONTENTS, RELOC, READONLY, DEBUGGING
218 .debug_macro  0000002d  0000000000000000  0000000000000000  00018e3f  2**0
                  CONTENTS, RELOC, READONLY, DEBUGGING
219 .debug_macro  00000016  0000000000000000  0000000000000000  00018e6c  2**0
                  CONTENTS, RELOC, READONLY, DEBUGGING
220 .debug_macro  00000050  0000000000000000  0000000000000000  00018e82  2**0
                  CONTENTS, RELOC, READONLY, DEBUGGING
221 .debug_macro  00000019  0000000000000000  0000000000000000  00018ed2  2**0
                  CONTENTS, RELOC, READONLY, DEBUGGING
222 .debug_macro  00000011  0000000000000000  0000000000000000  00018eeb  2**0
                  CONTENTS, RELOC, READONLY, DEBUGGING
223 .debug_macro  0000014b  0000000000000000  0000000000000000  00018efc  2**0
                  CONTENTS, RELOC, READONLY, DEBUGGING
224 .debug_macro  0000001e  0000000000000000  0000000000000000  00019047  2**0
                  CONTENTS, RELOC, READONLY, DEBUGGING
225 .debug_macro  0000001c  0000000000000000  0000000000000000  00019065  2**0
                  CONTENTS, RELOC, READONLY, DEBUGGING
226 .debug_macro  00000024  0000000000000000  0000000000000000  00019081  2**0
                  CONTENTS, RELOC, READONLY, DEBUGGING
227 .debug_macro  000000fc  0000000000000000  0000000000000000  000190a5  2**0
                  CONTENTS, RELOC, READONLY, DEBUGGING
228 .debug_macro  00000016  0000000000000000  0000000000000000  000191a1  2**0
                  CONTENTS, RELOC, READONLY, DEBUGGING
229 .debug_macro  00000018  0000000000000000  0000000000000000  000191b7  2**0
                  CONTENTS, RELOC, READONLY, DEBUGGING
230 .debug_macro  00000019  0000000000000000  0000000000000000  000191cf  2**0
                  CONTENTS, RELOC, READONLY, DEBUGGING
231 .debug_macro  00000058  0000000000000000  0000000000000000  000191e8  2**0
                  CONTENTS, RELOC, READONLY, DEBUGGING
232 .debug_macro  00000016  0000000000000000  0000000000000000  00019240  2**0
                  CONTENTS, RELOC, READONLY, DEBUGGING
233 .debug_macro  0000001c  0000000000000000  0000000000000000  00019256  2**0
                  CONTENTS, RELOC, READONLY, DEBUGGING
234 .debug_macro  00000016  0000000000000000  0000000000000000  00019272  2**0
                  CONTENTS, RELOC, READONLY, DEBUGGING
235 .debug_macro  00000022  0000000000000000  0000000000000000  00019288  2**0
                  CONTENTS, RELOC, READONLY, DEBUGGING
236 .debug_macro  00000043  0000000000000000  0000000000000000  000192aa  2**0
                  CONTENTS, RELOC, READONLY, DEBUGGING
237 .debug_macro  0000003c  0000000000000000  0000000000000000  000192ed  2**0
                  CONTENTS, RELOC, READONLY, DEBUGGING
238 .debug_macro  00000173  0000000000000000  0000000000000000  00019329  2**0
                  CONTENTS, RELOC, READONLY, DEBUGGING
239 .debug_macro  00000012  0000000000000000  0000000000000000  0001949c  2**0
                  CONTENTS, RELOC, READONLY, DEBUGGING
240 .debug_macro  00000010  0000000000000000  0000000000000000  000194ae  2**0
                  CONTENTS, RELOC, READONLY, DEBUGGING
241 .debug_macro  00000058  0000000000000000  0000000000000000  000194be  2**0
                  CONTENTS, RELOC, READONLY, DEBUGGING
242 .debug_macro  000000b4  0000000000000000  0000000000000000  00019516  2**0
                  CONTENTS, RELOC, READONLY, DEBUGGING
243 .debug_macro  00000016  0000000000000000  0000000000000000  000195ca  2**0
                  CONTENTS, RELOC, READONLY, DEBUGGING
244 .debug_macro  00000010  0000000000000000  0000000000000000  000195e0  2**0
                  CONTENTS, RELOC, READONLY, DEBUGGING
245 .debug_macro  00000037  0000000000000000  0000000000000000  000195f0  2**0
                  CONTENTS, RELOC, READONLY, DEBUGGING
246 .debug_macro  00000058  0000000000000000  0000000000000000  00019627  2**0
                  CONTENTS, RELOC, READONLY, DEBUGGING
247 .debug_macro  00000011  0000000000000000  0000000000000000  0001967f  2**0
                  CONTENTS, RELOC, READONLY, DEBUGGING
248 .debug_macro  00000016  0000000000000000  0000000000000000  00019690  2**0
                  CONTENTS, RELOC, READONLY, DEBUGGING
249 .debug_macro  00000010  0000000000000000  0000000000000000  000196a6  2**0
                  CONTENTS, RELOC, READONLY, DEBUGGING
250 .debug_macro  00000010  0000000000000000  0000000000000000  000196b6  2**0
                  CONTENTS, RELOC, READONLY, DEBUGGING
251 .debug_macro  00000022  0000000000000000  0000000000000000  000196c6  2**0
                  CONTENTS, RELOC, READONLY, DEBUGGING
252 .debug_macro  00000122  0000000000000000  0000000000000000  000196e8  2**0
                  CONTENTS, RELOC, READONLY, DEBUGGING
253 .debug_macro  0000008e  0000000000000000  0000000000000000  0001980a  2**0
                  CONTENTS, RELOC, READONLY, DEBUGGING
254 .debug_macro  00000016  0000000000000000  0000000000000000  00019898  2**0
                  CONTENTS, RELOC, READONLY, DEBUGGING
255 .debug_macro  00000058  0000000000000000  0000000000000000  000198ae  2**0
                  CONTENTS, RELOC, READONLY, DEBUGGING
256 .debug_macro  000000fa  0000000000000000  0000000000000000  00019906  2**0
                  CONTENTS, RELOC, READONLY, DEBUGGING
257 .debug_macro  00000030  0000000000000000  0000000000000000  00019a00  2**0
                  CONTENTS, RELOC, READONLY, DEBUGGING
258 .debug_macro  000000c1  0000000000000000  0000000000000000  00019a30  2**0
                  CONTENTS, RELOC, READONLY, DEBUGGING
259 .debug_macro  0000004d  0000000000000000  0000000000000000  00019af1  2**0
                  CONTENTS, RELOC, READONLY, DEBUGGING
260 .debug_macro  00000010  0000000000000000  0000000000000000  00019b3e  2**0
                  CONTENTS, RELOC, READONLY, DEBUGGING
261 .debug_macro  00000019  0000000000000000  0000000000000000  00019b4e  2**0
                  CONTENTS, RELOC, READONLY, DEBUGGING
262 .debug_macro  00000020  0000000000000000  0000000000000000  00019b67  2**0
                  CONTENTS, RELOC, READONLY, DEBUGGING
263 .debug_macro  00000018  0000000000000000  0000000000000000  00019b87  2**0
                  CONTENTS, RELOC, READONLY, DEBUGGING
264 .debug_macro  00000023  0000000000000000  0000000000000000  00019b9f  2**0
                  CONTENTS, RELOC, READONLY, DEBUGGING
265 .debug_macro  00000010  0000000000000000  0000000000000000  00019bc2  2**0
                  CONTENTS, RELOC, READONLY, DEBUGGING
266 .debug_macro  00000016  0000000000000000  0000000000000000  00019bd2  2**0
                  CONTENTS, RELOC, READONLY, DEBUGGING
267 .debug_macro  00000076  0000000000000000  0000000000000000  00019be8  2**0
                  CONTENTS, RELOC, READONLY, DEBUGGING
268 .debug_macro  00000016  0000000000000000  0000000000000000  00019c5e  2**0
                  CONTENTS, RELOC, READONLY, DEBUGGING
269 .debug_macro  00000025  0000000000000000  0000000000000000  00019c74  2**0
                  CONTENTS, RELOC, READONLY, DEBUGGING
270 .debug_macro  000000de  0000000000000000  0000000000000000  00019c99  2**0
                  CONTENTS, RELOC, READONLY, DEBUGGING
271 .debug_macro  0000001c  0000000000000000  0000000000000000  00019d77  2**0
                  CONTENTS, RELOC, READONLY, DEBUGGING
272 .debug_macro  00000058  0000000000000000  0000000000000000  00019d93  2**0
                  CONTENTS, RELOC, READONLY, DEBUGGING
273 .debug_macro  00000088  0000000000000000  0000000000000000  00019deb  2**0
                  CONTENTS, RELOC, READONLY, DEBUGGING
274 .debug_macro  00000076  0000000000000000  0000000000000000  00019e73  2**0
                  CONTENTS, RELOC, READONLY, DEBUGGING
275 .debug_macro  00000010  0000000000000000  0000000000000000  00019ee9  2**0
                  CONTENTS, RELOC, READONLY, DEBUGGING
276 .debug_macro  00000041  0000000000000000  0000000000000000  00019ef9  2**0
                  CONTENTS, RELOC, READONLY, DEBUGGING
277 .debug_macro  000000ee  0000000000000000  0000000000000000  00019f3a  2**0
                  CONTENTS, RELOC, READONLY, DEBUGGING
278 .debug_macro  00000010  0000000000000000  0000000000000000  0001a028  2**0
                  CONTENTS, RELOC, READONLY, DEBUGGING
279 .debug_macro  000000e5  0000000000000000  0000000000000000  0001a038  2**0
                  CONTENTS, RELOC, READONLY, DEBUGGING
280 .debug_macro  00000012  0000000000000000  0000000000000000  0001a11d  2**0
                  CONTENTS, RELOC, READONLY, DEBUGGING
281 .debug_macro  0000001f  0000000000000000  0000000000000000  0001a12f  2**0
                  CONTENTS, RELOC, READONLY, DEBUGGING
282 .debug_macro  00000016  0000000000000000  0000000000000000  0001a14e  2**0
                  CONTENTS, RELOC, READONLY, DEBUGGING
283 .debug_macro  00000010  0000000000000000  0000000000000000  0001a164  2**0
                  CONTENTS, RELOC, READONLY, DEBUGGING
284 .debug_line   000011fc  0000000000000000  0000000000000000  0001a174  2**0
                  CONTENTS, RELOC, READONLY, DEBUGGING
285 .debug_str    0002d05a  0000000000000000  0000000000000000  0001b370  2**0
                  CONTENTS, READONLY, DEBUGGING
286 .data.DW.ref.__gxx_personality_v0 00000008  0000000000000000  0000000000000000  000483d0  2**3
                  CONTENTS, ALLOC, LOAD, RELOC, DATA
287 .comment      0000002e  0000000000000000  0000000000000000  000483d8  2**0
                  CONTENTS, READONLY
288 .note.GNU-stack 00000000  0000000000000000  0000000000000000  00048406  2**0
                  CONTENTS, READONLY
289 .eh_frame     00000240  0000000000000000  0000000000000000  00048408  2**3
                  CONTENTS, ALLOC, LOAD, RELOC, READONLY, DATA

Дизассемблирование раздела .text:

0000000000000000 <_ZN10MainWindow18qt_static_metacallEP7QObjectN11QMetaObject4CallEiPPv>:

       0        // eod
};

void MainWindow::qt_static_metacall(QObject *_o, QMetaObject::Call _c, int _id, void **_a)
{
   0:	55                   	push   %rbp
   1:	48 89 e5             	mov    %rsp,%rbp
   4:	53                   	push   %rbx
   5:	48 83 ec 48          	sub    $0x48,%rsp
   9:	48 89 7d c8          	mov    %rdi,-0x38(%rbp)
   d:	89 75 c4             	mov    %esi,-0x3c(%rbp)
  10:	89 55 c0             	mov    %edx,-0x40(%rbp)
  13:	48 89 4d b8          	mov    %rcx,-0x48(%rbp)
  17:	64 48 8b 04 25 28 00 	mov    %fs:0x28,%rax
  1e:	00 00 
  20:	48 89 45 e8          	mov    %rax,-0x18(%rbp)
  24:	31 c0                	xor    %eax,%eax
    if (_c == QMetaObject::InvokeMetaMethod) {
  26:	83 7d c4 00          	cmpl   $0x0,-0x3c(%rbp)
  2a:	0f 85 8d 00 00 00    	jne    bd <_ZN10MainWindow18qt_static_metacallEP7QObjectN11QMetaObject4CallEiPPv+0xbd>
        MainWindow *_t = static_cast<MainWindow *>(_o);
  30:	48 8b 45 c8          	mov    -0x38(%rbp),%rax
  34:	48 89 45 e0          	mov    %rax,-0x20(%rbp)
        Q_UNUSED(_t)
        switch (_id) {
  38:	8b 45 c0             	mov    -0x40(%rbp),%eax
  3b:	83 f8 01             	cmp    $0x1,%eax
  3e:	74 19                	je     59 <_ZN10MainWindow18qt_static_metacallEP7QObjectN11QMetaObject4CallEiPPv+0x59>
  40:	83 f8 02             	cmp    $0x2,%eax
  43:	74 4f                	je     94 <_ZN10MainWindow18qt_static_metacallEP7QObjectN11QMetaObject4CallEiPPv+0x94>
  45:	85 c0                	test   %eax,%eax
  47:	74 02                	je     4b <_ZN10MainWindow18qt_static_metacallEP7QObjectN11QMetaObject4CallEiPPv+0x4b>
        case 1: _t->pe((*reinterpret_cast< QString(*)>(_a[1]))); break;
        case 2: _t->on_pushButton_2_clicked(); break;
        default: ;
        }
    }
}
  49:	eb 72                	jmp    bd <_ZN10MainWindow18qt_static_metacallEP7QObjectN11QMetaObject4CallEiPPv+0xbd>
{
    if (_c == QMetaObject::InvokeMetaMethod) {
        MainWindow *_t = static_cast<MainWindow *>(_o);
        Q_UNUSED(_t)
        switch (_id) {
        case 0: _t->on_pushButton_clicked(); break;
  4b:	48 8b 45 e0          	mov    -0x20(%rbp),%rax
  4f:	48 89 c7             	mov    %rax,%rdi
  52:	e8 00 00 00 00       	callq  57 <_ZN10MainWindow18qt_static_metacallEP7QObjectN11QMetaObject4CallEiPPv+0x57>
  57:	eb 48                	jmp    a1 <_ZN10MainWindow18qt_static_metacallEP7QObjectN11QMetaObject4CallEiPPv+0xa1>
        case 1: _t->pe((*reinterpret_cast< QString(*)>(_a[1]))); break;
  59:	48 8b 45 b8          	mov    -0x48(%rbp),%rax
  5d:	48 83 c0 08          	add    $0x8,%rax
  61:	48 8b 10             	mov    (%rax),%rdx
  64:	48 8d 45 d0          	lea    -0x30(%rbp),%rax
  68:	48 89 d6             	mov    %rdx,%rsi
  6b:	48 89 c7             	mov    %rax,%rdi
  6e:	e8 00 00 00 00       	callq  73 <_ZN10MainWindow18qt_static_metacallEP7QObjectN11QMetaObject4CallEiPPv+0x73>
  73:	48 8d 55 d0          	lea    -0x30(%rbp),%rdx
  77:	48 8b 45 e0          	mov    -0x20(%rbp),%rax
  7b:	48 89 d6             	mov    %rdx,%rsi
  7e:	48 89 c7             	mov    %rax,%rdi
  81:	e8 00 00 00 00       	callq  86 <_ZN10MainWindow18qt_static_metacallEP7QObjectN11QMetaObject4CallEiPPv+0x86>
  86:	48 8d 45 d0          	lea    -0x30(%rbp),%rax
  8a:	48 89 c7             	mov    %rax,%rdi
  8d:	e8 00 00 00 00       	callq  92 <_ZN10MainWindow18qt_static_metacallEP7QObjectN11QMetaObject4CallEiPPv+0x92>
  92:	eb 0d                	jmp    a1 <_ZN10MainWindow18qt_static_metacallEP7QObjectN11QMetaObject4CallEiPPv+0xa1>
        case 2: _t->on_pushButton_2_clicked(); break;
  94:	48 8b 45 e0          	mov    -0x20(%rbp),%rax
  98:	48 89 c7             	mov    %rax,%rdi
  9b:	e8 00 00 00 00       	callq  a0 <_ZN10MainWindow18qt_static_metacallEP7QObjectN11QMetaObject4CallEiPPv+0xa0>
  a0:	90                   	nop
        default: ;
        }
    }
}
  a1:	eb 1a                	jmp    bd <_ZN10MainWindow18qt_static_metacallEP7QObjectN11QMetaObject4CallEiPPv+0xbd>
  a3:	48 89 c3             	mov    %rax,%rbx
    if (_c == QMetaObject::InvokeMetaMethod) {
        MainWindow *_t = static_cast<MainWindow *>(_o);
        Q_UNUSED(_t)
        switch (_id) {
        case 0: _t->on_pushButton_clicked(); break;
        case 1: _t->pe((*reinterpret_cast< QString(*)>(_a[1]))); break;
  a6:	48 8d 45 d0          	lea    -0x30(%rbp),%rax
  aa:	48 89 c7             	mov    %rax,%rdi
  ad:	e8 00 00 00 00       	callq  b2 <_ZN10MainWindow18qt_static_metacallEP7QObjectN11QMetaObject4CallEiPPv+0xb2>
  b2:	48 89 d8             	mov    %rbx,%rax
  b5:	48 89 c7             	mov    %rax,%rdi
  b8:	e8 00 00 00 00       	callq  bd <_ZN10MainWindow18qt_static_metacallEP7QObjectN11QMetaObject4CallEiPPv+0xbd>
        case 2: _t->on_pushButton_2_clicked(); break;
        default: ;
        }
    }
}
  bd:	90                   	nop
  be:	48 8b 45 e8          	mov    -0x18(%rbp),%rax
  c2:	64 48 33 04 25 28 00 	xor    %fs:0x28,%rax
  c9:	00 00 
  cb:	74 05                	je     d2 <_ZN10MainWindow18qt_static_metacallEP7QObjectN11QMetaObject4CallEiPPv+0xd2>
  cd:	e8 00 00 00 00       	callq  d2 <_ZN10MainWindow18qt_static_metacallEP7QObjectN11QMetaObject4CallEiPPv+0xd2>
  d2:	48 83 c4 48          	add    $0x48,%rsp
  d6:	5b                   	pop    %rbx
  d7:	5d                   	pop    %rbp
  d8:	c3                   	retq   
  d9:	90                   	nop

00000000000000da <_ZNK10MainWindow10metaObjectEv>:
      qt_meta_data_MainWindow,  qt_static_metacall, Q_NULLPTR, Q_NULLPTR}
};


const QMetaObject *MainWindow::metaObject() const
{
  da:	55                   	push   %rbp
  db:	48 89 e5             	mov    %rsp,%rbp
  de:	48 83 ec 10          	sub    $0x10,%rsp
  e2:	48 89 7d f8          	mov    %rdi,-0x8(%rbp)
    return QObject::d_ptr->metaObject ? QObject::d_ptr->dynamicMetaObject() : &staticMetaObject;
  e6:	48 8b 45 f8          	mov    -0x8(%rbp),%rax
  ea:	48 83 c0 08          	add    $0x8,%rax
  ee:	48 89 c7             	mov    %rax,%rdi
  f1:	e8 00 00 00 00       	callq  f6 <_ZNK10MainWindow10metaObjectEv+0x1c>
  f6:	48 8b 40 28          	mov    0x28(%rax),%rax
  fa:	48 85 c0             	test   %rax,%rax
  fd:	74 1a                	je     119 <_ZNK10MainWindow10metaObjectEv+0x3f>
  ff:	48 8b 45 f8          	mov    -0x8(%rbp),%rax
 103:	48 83 c0 08          	add    $0x8,%rax
 107:	48 89 c7             	mov    %rax,%rdi
 10a:	e8 00 00 00 00       	callq  10f <_ZNK10MainWindow10metaObjectEv+0x35>
 10f:	48 89 c7             	mov    %rax,%rdi
 112:	e8 00 00 00 00       	callq  117 <_ZNK10MainWindow10metaObjectEv+0x3d>
 117:	eb 07                	jmp    120 <_ZNK10MainWindow10metaObjectEv+0x46>
 119:	48 8b 05 00 00 00 00 	mov    0x0(%rip),%rax        # 120 <_ZNK10MainWindow10metaObjectEv+0x46>
}
 120:	c9                   	leaveq 
 121:	c3                   	retq   

0000000000000122 <_ZN10MainWindow11qt_metacastEPKc>:

void *MainWindow::qt_metacast(const char *_clname)
{
 122:	55                   	push   %rbp
 123:	48 89 e5             	mov    %rsp,%rbp
 126:	48 83 ec 10          	sub    $0x10,%rsp
 12a:	48 89 7d f8          	mov    %rdi,-0x8(%rbp)
 12e:	48 89 75 f0          	mov    %rsi,-0x10(%rbp)
    if (!_clname) return Q_NULLPTR;
 132:	48 83 7d f0 00       	cmpq   $0x0,-0x10(%rbp)
 137:	75 07                	jne    140 <_ZN10MainWindow11qt_metacastEPKc+0x1e>
 139:	b8 00 00 00 00       	mov    $0x0,%eax
 13e:	eb 30                	jmp    170 <_ZN10MainWindow11qt_metacastEPKc+0x4e>
    if (!strcmp(_clname, qt_meta_stringdata_MainWindow.stringdata0))
 140:	48 8b 45 f0          	mov    -0x10(%rbp),%rax
 144:	48 8d 35 00 00 00 00 	lea    0x0(%rip),%rsi        # 14b <_ZN10MainWindow11qt_metacastEPKc+0x29>
 14b:	48 89 c7             	mov    %rax,%rdi
 14e:	e8 00 00 00 00       	callq  153 <_ZN10MainWindow11qt_metacastEPKc+0x31>
 153:	85 c0                	test   %eax,%eax
 155:	75 06                	jne    15d <_ZN10MainWindow11qt_metacastEPKc+0x3b>
        return static_cast<void*>(const_cast< MainWindow*>(this));
 157:	48 8b 45 f8          	mov    -0x8(%rbp),%rax
 15b:	eb 13                	jmp    170 <_ZN10MainWindow11qt_metacastEPKc+0x4e>
    return QMainWindow::qt_metacast(_clname);
 15d:	48 8b 45 f8          	mov    -0x8(%rbp),%rax
 161:	48 8b 55 f0          	mov    -0x10(%rbp),%rdx
 165:	48 89 d6             	mov    %rdx,%rsi
 168:	48 89 c7             	mov    %rax,%rdi
 16b:	e8 00 00 00 00       	callq  170 <_ZN10MainWindow11qt_metacastEPKc+0x4e>
}
 170:	c9                   	leaveq 
 171:	c3                   	retq   

0000000000000172 <_ZN10MainWindow11qt_metacallEN11QMetaObject4CallEiPPv>:

int MainWindow::qt_metacall(QMetaObject::Call _c, int _id, void **_a)
{
 172:	55                   	push   %rbp
 173:	48 89 e5             	mov    %rsp,%rbp
 176:	48 83 ec 20          	sub    $0x20,%rsp
 17a:	48 89 7d f8          	mov    %rdi,-0x8(%rbp)
 17e:	89 75 f4             	mov    %esi,-0xc(%rbp)
 181:	89 55 f0             	mov    %edx,-0x10(%rbp)
 184:	48 89 4d e8          	mov    %rcx,-0x18(%rbp)
    _id = QMainWindow::qt_metacall(_c, _id, _a);
 188:	48 8b 45 f8          	mov    -0x8(%rbp),%rax
 18c:	48 8b 4d e8          	mov    -0x18(%rbp),%rcx
 190:	8b 55 f0             	mov    -0x10(%rbp),%edx
 193:	8b 75 f4             	mov    -0xc(%rbp),%esi
 196:	48 89 c7             	mov    %rax,%rdi
 199:	e8 00 00 00 00       	callq  19e <_ZN10MainWindow11qt_metacallEN11QMetaObject4CallEiPPv+0x2c>
 19e:	89 45 f0             	mov    %eax,-0x10(%rbp)
    if (_id < 0)
 1a1:	83 7d f0 00          	cmpl   $0x0,-0x10(%rbp)
 1a5:	79 05                	jns    1ac <_ZN10MainWindow11qt_metacallEN11QMetaObject4CallEiPPv+0x3a>
        return _id;
 1a7:	8b 45 f0             	mov    -0x10(%rbp),%eax
 1aa:	eb 48                	jmp    1f4 <_ZN10MainWindow11qt_metacallEN11QMetaObject4CallEiPPv+0x82>
    if (_c == QMetaObject::InvokeMetaMethod) {
 1ac:	83 7d f4 00          	cmpl   $0x0,-0xc(%rbp)
 1b0:	75 22                	jne    1d4 <_ZN10MainWindow11qt_metacallEN11QMetaObject4CallEiPPv+0x62>
        if (_id < 3)
 1b2:	83 7d f0 02          	cmpl   $0x2,-0x10(%rbp)
 1b6:	7f 16                	jg     1ce <_ZN10MainWindow11qt_metacallEN11QMetaObject4CallEiPPv+0x5c>
            qt_static_metacall(this, _c, _id, _a);
 1b8:	48 8b 45 f8          	mov    -0x8(%rbp),%rax
 1bc:	48 8b 4d e8          	mov    -0x18(%rbp),%rcx
 1c0:	8b 55 f0             	mov    -0x10(%rbp),%edx
 1c3:	8b 75 f4             	mov    -0xc(%rbp),%esi
 1c6:	48 89 c7             	mov    %rax,%rdi
 1c9:	e8 00 00 00 00       	callq  1ce <_ZN10MainWindow11qt_metacallEN11QMetaObject4CallEiPPv+0x5c>
        _id -= 3;
 1ce:	83 6d f0 03          	subl   $0x3,-0x10(%rbp)
 1d2:	eb 1d                	jmp    1f1 <_ZN10MainWindow11qt_metacallEN11QMetaObject4CallEiPPv+0x7f>
    } else if (_c == QMetaObject::RegisterMethodArgumentMetaType) {
 1d4:	83 7d f4 0c          	cmpl   $0xc,-0xc(%rbp)
 1d8:	75 17                	jne    1f1 <_ZN10MainWindow11qt_metacallEN11QMetaObject4CallEiPPv+0x7f>
        if (_id < 3)
 1da:	83 7d f0 02          	cmpl   $0x2,-0x10(%rbp)
 1de:	7f 0d                	jg     1ed <_ZN10MainWindow11qt_metacallEN11QMetaObject4CallEiPPv+0x7b>
            *reinterpret_cast<int*>(_a[0]) = -1;
 1e0:	48 8b 45 e8          	mov    -0x18(%rbp),%rax
 1e4:	48 8b 00             	mov    (%rax),%rax
 1e7:	c7 00 ff ff ff ff    	movl   $0xffffffff,(%rax)
        _id -= 3;
 1ed:	83 6d f0 03          	subl   $0x3,-0x10(%rbp)
    }
    return _id;
 1f1:	8b 45 f0             	mov    -0x10(%rbp),%eax
}
 1f4:	c9                   	leaveq 
 1f5:	c3                   	retq   

Дизассемблирование раздела .text._Z7qt_noopv:

0000000000000000 <_Z7qt_noopv>:

       0        // eod
};

void MainWindow::qt_static_metacall(QObject *_o, QMetaObject::Call _c, int _id, void **_a)
{
   0:	55                   	push   %rbp
   1:	48 89 e5             	mov    %rsp,%rbp
   4:	90                   	nop
   5:	5d                   	pop    %rbp
   6:	c3                   	retq   

Дизассемблирование раздела .text._ZN9QtPrivate8RefCount3refEv:

0000000000000000 <_ZN9QtPrivate8RefCount3refEv>:
   0:	55                   	push   %rbp
   1:	48 89 e5             	mov    %rsp,%rbp
   4:	48 83 ec 20          	sub    $0x20,%rsp
   8:	48 89 7d e8          	mov    %rdi,-0x18(%rbp)
   c:	48 8b 45 e8          	mov    -0x18(%rbp),%rax
  10:	48 89 c7             	mov    %rax,%rdi
  13:	e8 00 00 00 00       	callq  18 <_ZN9QtPrivate8RefCount3refEv+0x18>
  18:	89 45 fc             	mov    %eax,-0x4(%rbp)
  1b:	83 7d fc 00          	cmpl   $0x0,-0x4(%rbp)
  1f:	75 07                	jne    28 <_ZN9QtPrivate8RefCount3refEv+0x28>
  21:	b8 00 00 00 00       	mov    $0x0,%eax
    if (_c == QMetaObject::InvokeMetaMethod) {
  26:	eb 17                	jmp    3f <_ZN9QtPrivate8RefCount3refEv+0x3f>
  28:	83 7d fc ff          	cmpl   $0xffffffff,-0x4(%rbp)
  2c:	74 0c                	je     3a <_ZN9QtPrivate8RefCount3refEv+0x3a>
  2e:	48 8b 45 e8          	mov    -0x18(%rbp),%rax
        MainWindow *_t = static_cast<MainWindow *>(_o);
  32:	48 89 c7             	mov    %rax,%rdi
  35:	e8 00 00 00 00       	callq  3a <_ZN9QtPrivate8RefCount3refEv+0x3a>
        Q_UNUSED(_t)
        switch (_id) {
  3a:	b8 01 00 00 00       	mov    $0x1,%eax
  3f:	c9                   	leaveq 
  40:	c3                   	retq   

Дизассемблирование раздела .text._ZN9QtPrivate8RefCount5derefEv:

0000000000000000 <_ZN9QtPrivate8RefCount5derefEv>:

       0        // eod
};

void MainWindow::qt_static_metacall(QObject *_o, QMetaObject::Call _c, int _id, void **_a)
{
   0:	55                   	push   %rbp
   1:	48 89 e5             	mov    %rsp,%rbp
   4:	48 83 ec 20          	sub    $0x20,%rsp
   8:	48 89 7d e8          	mov    %rdi,-0x18(%rbp)
   c:	48 8b 45 e8          	mov    -0x18(%rbp),%rax
  10:	48 89 c7             	mov    %rax,%rdi
  13:	e8 00 00 00 00       	callq  18 <_ZN9QtPrivate8RefCount5derefEv+0x18>
  18:	89 45 fc             	mov    %eax,-0x4(%rbp)
  1b:	83 7d fc 00          	cmpl   $0x0,-0x4(%rbp)
  1f:	75 07                	jne    28 <_ZN9QtPrivate8RefCount5derefEv+0x28>
  21:	b8 00 00 00 00       	mov    $0x0,%eax
    if (_c == QMetaObject::InvokeMetaMethod) {
  26:	eb 19                	jmp    41 <_ZN9QtPrivate8RefCount5derefEv+0x41>
  28:	83 7d fc ff          	cmpl   $0xffffffff,-0x4(%rbp)
  2c:	75 07                	jne    35 <_ZN9QtPrivate8RefCount5derefEv+0x35>
  2e:	b8 01 00 00 00       	mov    $0x1,%eax
        MainWindow *_t = static_cast<MainWindow *>(_o);
  33:	eb 0c                	jmp    41 <_ZN9QtPrivate8RefCount5derefEv+0x41>
  35:	48 8b 45 e8          	mov    -0x18(%rbp),%rax
        Q_UNUSED(_t)
        switch (_id) {
  39:	48 89 c7             	mov    %rax,%rdi
  3c:	e8 00 00 00 00       	callq  41 <_ZN9QtPrivate8RefCount5derefEv+0x41>
  41:	c9                   	leaveq 
  42:	c3                   	retq   

Дизассемблирование раздела .text._ZN7QStringC2ERKS_:

0000000000000000 <_ZN7QStringC1ERKS_>:

       0        // eod
};

void MainWindow::qt_static_metacall(QObject *_o, QMetaObject::Call _c, int _id, void **_a)
{
   0:	55                   	push   %rbp
   1:	48 89 e5             	mov    %rsp,%rbp
   4:	48 83 ec 10          	sub    $0x10,%rsp
   8:	48 89 7d f8          	mov    %rdi,-0x8(%rbp)
   c:	48 89 75 f0          	mov    %rsi,-0x10(%rbp)
  10:	48 8b 45 f0          	mov    -0x10(%rbp),%rax
  14:	48 8b 10             	mov    (%rax),%rdx
  17:	48 8b 45 f8          	mov    -0x8(%rbp),%rax
  1b:	48 89 10             	mov    %rdx,(%rax)
  1e:	48 8b 45 f0          	mov    -0x10(%rbp),%rax
  22:	48 3b 45 f8          	cmp    -0x8(%rbp),%rax
    if (_c == QMetaObject::InvokeMetaMethod) {
  26:	75 18                	jne    40 <_ZN7QStringC1ERKS_+0x40>
  28:	ba 6e 03 00 00       	mov    $0x36e,%edx
  2d:	48 8d 35 00 00 00 00 	lea    0x0(%rip),%rsi        # 34 <_ZN7QStringC1ERKS_+0x34>
        MainWindow *_t = static_cast<MainWindow *>(_o);
  34:	48 8d 3d 00 00 00 00 	lea    0x0(%rip),%rdi        # 3b <_ZN7QStringC1ERKS_+0x3b>
        Q_UNUSED(_t)
        switch (_id) {
  3b:	e8 00 00 00 00       	callq  40 <_ZN7QStringC1ERKS_+0x40>
  40:	e8 00 00 00 00       	callq  45 <_ZN7QStringC1ERKS_+0x45>
  45:	48 8b 45 f8          	mov    -0x8(%rbp),%rax
        case 1: _t->pe((*reinterpret_cast< QString(*)>(_a[1]))); break;
        case 2: _t->on_pushButton_2_clicked(); break;
        default: ;
        }
    }
}
  49:	48 8b 00             	mov    (%rax),%rax
{
    if (_c == QMetaObject::InvokeMetaMethod) {
        MainWindow *_t = static_cast<MainWindow *>(_o);
        Q_UNUSED(_t)
        switch (_id) {
        case 0: _t->on_pushButton_clicked(); break;
  4c:	48 89 c7             	mov    %rax,%rdi
  4f:	e8 00 00 00 00       	callq  54 <_ZN7QStringC1ERKS_+0x54>
  54:	90                   	nop
  55:	c9                   	leaveq 
  56:	c3                   	retq   

Дизассемблирование раздела .text._ZN7QStringD2Ev:

0000000000000000 <_ZN7QStringD1Ev>:

       0        // eod
};

void MainWindow::qt_static_metacall(QObject *_o, QMetaObject::Call _c, int _id, void **_a)
{
   0:	55                   	push   %rbp
   1:	48 89 e5             	mov    %rsp,%rbp
   4:	48 83 ec 10          	sub    $0x10,%rsp
   8:	48 89 7d f8          	mov    %rdi,-0x8(%rbp)
   c:	48 8b 45 f8          	mov    -0x8(%rbp),%rax
  10:	48 8b 00             	mov    (%rax),%rax
  13:	48 89 c7             	mov    %rax,%rdi
  16:	e8 00 00 00 00       	callq  1b <_ZN7QStringD1Ev+0x1b>
  1b:	83 f0 01             	xor    $0x1,%eax
  1e:	84 c0                	test   %al,%al
  20:	74 0f                	je     31 <_ZN7QStringD1Ev+0x31>
  22:	48 8b 45 f8          	mov    -0x8(%rbp),%rax
    if (_c == QMetaObject::InvokeMetaMethod) {
  26:	48 8b 00             	mov    (%rax),%rax
  29:	48 89 c7             	mov    %rax,%rdi
  2c:	e8 00 00 00 00       	callq  31 <_ZN7QStringD1Ev+0x31>
        MainWindow *_t = static_cast<MainWindow *>(_o);
  31:	90                   	nop
  32:	c9                   	leaveq 
  33:	c3                   	retq   

Дизассемблирование раздела .text._ZNK19QBasicAtomicIntegerIiE4loadEv:

0000000000000000 <_ZNK19QBasicAtomicIntegerIiE4loadEv>:

       0        // eod
};

void MainWindow::qt_static_metacall(QObject *_o, QMetaObject::Call _c, int _id, void **_a)
{
   0:	55                   	push   %rbp
   1:	48 89 e5             	mov    %rsp,%rbp
   4:	48 89 7d e8          	mov    %rdi,-0x18(%rbp)
   8:	48 8b 45 e8          	mov    -0x18(%rbp),%rax
   c:	48 89 45 f8          	mov    %rax,-0x8(%rbp)
  10:	48 8b 45 f8          	mov    -0x8(%rbp),%rax
  14:	8b 00                	mov    (%rax),%eax
  16:	90                   	nop
  17:	5d                   	pop    %rbp
  18:	c3                   	retq   

Дизассемблирование раздела .text._ZN19QBasicAtomicIntegerIiE3refEv:

0000000000000000 <_ZN19QBasicAtomicIntegerIiE3refEv>:
   0:	55                   	push   %rbp
   1:	48 89 e5             	mov    %rsp,%rbp
   4:	48 83 ec 10          	sub    $0x10,%rsp
   8:	48 89 7d f8          	mov    %rdi,-0x8(%rbp)
   c:	48 8b 45 f8          	mov    -0x8(%rbp),%rax
  10:	48 89 c7             	mov    %rax,%rdi
  13:	e8 00 00 00 00       	callq  18 <_ZN19QBasicAtomicIntegerIiE3refEv+0x18>
  18:	c9                   	leaveq 
  19:	c3                   	retq   

Дизассемблирование раздела .text._ZN19QBasicAtomicIntegerIiE5derefEv:

0000000000000000 <_ZN19QBasicAtomicIntegerIiE5derefEv>:
   0:	55                   	push   %rbp
   1:	48 89 e5             	mov    %rsp,%rbp
   4:	48 83 ec 10          	sub    $0x10,%rsp
   8:	48 89 7d f8          	mov    %rdi,-0x8(%rbp)
   c:	48 8b 45 f8          	mov    -0x8(%rbp),%rax
  10:	48 89 c7             	mov    %rax,%rdi
  13:	e8 00 00 00 00       	callq  18 <_ZN19QBasicAtomicIntegerIiE5derefEv+0x18>
  18:	c9                   	leaveq 
  19:	c3                   	retq   

Дизассемблирование раздела .text._ZN15QTypedArrayDataItE10deallocateEP10QArrayData:

0000000000000000 <_ZN15QTypedArrayDataItE10deallocateEP10QArrayData>:
   0:	55                   	push   %rbp
   1:	48 89 e5             	mov    %rsp,%rbp
   4:	48 83 ec 10          	sub    $0x10,%rsp
   8:	48 89 7d f8          	mov    %rdi,-0x8(%rbp)
   c:	48 8b 45 f8          	mov    -0x8(%rbp),%rax
  10:	ba 08 00 00 00       	mov    $0x8,%edx
  15:	be 02 00 00 00       	mov    $0x2,%esi
  1a:	48 89 c7             	mov    %rax,%rdi
  1d:	e8 00 00 00 00       	callq  22 <_ZN15QTypedArrayDataItE10deallocateEP10QArrayData+0x22>
  22:	90                   	nop
  23:	c9                   	leaveq 
  24:	c3                   	retq   

Дизассемблирование раздела .text._ZNK14QScopedPointerI11QObjectData21QScopedPointerDeleterIS0_EEptEv:

0000000000000000 <_ZNK14QScopedPointerI11QObjectData21QScopedPointerDeleterIS0_EEptEv>:
   0:	55                   	push   %rbp
   1:	48 89 e5             	mov    %rsp,%rbp
   4:	48 83 ec 10          	sub    $0x10,%rsp
   8:	48 89 7d f8          	mov    %rdi,-0x8(%rbp)
   c:	48 8b 45 f8          	mov    -0x8(%rbp),%rax
  10:	48 8b 00             	mov    (%rax),%rax
  13:	48 85 c0             	test   %rax,%rax
  16:	75 18                	jne    30 <_ZNK14QScopedPointerI11QObjectData21QScopedPointerDeleterIS0_EEptEv+0x30>
  18:	ba 70 00 00 00       	mov    $0x70,%edx
  1d:	48 8d 35 00 00 00 00 	lea    0x0(%rip),%rsi        # 24 <_ZNK14QScopedPointerI11QObjectData21QScopedPointerDeleterIS0_EEptEv+0x24>
  24:	48 8d 3d 00 00 00 00 	lea    0x0(%rip),%rdi        # 2b <_ZNK14QScopedPointerI11QObjectData21QScopedPointerDeleterIS0_EEptEv+0x2b>
    if (_c == QMetaObject::InvokeMetaMethod) {
  2b:	e8 00 00 00 00       	callq  30 <_ZNK14QScopedPointerI11QObjectData21QScopedPointerDeleterIS0_EEptEv+0x30>
        MainWindow *_t = static_cast<MainWindow *>(_o);
  30:	e8 00 00 00 00       	callq  35 <_ZNK14QScopedPointerI11QObjectData21QScopedPointerDeleterIS0_EEptEv+0x35>
  35:	48 8b 45 f8          	mov    -0x8(%rbp),%rax
        Q_UNUSED(_t)
        switch (_id) {
  39:	48 8b 00             	mov    (%rax),%rax
  3c:	c9                   	leaveq 
  3d:	c3                   	retq   

Дизассемблирование раздела .text._ZN15QBasicAtomicOpsILi4EE3refIiEEbRT_:

0000000000000000 <_ZN15QBasicAtomicOpsILi4EE3refIiEEbRT_>:

       0        // eod
};

void MainWindow::qt_static_metacall(QObject *_o, QMetaObject::Call _c, int _id, void **_a)
{
   0:	55                   	push   %rbp
   1:	48 89 e5             	mov    %rsp,%rbp
   4:	48 89 7d e8          	mov    %rdi,-0x18(%rbp)
   8:	48 8b 45 e8          	mov    -0x18(%rbp),%rax
   c:	48 8b 55 e8          	mov    -0x18(%rbp),%rdx
  10:	f0 83 00 01          	lock addl $0x1,(%rax)
  14:	0f 95 c2             	setne  %dl
  17:	88 55 ff             	mov    %dl,-0x1(%rbp)
  1a:	80 7d ff 00          	cmpb   $0x0,-0x1(%rbp)
  1e:	0f 95 c0             	setne  %al
  21:	5d                   	pop    %rbp
  22:	c3                   	retq   

Дизассемблирование раздела .text._ZN15QBasicAtomicOpsILi4EE5derefIiEEbRT_:

0000000000000000 <_ZN15QBasicAtomicOpsILi4EE5derefIiEEbRT_>:
   0:	55                   	push   %rbp
   1:	48 89 e5             	mov    %rsp,%rbp
   4:	48 89 7d e8          	mov    %rdi,-0x18(%rbp)
   8:	48 8b 45 e8          	mov    -0x18(%rbp),%rax
   c:	48 8b 55 e8          	mov    -0x18(%rbp),%rdx
  10:	f0 83 28 01          	lock subl $0x1,(%rax)
  14:	0f 95 c2             	setne  %dl
  17:	88 55 ff             	mov    %dl,-0x1(%rbp)
  1a:	80 7d ff 00          	cmpb   $0x0,-0x1(%rbp)
  1e:	0f 95 c0             	setne  %al
  21:	5d                   	pop    %rbp
  22:	c3                   	retq   
