
variable.o:     формат файла elf64-x86-64

Разделы:
Инд Имя           Размер    VMA               LMA               Файл      Вырав
  0 .group        00000008  0000000000000000  0000000000000000  00000040  2**2
                  CONTENTS, READONLY, EXCLUDE, GROUP, LINK_ONCE_DISCARD
  1 .group        00000008  0000000000000000  0000000000000000  00000048  2**2
                  CONTENTS, READONLY, EXCLUDE, GROUP, LINK_ONCE_DISCARD
  2 .group        00000008  0000000000000000  0000000000000000  00000050  2**2
                  CONTENTS, READONLY, EXCLUDE, GROUP, LINK_ONCE_DISCARD
  3 .group        00000008  0000000000000000  0000000000000000  00000058  2**2
                  CONTENTS, READONLY, EXCLUDE, GROUP, LINK_ONCE_DISCARD
  4 .group        00000008  0000000000000000  0000000000000000  00000060  2**2
                  CONTENTS, READONLY, EXCLUDE, GROUP, LINK_ONCE_DISCARD
  5 .group        00000008  0000000000000000  0000000000000000  00000068  2**2
                  CONTENTS, READONLY, EXCLUDE, GROUP, LINK_ONCE_DISCARD
  6 .group        00000008  0000000000000000  0000000000000000  00000070  2**2
                  CONTENTS, READONLY, EXCLUDE, GROUP, LINK_ONCE_DISCARD
  7 .group        00000008  0000000000000000  0000000000000000  00000078  2**2
                  CONTENTS, READONLY, EXCLUDE, GROUP, LINK_ONCE_DISCARD
  8 .group        00000008  0000000000000000  0000000000000000  00000080  2**2
                  CONTENTS, READONLY, EXCLUDE, GROUP, LINK_ONCE_DISCARD
  9 .group        00000008  0000000000000000  0000000000000000  00000088  2**2
                  CONTENTS, READONLY, EXCLUDE, GROUP, LINK_ONCE_DISCARD
 10 .group        00000008  0000000000000000  0000000000000000  00000090  2**2
                  CONTENTS, READONLY, EXCLUDE, GROUP, LINK_ONCE_DISCARD
 11 .group        00000008  0000000000000000  0000000000000000  00000098  2**2
                  CONTENTS, READONLY, EXCLUDE, GROUP, LINK_ONCE_DISCARD
 12 .group        00000008  0000000000000000  0000000000000000  000000a0  2**2
                  CONTENTS, READONLY, EXCLUDE, GROUP, LINK_ONCE_DISCARD
 13 .group        00000008  0000000000000000  0000000000000000  000000a8  2**2
                  CONTENTS, READONLY, EXCLUDE, GROUP, LINK_ONCE_DISCARD
 14 .group        00000008  0000000000000000  0000000000000000  000000b0  2**2
                  CONTENTS, READONLY, EXCLUDE, GROUP, LINK_ONCE_DISCARD
 15 .group        00000008  0000000000000000  0000000000000000  000000b8  2**2
                  CONTENTS, READONLY, EXCLUDE, GROUP, LINK_ONCE_DISCARD
 16 .group        00000008  0000000000000000  0000000000000000  000000c0  2**2
                  CONTENTS, READONLY, EXCLUDE, GROUP, LINK_ONCE_DISCARD
 17 .group        00000008  0000000000000000  0000000000000000  000000c8  2**2
                  CONTENTS, READONLY, EXCLUDE, GROUP, LINK_ONCE_DISCARD
 18 .group        00000008  0000000000000000  0000000000000000  000000d0  2**2
                  CONTENTS, READONLY, EXCLUDE, GROUP, LINK_ONCE_DISCARD
 19 .group        00000008  0000000000000000  0000000000000000  000000d8  2**2
                  CONTENTS, READONLY, EXCLUDE, GROUP, LINK_ONCE_DISCARD
 20 .group        00000008  0000000000000000  0000000000000000  000000e0  2**2
                  CONTENTS, READONLY, EXCLUDE, GROUP, LINK_ONCE_DISCARD
 21 .group        00000008  0000000000000000  0000000000000000  000000e8  2**2
                  CONTENTS, READONLY, EXCLUDE, GROUP, LINK_ONCE_DISCARD
 22 .group        00000008  0000000000000000  0000000000000000  000000f0  2**2
                  CONTENTS, READONLY, EXCLUDE, GROUP, LINK_ONCE_DISCARD
 23 .group        00000008  0000000000000000  0000000000000000  000000f8  2**2
                  CONTENTS, READONLY, EXCLUDE, GROUP, LINK_ONCE_DISCARD
 24 .group        00000008  0000000000000000  0000000000000000  00000100  2**2
                  CONTENTS, READONLY, EXCLUDE, GROUP, LINK_ONCE_DISCARD
 25 .group        00000008  0000000000000000  0000000000000000  00000108  2**2
                  CONTENTS, READONLY, EXCLUDE, GROUP, LINK_ONCE_DISCARD
 26 .group        00000008  0000000000000000  0000000000000000  00000110  2**2
                  CONTENTS, READONLY, EXCLUDE, GROUP, LINK_ONCE_DISCARD
 27 .group        00000008  0000000000000000  0000000000000000  00000118  2**2
                  CONTENTS, READONLY, EXCLUDE, GROUP, LINK_ONCE_DISCARD
 28 .group        00000008  0000000000000000  0000000000000000  00000120  2**2
                  CONTENTS, READONLY, EXCLUDE, GROUP, LINK_ONCE_DISCARD
 29 .group        00000008  0000000000000000  0000000000000000  00000128  2**2
                  CONTENTS, READONLY, EXCLUDE, GROUP, LINK_ONCE_DISCARD
 30 .group        00000008  0000000000000000  0000000000000000  00000130  2**2
                  CONTENTS, READONLY, EXCLUDE, GROUP, LINK_ONCE_DISCARD
 31 .group        00000008  0000000000000000  0000000000000000  00000138  2**2
                  CONTENTS, READONLY, EXCLUDE, GROUP, LINK_ONCE_DISCARD
 32 .group        00000008  0000000000000000  0000000000000000  00000140  2**2
                  CONTENTS, READONLY, EXCLUDE, GROUP, LINK_ONCE_DISCARD
 33 .group        00000008  0000000000000000  0000000000000000  00000148  2**2
                  CONTENTS, READONLY, EXCLUDE, GROUP, LINK_ONCE_DISCARD
 34 .group        00000008  0000000000000000  0000000000000000  00000150  2**2
                  CONTENTS, READONLY, EXCLUDE, GROUP, LINK_ONCE_DISCARD
 35 .group        00000008  0000000000000000  0000000000000000  00000158  2**2
                  CONTENTS, READONLY, EXCLUDE, GROUP, LINK_ONCE_DISCARD
 36 .group        00000008  0000000000000000  0000000000000000  00000160  2**2
                  CONTENTS, READONLY, EXCLUDE, GROUP, LINK_ONCE_DISCARD
 37 .group        00000008  0000000000000000  0000000000000000  00000168  2**2
                  CONTENTS, READONLY, EXCLUDE, GROUP, LINK_ONCE_DISCARD
 38 .group        00000008  0000000000000000  0000000000000000  00000170  2**2
                  CONTENTS, READONLY, EXCLUDE, GROUP, LINK_ONCE_DISCARD
 39 .group        00000008  0000000000000000  0000000000000000  00000178  2**2
                  CONTENTS, READONLY, EXCLUDE, GROUP, LINK_ONCE_DISCARD
 40 .group        00000008  0000000000000000  0000000000000000  00000180  2**2
                  CONTENTS, READONLY, EXCLUDE, GROUP, LINK_ONCE_DISCARD
 41 .group        00000008  0000000000000000  0000000000000000  00000188  2**2
                  CONTENTS, READONLY, EXCLUDE, GROUP, LINK_ONCE_DISCARD
 42 .group        00000008  0000000000000000  0000000000000000  00000190  2**2
                  CONTENTS, READONLY, EXCLUDE, GROUP, LINK_ONCE_DISCARD
 43 .group        00000008  0000000000000000  0000000000000000  00000198  2**2
                  CONTENTS, READONLY, EXCLUDE, GROUP, LINK_ONCE_DISCARD
 44 .group        00000008  0000000000000000  0000000000000000  000001a0  2**2
                  CONTENTS, READONLY, EXCLUDE, GROUP, LINK_ONCE_DISCARD
 45 .group        00000008  0000000000000000  0000000000000000  000001a8  2**2
                  CONTENTS, READONLY, EXCLUDE, GROUP, LINK_ONCE_DISCARD
 46 .group        00000008  0000000000000000  0000000000000000  000001b0  2**2
                  CONTENTS, READONLY, EXCLUDE, GROUP, LINK_ONCE_DISCARD
 47 .group        00000008  0000000000000000  0000000000000000  000001b8  2**2
                  CONTENTS, READONLY, EXCLUDE, GROUP, LINK_ONCE_DISCARD
 48 .group        00000008  0000000000000000  0000000000000000  000001c0  2**2
                  CONTENTS, READONLY, EXCLUDE, GROUP, LINK_ONCE_DISCARD
 49 .group        00000008  0000000000000000  0000000000000000  000001c8  2**2
                  CONTENTS, READONLY, EXCLUDE, GROUP, LINK_ONCE_DISCARD
 50 .group        00000008  0000000000000000  0000000000000000  000001d0  2**2
                  CONTENTS, READONLY, EXCLUDE, GROUP, LINK_ONCE_DISCARD
 51 .group        00000008  0000000000000000  0000000000000000  000001d8  2**2
                  CONTENTS, READONLY, EXCLUDE, GROUP, LINK_ONCE_DISCARD
 52 .group        00000008  0000000000000000  0000000000000000  000001e0  2**2
                  CONTENTS, READONLY, EXCLUDE, GROUP, LINK_ONCE_DISCARD
 53 .group        00000008  0000000000000000  0000000000000000  000001e8  2**2
                  CONTENTS, READONLY, EXCLUDE, GROUP, LINK_ONCE_DISCARD
 54 .group        00000008  0000000000000000  0000000000000000  000001f0  2**2
                  CONTENTS, READONLY, EXCLUDE, GROUP, LINK_ONCE_DISCARD
 55 .group        00000008  0000000000000000  0000000000000000  000001f8  2**2
                  CONTENTS, READONLY, EXCLUDE, GROUP, LINK_ONCE_DISCARD
 56 .group        00000008  0000000000000000  0000000000000000  00000200  2**2
                  CONTENTS, READONLY, EXCLUDE, GROUP, LINK_ONCE_DISCARD
 57 .group        00000008  0000000000000000  0000000000000000  00000208  2**2
                  CONTENTS, READONLY, EXCLUDE, GROUP, LINK_ONCE_DISCARD
 58 .group        00000008  0000000000000000  0000000000000000  00000210  2**2
                  CONTENTS, READONLY, EXCLUDE, GROUP, LINK_ONCE_DISCARD
 59 .group        00000008  0000000000000000  0000000000000000  00000218  2**2
                  CONTENTS, READONLY, EXCLUDE, GROUP, LINK_ONCE_DISCARD
 60 .group        00000008  0000000000000000  0000000000000000  00000220  2**2
                  CONTENTS, READONLY, EXCLUDE, GROUP, LINK_ONCE_DISCARD
 61 .group        00000008  0000000000000000  0000000000000000  00000228  2**2
                  CONTENTS, READONLY, EXCLUDE, GROUP, LINK_ONCE_DISCARD
 62 .group        00000008  0000000000000000  0000000000000000  00000230  2**2
                  CONTENTS, READONLY, EXCLUDE, GROUP, LINK_ONCE_DISCARD
 63 .group        00000008  0000000000000000  0000000000000000  00000238  2**2
                  CONTENTS, READONLY, EXCLUDE, GROUP, LINK_ONCE_DISCARD
 64 .group        00000008  0000000000000000  0000000000000000  00000240  2**2
                  CONTENTS, READONLY, EXCLUDE, GROUP, LINK_ONCE_DISCARD
 65 .group        00000008  0000000000000000  0000000000000000  00000248  2**2
                  CONTENTS, READONLY, EXCLUDE, GROUP, LINK_ONCE_DISCARD
 66 .group        00000008  0000000000000000  0000000000000000  00000250  2**2
                  CONTENTS, READONLY, EXCLUDE, GROUP, LINK_ONCE_DISCARD
 67 .group        00000008  0000000000000000  0000000000000000  00000258  2**2
                  CONTENTS, READONLY, EXCLUDE, GROUP, LINK_ONCE_DISCARD
 68 .group        00000008  0000000000000000  0000000000000000  00000260  2**2
                  CONTENTS, READONLY, EXCLUDE, GROUP, LINK_ONCE_DISCARD
 69 .group        00000008  0000000000000000  0000000000000000  00000268  2**2
                  CONTENTS, READONLY, EXCLUDE, GROUP, LINK_ONCE_DISCARD
 70 .group        00000008  0000000000000000  0000000000000000  00000270  2**2
                  CONTENTS, READONLY, EXCLUDE, GROUP, LINK_ONCE_DISCARD
 71 .group        00000008  0000000000000000  0000000000000000  00000278  2**2
                  CONTENTS, READONLY, EXCLUDE, GROUP, LINK_ONCE_DISCARD
 72 .group        00000008  0000000000000000  0000000000000000  00000280  2**2
                  CONTENTS, READONLY, EXCLUDE, GROUP, LINK_ONCE_DISCARD
 73 .group        00000008  0000000000000000  0000000000000000  00000288  2**2
                  CONTENTS, READONLY, EXCLUDE, GROUP, LINK_ONCE_DISCARD
 74 .group        00000008  0000000000000000  0000000000000000  00000290  2**2
                  CONTENTS, READONLY, EXCLUDE, GROUP, LINK_ONCE_DISCARD
 75 .group        00000008  0000000000000000  0000000000000000  00000298  2**2
                  CONTENTS, READONLY, EXCLUDE, GROUP, LINK_ONCE_DISCARD
 76 .group        00000008  0000000000000000  0000000000000000  000002a0  2**2
                  CONTENTS, READONLY, EXCLUDE, GROUP, LINK_ONCE_DISCARD
 77 .group        00000008  0000000000000000  0000000000000000  000002a8  2**2
                  CONTENTS, READONLY, EXCLUDE, GROUP, LINK_ONCE_DISCARD
 78 .group        00000008  0000000000000000  0000000000000000  000002b0  2**2
                  CONTENTS, READONLY, EXCLUDE, GROUP, LINK_ONCE_DISCARD
 79 .group        00000008  0000000000000000  0000000000000000  000002b8  2**2
                  CONTENTS, READONLY, EXCLUDE, GROUP, LINK_ONCE_DISCARD
 80 .group        00000008  0000000000000000  0000000000000000  000002c0  2**2
                  CONTENTS, READONLY, EXCLUDE, GROUP, LINK_ONCE_DISCARD
 81 .group        00000008  0000000000000000  0000000000000000  000002c8  2**2
                  CONTENTS, READONLY, EXCLUDE, GROUP, LINK_ONCE_DISCARD
 82 .group        00000008  0000000000000000  0000000000000000  000002d0  2**2
                  CONTENTS, READONLY, EXCLUDE, GROUP, LINK_ONCE_DISCARD
 83 .group        00000008  0000000000000000  0000000000000000  000002d8  2**2
                  CONTENTS, READONLY, EXCLUDE, GROUP, LINK_ONCE_DISCARD
 84 .group        00000008  0000000000000000  0000000000000000  000002e0  2**2
                  CONTENTS, READONLY, EXCLUDE, GROUP, LINK_ONCE_DISCARD
 85 .group        00000008  0000000000000000  0000000000000000  000002e8  2**2
                  CONTENTS, READONLY, EXCLUDE, GROUP, LINK_ONCE_DISCARD
 86 .group        00000008  0000000000000000  0000000000000000  000002f0  2**2
                  CONTENTS, READONLY, EXCLUDE, GROUP, LINK_ONCE_DISCARD
 87 .group        00000008  0000000000000000  0000000000000000  000002f8  2**2
                  CONTENTS, READONLY, EXCLUDE, GROUP, LINK_ONCE_DISCARD
 88 .group        00000008  0000000000000000  0000000000000000  00000300  2**2
                  CONTENTS, READONLY, EXCLUDE, GROUP, LINK_ONCE_DISCARD
 89 .group        00000008  0000000000000000  0000000000000000  00000308  2**2
                  CONTENTS, READONLY, EXCLUDE, GROUP, LINK_ONCE_DISCARD
 90 .group        00000008  0000000000000000  0000000000000000  00000310  2**2
                  CONTENTS, READONLY, EXCLUDE, GROUP, LINK_ONCE_DISCARD
 91 .group        00000008  0000000000000000  0000000000000000  00000318  2**2
                  CONTENTS, READONLY, EXCLUDE, GROUP, LINK_ONCE_DISCARD
 92 .group        00000008  0000000000000000  0000000000000000  00000320  2**2
                  CONTENTS, READONLY, EXCLUDE, GROUP, LINK_ONCE_DISCARD
 93 .group        00000008  0000000000000000  0000000000000000  00000328  2**2
                  CONTENTS, READONLY, EXCLUDE, GROUP, LINK_ONCE_DISCARD
 94 .group        00000008  0000000000000000  0000000000000000  00000330  2**2
                  CONTENTS, READONLY, EXCLUDE, GROUP, LINK_ONCE_DISCARD
 95 .group        00000008  0000000000000000  0000000000000000  00000338  2**2
                  CONTENTS, READONLY, EXCLUDE, GROUP, LINK_ONCE_DISCARD
 96 .group        00000008  0000000000000000  0000000000000000  00000340  2**2
                  CONTENTS, READONLY, EXCLUDE, GROUP, LINK_ONCE_DISCARD
 97 .group        00000008  0000000000000000  0000000000000000  00000348  2**2
                  CONTENTS, READONLY, EXCLUDE, GROUP, LINK_ONCE_DISCARD
 98 .group        00000008  0000000000000000  0000000000000000  00000350  2**2
                  CONTENTS, READONLY, EXCLUDE, GROUP, LINK_ONCE_DISCARD
 99 .group        00000008  0000000000000000  0000000000000000  00000358  2**2
                  CONTENTS, READONLY, EXCLUDE, GROUP, LINK_ONCE_DISCARD
100 .group        00000008  0000000000000000  0000000000000000  00000360  2**2
                  CONTENTS, READONLY, EXCLUDE, GROUP, LINK_ONCE_DISCARD
101 .group        00000008  0000000000000000  0000000000000000  00000368  2**2
                  CONTENTS, READONLY, EXCLUDE, GROUP, LINK_ONCE_DISCARD
102 .group        00000008  0000000000000000  0000000000000000  00000370  2**2
                  CONTENTS, READONLY, EXCLUDE, GROUP, LINK_ONCE_DISCARD
103 .group        00000008  0000000000000000  0000000000000000  00000378  2**2
                  CONTENTS, READONLY, EXCLUDE, GROUP, LINK_ONCE_DISCARD
104 .group        00000008  0000000000000000  0000000000000000  00000380  2**2
                  CONTENTS, READONLY, EXCLUDE, GROUP, LINK_ONCE_DISCARD
105 .group        00000008  0000000000000000  0000000000000000  00000388  2**2
                  CONTENTS, READONLY, EXCLUDE, GROUP, LINK_ONCE_DISCARD
106 .group        00000008  0000000000000000  0000000000000000  00000390  2**2
                  CONTENTS, READONLY, EXCLUDE, GROUP, LINK_ONCE_DISCARD
107 .group        00000008  0000000000000000  0000000000000000  00000398  2**2
                  CONTENTS, READONLY, EXCLUDE, GROUP, LINK_ONCE_DISCARD
108 .group        00000008  0000000000000000  0000000000000000  000003a0  2**2
                  CONTENTS, READONLY, EXCLUDE, GROUP, LINK_ONCE_DISCARD
109 .group        00000008  0000000000000000  0000000000000000  000003a8  2**2
                  CONTENTS, READONLY, EXCLUDE, GROUP, LINK_ONCE_DISCARD
110 .group        00000008  0000000000000000  0000000000000000  000003b0  2**2
                  CONTENTS, READONLY, EXCLUDE, GROUP, LINK_ONCE_DISCARD
111 .group        00000008  0000000000000000  0000000000000000  000003b8  2**2
                  CONTENTS, READONLY, EXCLUDE, GROUP, LINK_ONCE_DISCARD
112 .group        00000008  0000000000000000  0000000000000000  000003c0  2**2
                  CONTENTS, READONLY, EXCLUDE, GROUP, LINK_ONCE_DISCARD
113 .group        00000008  0000000000000000  0000000000000000  000003c8  2**2
                  CONTENTS, READONLY, EXCLUDE, GROUP, LINK_ONCE_DISCARD
114 .group        00000008  0000000000000000  0000000000000000  000003d0  2**2
                  CONTENTS, READONLY, EXCLUDE, GROUP, LINK_ONCE_DISCARD
115 .group        00000008  0000000000000000  0000000000000000  000003d8  2**2
                  CONTENTS, READONLY, EXCLUDE, GROUP, LINK_ONCE_DISCARD
116 .group        00000008  0000000000000000  0000000000000000  000003e0  2**2
                  CONTENTS, READONLY, EXCLUDE, GROUP, LINK_ONCE_DISCARD
117 .group        00000008  0000000000000000  0000000000000000  000003e8  2**2
                  CONTENTS, READONLY, EXCLUDE, GROUP, LINK_ONCE_DISCARD
118 .group        00000008  0000000000000000  0000000000000000  000003f0  2**2
                  CONTENTS, READONLY, EXCLUDE, GROUP, LINK_ONCE_DISCARD
119 .group        00000008  0000000000000000  0000000000000000  000003f8  2**2
                  CONTENTS, READONLY, EXCLUDE, GROUP, LINK_ONCE_DISCARD
120 .group        00000008  0000000000000000  0000000000000000  00000400  2**2
                  CONTENTS, READONLY, EXCLUDE, GROUP, LINK_ONCE_DISCARD
121 .group        00000008  0000000000000000  0000000000000000  00000408  2**2
                  CONTENTS, READONLY, EXCLUDE, GROUP, LINK_ONCE_DISCARD
122 .group        00000008  0000000000000000  0000000000000000  00000410  2**2
                  CONTENTS, READONLY, EXCLUDE, GROUP, LINK_ONCE_DISCARD
123 .group        00000008  0000000000000000  0000000000000000  00000418  2**2
                  CONTENTS, READONLY, EXCLUDE, GROUP, LINK_ONCE_DISCARD
124 .group        00000008  0000000000000000  0000000000000000  00000420  2**2
                  CONTENTS, READONLY, EXCLUDE, GROUP, LINK_ONCE_DISCARD
125 .group        00000008  0000000000000000  0000000000000000  00000428  2**2
                  CONTENTS, READONLY, EXCLUDE, GROUP, LINK_ONCE_DISCARD
126 .group        00000008  0000000000000000  0000000000000000  00000430  2**2
                  CONTENTS, READONLY, EXCLUDE, GROUP, LINK_ONCE_DISCARD
127 .group        00000008  0000000000000000  0000000000000000  00000438  2**2
                  CONTENTS, READONLY, EXCLUDE, GROUP, LINK_ONCE_DISCARD
128 .group        00000008  0000000000000000  0000000000000000  00000440  2**2
                  CONTENTS, READONLY, EXCLUDE, GROUP, LINK_ONCE_DISCARD
129 .group        00000008  0000000000000000  0000000000000000  00000448  2**2
                  CONTENTS, READONLY, EXCLUDE, GROUP, LINK_ONCE_DISCARD
130 .group        00000008  0000000000000000  0000000000000000  00000450  2**2
                  CONTENTS, READONLY, EXCLUDE, GROUP, LINK_ONCE_DISCARD
131 .group        00000008  0000000000000000  0000000000000000  00000458  2**2
                  CONTENTS, READONLY, EXCLUDE, GROUP, LINK_ONCE_DISCARD
132 .group        00000008  0000000000000000  0000000000000000  00000460  2**2
                  CONTENTS, READONLY, EXCLUDE, GROUP, LINK_ONCE_DISCARD
133 .group        00000008  0000000000000000  0000000000000000  00000468  2**2
                  CONTENTS, READONLY, EXCLUDE, GROUP, LINK_ONCE_DISCARD
134 .group        00000008  0000000000000000  0000000000000000  00000470  2**2
                  CONTENTS, READONLY, EXCLUDE, GROUP, LINK_ONCE_DISCARD
135 .group        00000008  0000000000000000  0000000000000000  00000478  2**2
                  CONTENTS, READONLY, EXCLUDE, GROUP, LINK_ONCE_DISCARD
136 .text         00000181  0000000000000000  0000000000000000  00000480  2**1
                  CONTENTS, ALLOC, LOAD, RELOC, READONLY, CODE
137 .data         00000000  0000000000000000  0000000000000000  00000601  2**0
                  CONTENTS, ALLOC, LOAD, DATA
138 .bss          00000000  0000000000000000  0000000000000000  00000601  2**0
                  ALLOC
139 .text._ZN9QtPrivate8RefCount5derefEv 00000043  0000000000000000  0000000000000000  00000602  2**1
                  CONTENTS, ALLOC, LOAD, RELOC, READONLY, CODE
140 .text._ZN10QArrayData10sharedNullEv 0000000d  0000000000000000  0000000000000000  00000645  2**0
                  CONTENTS, ALLOC, LOAD, RELOC, READONLY, CODE
141 .text._ZN10QByteArrayC2Ev 0000001e  0000000000000000  0000000000000000  00000652  2**1
                  CONTENTS, ALLOC, LOAD, RELOC, READONLY, CODE
142 .text._ZN10QByteArrayD2Ev 00000034  0000000000000000  0000000000000000  00000670  2**1
                  CONTENTS, ALLOC, LOAD, RELOC, READONLY, CODE
143 .text._ZN7QStringC2Ev 0000001e  0000000000000000  0000000000000000  000006a4  2**1
                  CONTENTS, ALLOC, LOAD, RELOC, READONLY, CODE
144 .text._ZN11QDataStreamlsEh 00000028  0000000000000000  0000000000000000  000006c2  2**1
                  CONTENTS, ALLOC, LOAD, RELOC, READONLY, CODE
145 .text._ZN11QDataStreamlsEt 00000029  0000000000000000  0000000000000000  000006ea  2**1
                  CONTENTS, ALLOC, LOAD, RELOC, READONLY, CODE
146 .gcc_except_table 0000001a  0000000000000000  0000000000000000  00000713  2**0
                  CONTENTS, ALLOC, LOAD, READONLY, DATA
147 .text._ZNK19QBasicAtomicIntegerIiE4loadEv 00000019  0000000000000000  0000000000000000  0000072e  2**1
                  CONTENTS, ALLOC, LOAD, READONLY, CODE
148 .text._ZN19QBasicAtomicIntegerIiE5derefEv 0000001a  0000000000000000  0000000000000000  00000748  2**1
                  CONTENTS, ALLOC, LOAD, RELOC, READONLY, CODE
149 .text._ZN15QTypedArrayDataIcE10sharedNullEv 0000000b  0000000000000000  0000000000000000  00000762  2**0
                  CONTENTS, ALLOC, LOAD, RELOC, READONLY, CODE
150 .text._ZN15QTypedArrayDataIcE10deallocateEP10QArrayData 00000025  0000000000000000  0000000000000000  0000076d  2**0
                  CONTENTS, ALLOC, LOAD, RELOC, READONLY, CODE
151 .text._ZN15QTypedArrayDataItE10sharedNullEv 0000000b  0000000000000000  0000000000000000  00000792  2**0
                  CONTENTS, ALLOC, LOAD, RELOC, READONLY, CODE
152 .text._ZN6QFlagsIN9QIODevice12OpenModeFlagEEC2ES1_ 00000017  0000000000000000  0000000000000000  0000079e  2**1
                  CONTENTS, ALLOC, LOAD, READONLY, CODE
153 .text._ZN15QBasicAtomicOpsILi4EE5derefIiEEbRT_ 00000023  0000000000000000  0000000000000000  000007b5  2**0
                  CONTENTS, ALLOC, LOAD, READONLY, CODE
154 .debug_info   00013263  0000000000000000  0000000000000000  000007d8  2**0
                  CONTENTS, RELOC, READONLY, DEBUGGING
155 .debug_abbrev 0000099c  0000000000000000  0000000000000000  00013a3b  2**0
                  CONTENTS, READONLY, DEBUGGING
156 .debug_aranges 00000110  0000000000000000  0000000000000000  000143d7  2**0
                  CONTENTS, RELOC, READONLY, DEBUGGING
157 .debug_ranges 00000100  0000000000000000  0000000000000000  000144e7  2**0
                  CONTENTS, RELOC, READONLY, DEBUGGING
158 .debug_macro  00000a83  0000000000000000  0000000000000000  000145e7  2**0
                  CONTENTS, RELOC, READONLY, DEBUGGING
159 .debug_macro  0000061c  0000000000000000  0000000000000000  0001506a  2**0
                  CONTENTS, RELOC, READONLY, DEBUGGING
160 .debug_macro  00000022  0000000000000000  0000000000000000  00015686  2**0
                  CONTENTS, RELOC, READONLY, DEBUGGING
161 .debug_macro  00000136  0000000000000000  0000000000000000  000156a8  2**0
                  CONTENTS, RELOC, READONLY, DEBUGGING
162 .debug_macro  00000010  0000000000000000  0000000000000000  000157de  2**0
                  CONTENTS, RELOC, READONLY, DEBUGGING
163 .debug_macro  00000275  0000000000000000  0000000000000000  000157ee  2**0
                  CONTENTS, RELOC, READONLY, DEBUGGING
164 .debug_macro  0000016f  0000000000000000  0000000000000000  00015a63  2**0
                  CONTENTS, RELOC, READONLY, DEBUGGING
165 .debug_macro  00000016  0000000000000000  0000000000000000  00015bd2  2**0
                  CONTENTS, RELOC, READONLY, DEBUGGING
166 .debug_macro  00000035  0000000000000000  0000000000000000  00015be8  2**0
                  CONTENTS, RELOC, READONLY, DEBUGGING
167 .debug_macro  00000058  0000000000000000  0000000000000000  00015c1d  2**0
                  CONTENTS, RELOC, READONLY, DEBUGGING
168 .debug_macro  000005b4  0000000000000000  0000000000000000  00015c75  2**0
                  CONTENTS, RELOC, READONLY, DEBUGGING
169 .debug_macro  0000016d  0000000000000000  0000000000000000  00016229  2**0
                  CONTENTS, RELOC, READONLY, DEBUGGING
170 .debug_macro  00000016  0000000000000000  0000000000000000  00016396  2**0
                  CONTENTS, RELOC, READONLY, DEBUGGING
171 .debug_macro  0000009a  0000000000000000  0000000000000000  000163ac  2**0
                  CONTENTS, RELOC, READONLY, DEBUGGING
172 .debug_macro  00000016  0000000000000000  0000000000000000  00016446  2**0
                  CONTENTS, RELOC, READONLY, DEBUGGING
173 .debug_macro  00000018  0000000000000000  0000000000000000  0001645c  2**0
                  CONTENTS, RELOC, READONLY, DEBUGGING
174 .debug_macro  00000032  0000000000000000  0000000000000000  00016474  2**0
                  CONTENTS, RELOC, READONLY, DEBUGGING
175 .debug_macro  000000c0  0000000000000000  0000000000000000  000164a6  2**0
                  CONTENTS, RELOC, READONLY, DEBUGGING
176 .debug_macro  00000028  0000000000000000  0000000000000000  00016566  2**0
                  CONTENTS, RELOC, READONLY, DEBUGGING
177 .debug_macro  00000012  0000000000000000  0000000000000000  0001658e  2**0
                  CONTENTS, RELOC, READONLY, DEBUGGING
178 .debug_macro  000000cf  0000000000000000  0000000000000000  000165a0  2**0
                  CONTENTS, RELOC, READONLY, DEBUGGING
179 .debug_macro  0000001c  0000000000000000  0000000000000000  0001666f  2**0
                  CONTENTS, RELOC, READONLY, DEBUGGING
180 .debug_macro  00000018  0000000000000000  0000000000000000  0001668b  2**0
                  CONTENTS, RELOC, READONLY, DEBUGGING
181 .debug_macro  0000006e  0000000000000000  0000000000000000  000166a3  2**0
                  CONTENTS, RELOC, READONLY, DEBUGGING
182 .debug_macro  00000082  0000000000000000  0000000000000000  00016711  2**0
                  CONTENTS, RELOC, READONLY, DEBUGGING
183 .debug_macro  00000012  0000000000000000  0000000000000000  00016793  2**0
                  CONTENTS, RELOC, READONLY, DEBUGGING
184 .debug_macro  00000012  0000000000000000  0000000000000000  000167a5  2**0
                  CONTENTS, RELOC, READONLY, DEBUGGING
185 .debug_macro  00000016  0000000000000000  0000000000000000  000167b7  2**0
                  CONTENTS, RELOC, READONLY, DEBUGGING
186 .debug_macro  00000035  0000000000000000  0000000000000000  000167cd  2**0
                  CONTENTS, RELOC, READONLY, DEBUGGING
187 .debug_macro  00000052  0000000000000000  0000000000000000  00016802  2**0
                  CONTENTS, RELOC, READONLY, DEBUGGING
188 .debug_macro  0000004c  0000000000000000  0000000000000000  00016854  2**0
                  CONTENTS, RELOC, READONLY, DEBUGGING
189 .debug_macro  0000001c  0000000000000000  0000000000000000  000168a0  2**0
                  CONTENTS, RELOC, READONLY, DEBUGGING
190 .debug_macro  00000028  0000000000000000  0000000000000000  000168bc  2**0
                  CONTENTS, RELOC, READONLY, DEBUGGING
191 .debug_macro  0000005e  0000000000000000  0000000000000000  000168e4  2**0
                  CONTENTS, RELOC, READONLY, DEBUGGING
192 .debug_macro  000000e2  0000000000000000  0000000000000000  00016942  2**0
                  CONTENTS, RELOC, READONLY, DEBUGGING
193 .debug_macro  00000010  0000000000000000  0000000000000000  00016a24  2**0
                  CONTENTS, RELOC, READONLY, DEBUGGING
194 .debug_macro  0000004c  0000000000000000  0000000000000000  00016a34  2**0
                  CONTENTS, RELOC, READONLY, DEBUGGING
195 .debug_macro  00000022  0000000000000000  0000000000000000  00016a80  2**0
                  CONTENTS, RELOC, READONLY, DEBUGGING
196 .debug_macro  00000068  0000000000000000  0000000000000000  00016aa2  2**0
                  CONTENTS, RELOC, READONLY, DEBUGGING
197 .debug_macro  0000007f  0000000000000000  0000000000000000  00016b0a  2**0
                  CONTENTS, RELOC, READONLY, DEBUGGING
198 .debug_macro  0000003a  0000000000000000  0000000000000000  00016b89  2**0
                  CONTENTS, RELOC, READONLY, DEBUGGING
199 .debug_macro  00000019  0000000000000000  0000000000000000  00016bc3  2**0
                  CONTENTS, RELOC, READONLY, DEBUGGING
200 .debug_macro  00000020  0000000000000000  0000000000000000  00016bdc  2**0
                  CONTENTS, RELOC, READONLY, DEBUGGING
201 .debug_macro  00000022  0000000000000000  0000000000000000  00016bfc  2**0
                  CONTENTS, RELOC, READONLY, DEBUGGING
202 .debug_macro  00000010  0000000000000000  0000000000000000  00016c1e  2**0
                  CONTENTS, RELOC, READONLY, DEBUGGING
203 .debug_macro  00000016  0000000000000000  0000000000000000  00016c2e  2**0
                  CONTENTS, RELOC, READONLY, DEBUGGING
204 .debug_macro  00000028  0000000000000000  0000000000000000  00016c44  2**0
                  CONTENTS, RELOC, READONLY, DEBUGGING
205 .debug_macro  00000010  0000000000000000  0000000000000000  00016c6c  2**0
                  CONTENTS, RELOC, READONLY, DEBUGGING
206 .debug_macro  00000046  0000000000000000  0000000000000000  00016c7c  2**0
                  CONTENTS, RELOC, READONLY, DEBUGGING
207 .debug_macro  0000001c  0000000000000000  0000000000000000  00016cc2  2**0
                  CONTENTS, RELOC, READONLY, DEBUGGING
208 .debug_macro  00000020  0000000000000000  0000000000000000  00016cde  2**0
                  CONTENTS, RELOC, READONLY, DEBUGGING
209 .debug_macro  0000005a  0000000000000000  0000000000000000  00016cfe  2**0
                  CONTENTS, RELOC, READONLY, DEBUGGING
210 .debug_macro  00000010  0000000000000000  0000000000000000  00016d58  2**0
                  CONTENTS, RELOC, READONLY, DEBUGGING
211 .debug_macro  00000010  0000000000000000  0000000000000000  00016d68  2**0
                  CONTENTS, RELOC, READONLY, DEBUGGING
212 .debug_macro  000000e4  0000000000000000  0000000000000000  00016d78  2**0
                  CONTENTS, RELOC, READONLY, DEBUGGING
213 .debug_macro  0000025a  0000000000000000  0000000000000000  00016e5c  2**0
                  CONTENTS, RELOC, READONLY, DEBUGGING
214 .debug_macro  0000002d  0000000000000000  0000000000000000  000170b6  2**0
                  CONTENTS, RELOC, READONLY, DEBUGGING
215 .debug_macro  00000016  0000000000000000  0000000000000000  000170e3  2**0
                  CONTENTS, RELOC, READONLY, DEBUGGING
216 .debug_macro  00000050  0000000000000000  0000000000000000  000170f9  2**0
                  CONTENTS, RELOC, READONLY, DEBUGGING
217 .debug_macro  00000019  0000000000000000  0000000000000000  00017149  2**0
                  CONTENTS, RELOC, READONLY, DEBUGGING
218 .debug_macro  00000011  0000000000000000  0000000000000000  00017162  2**0
                  CONTENTS, RELOC, READONLY, DEBUGGING
219 .debug_macro  0000014b  0000000000000000  0000000000000000  00017173  2**0
                  CONTENTS, RELOC, READONLY, DEBUGGING
220 .debug_macro  0000001e  0000000000000000  0000000000000000  000172be  2**0
                  CONTENTS, RELOC, READONLY, DEBUGGING
221 .debug_macro  0000001c  0000000000000000  0000000000000000  000172dc  2**0
                  CONTENTS, RELOC, READONLY, DEBUGGING
222 .debug_macro  00000024  0000000000000000  0000000000000000  000172f8  2**0
                  CONTENTS, RELOC, READONLY, DEBUGGING
223 .debug_macro  00000016  0000000000000000  0000000000000000  0001731c  2**0
                  CONTENTS, RELOC, READONLY, DEBUGGING
224 .debug_macro  00000018  0000000000000000  0000000000000000  00017332  2**0
                  CONTENTS, RELOC, READONLY, DEBUGGING
225 .debug_macro  00000019  0000000000000000  0000000000000000  0001734a  2**0
                  CONTENTS, RELOC, READONLY, DEBUGGING
226 .debug_macro  00000058  0000000000000000  0000000000000000  00017363  2**0
                  CONTENTS, RELOC, READONLY, DEBUGGING
227 .debug_macro  00000016  0000000000000000  0000000000000000  000173bb  2**0
                  CONTENTS, RELOC, READONLY, DEBUGGING
228 .debug_macro  0000001c  0000000000000000  0000000000000000  000173d1  2**0
                  CONTENTS, RELOC, READONLY, DEBUGGING
229 .debug_macro  00000016  0000000000000000  0000000000000000  000173ed  2**0
                  CONTENTS, RELOC, READONLY, DEBUGGING
230 .debug_macro  00000022  0000000000000000  0000000000000000  00017403  2**0
                  CONTENTS, RELOC, READONLY, DEBUGGING
231 .debug_macro  00000043  0000000000000000  0000000000000000  00017425  2**0
                  CONTENTS, RELOC, READONLY, DEBUGGING
232 .debug_macro  0000003c  0000000000000000  0000000000000000  00017468  2**0
                  CONTENTS, RELOC, READONLY, DEBUGGING
233 .debug_macro  00000173  0000000000000000  0000000000000000  000174a4  2**0
                  CONTENTS, RELOC, READONLY, DEBUGGING
234 .debug_macro  00000012  0000000000000000  0000000000000000  00017617  2**0
                  CONTENTS, RELOC, READONLY, DEBUGGING
235 .debug_macro  00000010  0000000000000000  0000000000000000  00017629  2**0
                  CONTENTS, RELOC, READONLY, DEBUGGING
236 .debug_macro  00000058  0000000000000000  0000000000000000  00017639  2**0
                  CONTENTS, RELOC, READONLY, DEBUGGING
237 .debug_macro  000000b4  0000000000000000  0000000000000000  00017691  2**0
                  CONTENTS, RELOC, READONLY, DEBUGGING
238 .debug_macro  00000016  0000000000000000  0000000000000000  00017745  2**0
                  CONTENTS, RELOC, READONLY, DEBUGGING
239 .debug_macro  00000010  0000000000000000  0000000000000000  0001775b  2**0
                  CONTENTS, RELOC, READONLY, DEBUGGING
240 .debug_macro  00000037  0000000000000000  0000000000000000  0001776b  2**0
                  CONTENTS, RELOC, READONLY, DEBUGGING
241 .debug_macro  00000058  0000000000000000  0000000000000000  000177a2  2**0
                  CONTENTS, RELOC, READONLY, DEBUGGING
242 .debug_macro  00000011  0000000000000000  0000000000000000  000177fa  2**0
                  CONTENTS, RELOC, READONLY, DEBUGGING
243 .debug_macro  00000016  0000000000000000  0000000000000000  0001780b  2**0
                  CONTENTS, RELOC, READONLY, DEBUGGING
244 .debug_macro  00000010  0000000000000000  0000000000000000  00017821  2**0
                  CONTENTS, RELOC, READONLY, DEBUGGING
245 .debug_macro  00000010  0000000000000000  0000000000000000  00017831  2**0
                  CONTENTS, RELOC, READONLY, DEBUGGING
246 .debug_macro  00000022  0000000000000000  0000000000000000  00017841  2**0
                  CONTENTS, RELOC, READONLY, DEBUGGING
247 .debug_macro  00000122  0000000000000000  0000000000000000  00017863  2**0
                  CONTENTS, RELOC, READONLY, DEBUGGING
248 .debug_macro  0000008e  0000000000000000  0000000000000000  00017985  2**0
                  CONTENTS, RELOC, READONLY, DEBUGGING
249 .debug_macro  00000016  0000000000000000  0000000000000000  00017a13  2**0
                  CONTENTS, RELOC, READONLY, DEBUGGING
250 .debug_macro  00000058  0000000000000000  0000000000000000  00017a29  2**0
                  CONTENTS, RELOC, READONLY, DEBUGGING
251 .debug_macro  000000fa  0000000000000000  0000000000000000  00017a81  2**0
                  CONTENTS, RELOC, READONLY, DEBUGGING
252 .debug_macro  00000030  0000000000000000  0000000000000000  00017b7b  2**0
                  CONTENTS, RELOC, READONLY, DEBUGGING
253 .debug_macro  000000c1  0000000000000000  0000000000000000  00017bab  2**0
                  CONTENTS, RELOC, READONLY, DEBUGGING
254 .debug_macro  0000004d  0000000000000000  0000000000000000  00017c6c  2**0
                  CONTENTS, RELOC, READONLY, DEBUGGING
255 .debug_macro  00000010  0000000000000000  0000000000000000  00017cb9  2**0
                  CONTENTS, RELOC, READONLY, DEBUGGING
256 .debug_macro  00000019  0000000000000000  0000000000000000  00017cc9  2**0
                  CONTENTS, RELOC, READONLY, DEBUGGING
257 .debug_macro  00000020  0000000000000000  0000000000000000  00017ce2  2**0
                  CONTENTS, RELOC, READONLY, DEBUGGING
258 .debug_macro  000000fc  0000000000000000  0000000000000000  00017d02  2**0
                  CONTENTS, RELOC, READONLY, DEBUGGING
259 .debug_macro  00000018  0000000000000000  0000000000000000  00017dfe  2**0
                  CONTENTS, RELOC, READONLY, DEBUGGING
260 .debug_macro  00000023  0000000000000000  0000000000000000  00017e16  2**0
                  CONTENTS, RELOC, READONLY, DEBUGGING
261 .debug_macro  00000010  0000000000000000  0000000000000000  00017e39  2**0
                  CONTENTS, RELOC, READONLY, DEBUGGING
262 .debug_macro  00000016  0000000000000000  0000000000000000  00017e49  2**0
                  CONTENTS, RELOC, READONLY, DEBUGGING
263 .debug_macro  00000076  0000000000000000  0000000000000000  00017e5f  2**0
                  CONTENTS, RELOC, READONLY, DEBUGGING
264 .debug_macro  00000016  0000000000000000  0000000000000000  00017ed5  2**0
                  CONTENTS, RELOC, READONLY, DEBUGGING
265 .debug_macro  00000025  0000000000000000  0000000000000000  00017eeb  2**0
                  CONTENTS, RELOC, READONLY, DEBUGGING
266 .debug_macro  000000de  0000000000000000  0000000000000000  00017f10  2**0
                  CONTENTS, RELOC, READONLY, DEBUGGING
267 .debug_macro  0000001c  0000000000000000  0000000000000000  00017fee  2**0
                  CONTENTS, RELOC, READONLY, DEBUGGING
268 .debug_macro  00000058  0000000000000000  0000000000000000  0001800a  2**0
                  CONTENTS, RELOC, READONLY, DEBUGGING
269 .debug_macro  00000088  0000000000000000  0000000000000000  00018062  2**0
                  CONTENTS, RELOC, READONLY, DEBUGGING
270 .debug_macro  00000076  0000000000000000  0000000000000000  000180ea  2**0
                  CONTENTS, RELOC, READONLY, DEBUGGING
271 .debug_macro  00000010  0000000000000000  0000000000000000  00018160  2**0
                  CONTENTS, RELOC, READONLY, DEBUGGING
272 .debug_macro  00000041  0000000000000000  0000000000000000  00018170  2**0
                  CONTENTS, RELOC, READONLY, DEBUGGING
273 .debug_macro  000000ee  0000000000000000  0000000000000000  000181b1  2**0
                  CONTENTS, RELOC, READONLY, DEBUGGING
274 .debug_macro  00000010  0000000000000000  0000000000000000  0001829f  2**0
                  CONTENTS, RELOC, READONLY, DEBUGGING
275 .debug_macro  000000e5  0000000000000000  0000000000000000  000182af  2**0
                  CONTENTS, RELOC, READONLY, DEBUGGING
276 .debug_macro  00000012  0000000000000000  0000000000000000  00018394  2**0
                  CONTENTS, RELOC, READONLY, DEBUGGING
277 .debug_macro  0000001f  0000000000000000  0000000000000000  000183a6  2**0
                  CONTENTS, RELOC, READONLY, DEBUGGING
278 .debug_macro  00000016  0000000000000000  0000000000000000  000183c5  2**0
                  CONTENTS, RELOC, READONLY, DEBUGGING
279 .debug_macro  00000010  0000000000000000  0000000000000000  000183db  2**0
                  CONTENTS, RELOC, READONLY, DEBUGGING
280 .debug_line   00000fe0  0000000000000000  0000000000000000  000183eb  2**0
                  CONTENTS, RELOC, READONLY, DEBUGGING
281 .debug_str    0002afec  0000000000000000  0000000000000000  000193cb  2**0
                  CONTENTS, READONLY, DEBUGGING
282 .data.DW.ref.__gxx_personality_v0 00000008  0000000000000000  0000000000000000  000443b8  2**3
                  CONTENTS, ALLOC, LOAD, RELOC, DATA
283 .comment      0000002e  0000000000000000  0000000000000000  000443c0  2**0
                  CONTENTS, READONLY
284 .note.GNU-stack 00000000  0000000000000000  0000000000000000  000443ee  2**0
                  CONTENTS, READONLY
285 .eh_frame     00000268  0000000000000000  0000000000000000  000443f0  2**3
                  CONTENTS, ALLOC, LOAD, RELOC, READONLY, DATA

Дизассемблирование раздела .text:

0000000000000000 <_ZN8variableC1Ev>:
#include "a.h"

#include <QApplication>
#include <QDataStream>

variable::variable()
   0:	55                   	push   %rbp
   1:	48 89 e5             	mov    %rsp,%rbp
   4:	48 83 ec 10          	sub    $0x10,%rsp
   8:	48 89 7d f8          	mov    %rdi,-0x8(%rbp)
   c:	48 8b 45 f8          	mov    -0x8(%rbp),%rax
  10:	48 83 c0 02          	add    $0x2,%rax
  14:	48 89 c7             	mov    %rax,%rdi
  17:	e8 00 00 00 00       	callq  1c <_ZN8variableC1Ev+0x1c>
  1c:	48 8b 45 f8          	mov    -0x8(%rbp),%rax
  20:	48 83 c0 10          	add    $0x10,%rax
  24:	48 89 c7             	mov    %rax,%rdi
  27:	e8 00 00 00 00       	callq  2c <_ZN8variableC1Ev+0x2c>
{

}
  2c:	90                   	nop
  2d:	c9                   	leaveq 
  2e:	c3                   	retq   
  2f:	90                   	nop

0000000000000030 <_ZN8variable2A6Ev>:

QByteArray variable::A6(){
  30:	55                   	push   %rbp
  31:	48 89 e5             	mov    %rsp,%rbp
  34:	41 57                	push   %r15
  36:	41 56                	push   %r14
  38:	41 55                	push   %r13
  3a:	41 54                	push   %r12
  3c:	53                   	push   %rbx
  3d:	48 83 ec 58          	sub    $0x58,%rsp
  41:	48 89 7d 88          	mov    %rdi,-0x78(%rbp)
  45:	48 89 75 80          	mov    %rsi,-0x80(%rbp)
  49:	64 48 8b 04 25 28 00 	mov    %fs:0x28,%rax
  50:	00 00 
  52:	48 89 45 c8          	mov    %rax,-0x38(%rbp)
  56:	31 c0                	xor    %eax,%eax
    QByteArray      result;
  58:	48 8b 45 88          	mov    -0x78(%rbp),%rax
  5c:	48 89 c7             	mov    %rax,%rdi
  5f:	e8 00 00 00 00       	callq  64 <_ZN8variable2A6Ev+0x34>
    QDataStream     Raskalov(&result, QIODevice::WriteOnly);
  64:	48 8d 45 90          	lea    -0x70(%rbp),%rax
  68:	be 02 00 00 00       	mov    $0x2,%esi
  6d:	48 89 c7             	mov    %rax,%rdi
  70:	e8 00 00 00 00       	callq  75 <_ZN8variable2A6Ev+0x45>
  75:	8b 55 90             	mov    -0x70(%rbp),%edx
  78:	48 8b 4d 88          	mov    -0x78(%rbp),%rcx
  7c:	48 8d 45 a0          	lea    -0x60(%rbp),%rax
  80:	48 89 ce             	mov    %rcx,%rsi
  83:	48 89 c7             	mov    %rax,%rdi
  86:	e8 00 00 00 00       	callq  8b <_ZN8variable2A6Ev+0x5b>
    Raskalov << this->index << this->assign << this->VP.indexRP
                              << this->VP.eventSET
                              << this->VP.eventZERO
                              << this->VP.eventCHANGE;
  8b:	48 8b 45 80          	mov    -0x80(%rbp),%rax
  8f:	0f b7 40 08          	movzwl 0x8(%rax),%eax
  93:	0f b7 d8             	movzwl %ax,%ebx
QByteArray variable::A6(){
    QByteArray      result;
    QDataStream     Raskalov(&result, QIODevice::WriteOnly);
    Raskalov << this->index << this->assign << this->VP.indexRP
                              << this->VP.eventSET
                              << this->VP.eventZERO
  96:	48 8b 45 80          	mov    -0x80(%rbp),%rax
  9a:	0f b7 40 06          	movzwl 0x6(%rax),%eax
  9e:	44 0f b7 e0          	movzwl %ax,%r12d

QByteArray variable::A6(){
    QByteArray      result;
    QDataStream     Raskalov(&result, QIODevice::WriteOnly);
    Raskalov << this->index << this->assign << this->VP.indexRP
                              << this->VP.eventSET
  a2:	48 8b 45 80          	mov    -0x80(%rbp),%rax
  a6:	0f b7 40 04          	movzwl 0x4(%rax),%eax
  aa:	44 0f b7 e8          	movzwl %ax,%r13d
}

QByteArray variable::A6(){
    QByteArray      result;
    QDataStream     Raskalov(&result, QIODevice::WriteOnly);
    Raskalov << this->index << this->assign << this->VP.indexRP
  ae:	48 8b 45 80          	mov    -0x80(%rbp),%rax
  b2:	0f b7 40 02          	movzwl 0x2(%rax),%eax
  b6:	44 0f b7 f0          	movzwl %ax,%r14d
  ba:	48 8b 45 80          	mov    -0x80(%rbp),%rax
  be:	0f b6 40 01          	movzbl 0x1(%rax),%eax
  c2:	44 0f b6 f8          	movzbl %al,%r15d
  c6:	48 8b 45 80          	mov    -0x80(%rbp),%rax
  ca:	0f b6 00             	movzbl (%rax),%eax
  cd:	0f b6 d0             	movzbl %al,%edx
  d0:	48 8d 45 a0          	lea    -0x60(%rbp),%rax
  d4:	89 d6                	mov    %edx,%esi
  d6:	48 89 c7             	mov    %rax,%rdi
  d9:	e8 00 00 00 00       	callq  de <_ZN8variable2A6Ev+0xae>
  de:	44 89 fe             	mov    %r15d,%esi
  e1:	48 89 c7             	mov    %rax,%rdi
  e4:	e8 00 00 00 00       	callq  e9 <_ZN8variable2A6Ev+0xb9>
  e9:	44 89 f6             	mov    %r14d,%esi
  ec:	48 89 c7             	mov    %rax,%rdi
  ef:	e8 00 00 00 00       	callq  f4 <_ZN8variable2A6Ev+0xc4>
                              << this->VP.eventSET
  f4:	44 89 ee             	mov    %r13d,%esi
  f7:	48 89 c7             	mov    %rax,%rdi
  fa:	e8 00 00 00 00       	callq  ff <_ZN8variable2A6Ev+0xcf>
                              << this->VP.eventZERO
  ff:	44 89 e6             	mov    %r12d,%esi
 102:	48 89 c7             	mov    %rax,%rdi
 105:	e8 00 00 00 00       	callq  10a <_ZN8variable2A6Ev+0xda>
                              << this->VP.eventCHANGE;
 10a:	89 de                	mov    %ebx,%esi
 10c:	48 89 c7             	mov    %rax,%rdi
 10f:	e8 00 00 00 00       	callq  114 <_ZN8variable2A6Ev+0xe4>
    return result;
 114:	90                   	nop

}

QByteArray variable::A6(){
    QByteArray      result;
    QDataStream     Raskalov(&result, QIODevice::WriteOnly);
 115:	48 8d 45 a0          	lea    -0x60(%rbp),%rax
 119:	48 89 c7             	mov    %rax,%rdi
 11c:	e8 00 00 00 00       	callq  121 <_ZN8variable2A6Ev+0xf1>
    Raskalov << this->index << this->assign << this->VP.indexRP
                              << this->VP.eventSET
                              << this->VP.eventZERO
                              << this->VP.eventCHANGE;
    return result;
 121:	eb 2b                	jmp    14e <_ZN8variable2A6Ev+0x11e>
 123:	48 89 c3             	mov    %rax,%rbx

}

QByteArray variable::A6(){
    QByteArray      result;
    QDataStream     Raskalov(&result, QIODevice::WriteOnly);
 126:	48 8d 45 a0          	lea    -0x60(%rbp),%rax
 12a:	48 89 c7             	mov    %rax,%rdi
 12d:	e8 00 00 00 00       	callq  132 <_ZN8variable2A6Ev+0x102>
 132:	eb 03                	jmp    137 <_ZN8variable2A6Ev+0x107>
 134:	48 89 c3             	mov    %rax,%rbx
 137:	48 8b 45 88          	mov    -0x78(%rbp),%rax
 13b:	48 89 c7             	mov    %rax,%rdi
 13e:	e8 00 00 00 00       	callq  143 <_ZN8variable2A6Ev+0x113>
 143:	48 89 d8             	mov    %rbx,%rax
 146:	48 89 c7             	mov    %rax,%rdi
 149:	e8 00 00 00 00       	callq  14e <_ZN8variable2A6Ev+0x11e>
    Raskalov << this->index << this->assign << this->VP.indexRP
                              << this->VP.eventSET
                              << this->VP.eventZERO
                              << this->VP.eventCHANGE;
    return result;
}
 14e:	48 8b 45 88          	mov    -0x78(%rbp),%rax
 152:	48 8b 4d c8          	mov    -0x38(%rbp),%rcx
 156:	64 48 33 0c 25 28 00 	xor    %fs:0x28,%rcx
 15d:	00 00 
 15f:	74 05                	je     166 <_ZN8variable2A6Ev+0x136>
 161:	e8 00 00 00 00       	callq  166 <_ZN8variable2A6Ev+0x136>
 166:	48 83 c4 58          	add    $0x58,%rsp
 16a:	5b                   	pop    %rbx
 16b:	41 5c                	pop    %r12
 16d:	41 5d                	pop    %r13
 16f:	41 5e                	pop    %r14
 171:	41 5f                	pop    %r15
 173:	5d                   	pop    %rbp
 174:	c3                   	retq   
 175:	90                   	nop

0000000000000176 <_ZN8variable8getIndexEv>:

void variable::getIndex(){
 176:	55                   	push   %rbp
 177:	48 89 e5             	mov    %rsp,%rbp
 17a:	48 89 7d f8          	mov    %rdi,-0x8(%rbp)
    // deprecated
}
 17e:	90                   	nop
 17f:	5d                   	pop    %rbp
 180:	c3                   	retq   

Дизассемблирование раздела .text._ZN9QtPrivate8RefCount5derefEv:

0000000000000000 <_ZN9QtPrivate8RefCount5derefEv>:
#include "a.h"

#include <QApplication>
#include <QDataStream>

variable::variable()
   0:	55                   	push   %rbp
   1:	48 89 e5             	mov    %rsp,%rbp
   4:	48 83 ec 20          	sub    $0x20,%rsp
   8:	48 89 7d e8          	mov    %rdi,-0x18(%rbp)
   c:	48 8b 45 e8          	mov    -0x18(%rbp),%rax
  10:	48 89 c7             	mov    %rax,%rdi
  13:	e8 00 00 00 00       	callq  18 <_ZN9QtPrivate8RefCount5derefEv+0x18>
  18:	89 45 fc             	mov    %eax,-0x4(%rbp)
  1b:	83 7d fc 00          	cmpl   $0x0,-0x4(%rbp)
  1f:	75 07                	jne    28 <_ZN9QtPrivate8RefCount5derefEv+0x28>
  21:	b8 00 00 00 00       	mov    $0x0,%eax
  26:	eb 19                	jmp    41 <_ZN9QtPrivate8RefCount5derefEv+0x41>
  28:	83 7d fc ff          	cmpl   $0xffffffff,-0x4(%rbp)
{

}
  2c:	75 07                	jne    35 <_ZN9QtPrivate8RefCount5derefEv+0x35>
  2e:	b8 01 00 00 00       	mov    $0x1,%eax

QByteArray variable::A6(){
  33:	eb 0c                	jmp    41 <_ZN9QtPrivate8RefCount5derefEv+0x41>
  35:	48 8b 45 e8          	mov    -0x18(%rbp),%rax
  39:	48 89 c7             	mov    %rax,%rdi
  3c:	e8 00 00 00 00       	callq  41 <_ZN9QtPrivate8RefCount5derefEv+0x41>
  41:	c9                   	leaveq 
  42:	c3                   	retq   

Дизассемблирование раздела .text._ZN10QArrayData10sharedNullEv:

0000000000000000 <_ZN10QArrayData10sharedNullEv>:
#include "a.h"

#include <QApplication>
#include <QDataStream>

variable::variable()
   0:	55                   	push   %rbp
   1:	48 89 e5             	mov    %rsp,%rbp
   4:	48 8b 05 00 00 00 00 	mov    0x0(%rip),%rax        # b <_ZN10QArrayData10sharedNullEv+0xb>
   b:	5d                   	pop    %rbp
   c:	c3                   	retq   

Дизассемблирование раздела .text._ZN10QByteArrayC2Ev:

0000000000000000 <_ZN10QByteArrayC1Ev>:
   0:	55                   	push   %rbp
   1:	48 89 e5             	mov    %rsp,%rbp
   4:	48 83 ec 10          	sub    $0x10,%rsp
   8:	48 89 7d f8          	mov    %rdi,-0x8(%rbp)
   c:	e8 00 00 00 00       	callq  11 <_ZN10QByteArrayC1Ev+0x11>
  11:	48 89 c2             	mov    %rax,%rdx
  14:	48 8b 45 f8          	mov    -0x8(%rbp),%rax
  18:	48 89 10             	mov    %rdx,(%rax)
  1b:	90                   	nop
  1c:	c9                   	leaveq 
  1d:	c3                   	retq   

Дизассемблирование раздела .text._ZN10QByteArrayD2Ev:

0000000000000000 <_ZN10QByteArrayD1Ev>:
   0:	55                   	push   %rbp
   1:	48 89 e5             	mov    %rsp,%rbp
   4:	48 83 ec 10          	sub    $0x10,%rsp
   8:	48 89 7d f8          	mov    %rdi,-0x8(%rbp)
   c:	48 8b 45 f8          	mov    -0x8(%rbp),%rax
  10:	48 8b 00             	mov    (%rax),%rax
  13:	48 89 c7             	mov    %rax,%rdi
  16:	e8 00 00 00 00       	callq  1b <_ZN10QByteArrayD1Ev+0x1b>
  1b:	83 f0 01             	xor    $0x1,%eax
  1e:	84 c0                	test   %al,%al
  20:	74 0f                	je     31 <_ZN10QByteArrayD1Ev+0x31>
  22:	48 8b 45 f8          	mov    -0x8(%rbp),%rax
  26:	48 8b 00             	mov    (%rax),%rax
  29:	48 89 c7             	mov    %rax,%rdi
{

}
  2c:	e8 00 00 00 00       	callq  31 <_ZN10QByteArrayD1Ev+0x31>

QByteArray variable::A6(){
  31:	90                   	nop
  32:	c9                   	leaveq 
  33:	c3                   	retq   

Дизассемблирование раздела .text._ZN7QStringC2Ev:

0000000000000000 <_ZN7QStringC1Ev>:
#include "a.h"

#include <QApplication>
#include <QDataStream>

variable::variable()
   0:	55                   	push   %rbp
   1:	48 89 e5             	mov    %rsp,%rbp
   4:	48 83 ec 10          	sub    $0x10,%rsp
   8:	48 89 7d f8          	mov    %rdi,-0x8(%rbp)
   c:	e8 00 00 00 00       	callq  11 <_ZN7QStringC1Ev+0x11>
  11:	48 89 c2             	mov    %rax,%rdx
  14:	48 8b 45 f8          	mov    -0x8(%rbp),%rax
  18:	48 89 10             	mov    %rdx,(%rax)
  1b:	90                   	nop
  1c:	c9                   	leaveq 
  1d:	c3                   	retq   

Дизассемблирование раздела .text._ZN11QDataStreamlsEh:

0000000000000000 <_ZN11QDataStreamlsEh>:
   0:	55                   	push   %rbp
   1:	48 89 e5             	mov    %rsp,%rbp
   4:	48 83 ec 10          	sub    $0x10,%rsp
   8:	48 89 7d f8          	mov    %rdi,-0x8(%rbp)
   c:	89 f0                	mov    %esi,%eax
   e:	88 45 f4             	mov    %al,-0xc(%rbp)
  11:	0f b6 45 f4          	movzbl -0xc(%rbp),%eax
  15:	0f be d0             	movsbl %al,%edx
  18:	48 8b 45 f8          	mov    -0x8(%rbp),%rax
  1c:	89 d6                	mov    %edx,%esi
  1e:	48 89 c7             	mov    %rax,%rdi
  21:	e8 00 00 00 00       	callq  26 <_ZN11QDataStreamlsEh+0x26>
  26:	c9                   	leaveq 
  27:	c3                   	retq   

Дизассемблирование раздела .text._ZN11QDataStreamlsEt:

0000000000000000 <_ZN11QDataStreamlsEt>:
   0:	55                   	push   %rbp
   1:	48 89 e5             	mov    %rsp,%rbp
   4:	48 83 ec 10          	sub    $0x10,%rsp
   8:	48 89 7d f8          	mov    %rdi,-0x8(%rbp)
   c:	89 f0                	mov    %esi,%eax
   e:	66 89 45 f4          	mov    %ax,-0xc(%rbp)
  12:	0f b7 45 f4          	movzwl -0xc(%rbp),%eax
  16:	0f bf d0             	movswl %ax,%edx
  19:	48 8b 45 f8          	mov    -0x8(%rbp),%rax
  1d:	89 d6                	mov    %edx,%esi
  1f:	48 89 c7             	mov    %rax,%rdi
  22:	e8 00 00 00 00       	callq  27 <_ZN11QDataStreamlsEt+0x27>
  27:	c9                   	leaveq 
  28:	c3                   	retq   

Дизассемблирование раздела .text._ZNK19QBasicAtomicIntegerIiE4loadEv:

0000000000000000 <_ZNK19QBasicAtomicIntegerIiE4loadEv>:
   0:	55                   	push   %rbp
   1:	48 89 e5             	mov    %rsp,%rbp
   4:	48 89 7d e8          	mov    %rdi,-0x18(%rbp)
   8:	48 8b 45 e8          	mov    -0x18(%rbp),%rax
   c:	48 89 45 f8          	mov    %rax,-0x8(%rbp)
  10:	48 8b 45 f8          	mov    -0x8(%rbp),%rax
  14:	8b 00                	mov    (%rax),%eax
  16:	90                   	nop
  17:	5d                   	pop    %rbp
  18:	c3                   	retq   

Дизассемблирование раздела .text._ZN19QBasicAtomicIntegerIiE5derefEv:

0000000000000000 <_ZN19QBasicAtomicIntegerIiE5derefEv>:
   0:	55                   	push   %rbp
   1:	48 89 e5             	mov    %rsp,%rbp
   4:	48 83 ec 10          	sub    $0x10,%rsp
   8:	48 89 7d f8          	mov    %rdi,-0x8(%rbp)
   c:	48 8b 45 f8          	mov    -0x8(%rbp),%rax
  10:	48 89 c7             	mov    %rax,%rdi
  13:	e8 00 00 00 00       	callq  18 <_ZN19QBasicAtomicIntegerIiE5derefEv+0x18>
  18:	c9                   	leaveq 
  19:	c3                   	retq   

Дизассемблирование раздела .text._ZN15QTypedArrayDataIcE10sharedNullEv:

0000000000000000 <_ZN15QTypedArrayDataIcE10sharedNullEv>:
   0:	55                   	push   %rbp
   1:	48 89 e5             	mov    %rsp,%rbp
   4:	e8 00 00 00 00       	callq  9 <_ZN15QTypedArrayDataIcE10sharedNullEv+0x9>
   9:	5d                   	pop    %rbp
   a:	c3                   	retq   

Дизассемблирование раздела .text._ZN15QTypedArrayDataIcE10deallocateEP10QArrayData:

0000000000000000 <_ZN15QTypedArrayDataIcE10deallocateEP10QArrayData>:
   0:	55                   	push   %rbp
   1:	48 89 e5             	mov    %rsp,%rbp
   4:	48 83 ec 10          	sub    $0x10,%rsp
   8:	48 89 7d f8          	mov    %rdi,-0x8(%rbp)
   c:	48 8b 45 f8          	mov    -0x8(%rbp),%rax
  10:	ba 08 00 00 00       	mov    $0x8,%edx
  15:	be 01 00 00 00       	mov    $0x1,%esi
  1a:	48 89 c7             	mov    %rax,%rdi
  1d:	e8 00 00 00 00       	callq  22 <_ZN15QTypedArrayDataIcE10deallocateEP10QArrayData+0x22>
  22:	90                   	nop
  23:	c9                   	leaveq 
  24:	c3                   	retq   

Дизассемблирование раздела .text._ZN15QTypedArrayDataItE10sharedNullEv:

0000000000000000 <_ZN15QTypedArrayDataItE10sharedNullEv>:
   0:	55                   	push   %rbp
   1:	48 89 e5             	mov    %rsp,%rbp
   4:	e8 00 00 00 00       	callq  9 <_ZN15QTypedArrayDataItE10sharedNullEv+0x9>
   9:	5d                   	pop    %rbp
   a:	c3                   	retq   

Дизассемблирование раздела .text._ZN6QFlagsIN9QIODevice12OpenModeFlagEEC2ES1_:

0000000000000000 <_ZN6QFlagsIN9QIODevice12OpenModeFlagEEC1ES1_>:
   0:	55                   	push   %rbp
   1:	48 89 e5             	mov    %rsp,%rbp
   4:	48 89 7d f8          	mov    %rdi,-0x8(%rbp)
   8:	89 75 f4             	mov    %esi,-0xc(%rbp)
   b:	8b 55 f4             	mov    -0xc(%rbp),%edx
   e:	48 8b 45 f8          	mov    -0x8(%rbp),%rax
  12:	89 10                	mov    %edx,(%rax)
  14:	90                   	nop
  15:	5d                   	pop    %rbp
  16:	c3                   	retq   

Дизассемблирование раздела .text._ZN15QBasicAtomicOpsILi4EE5derefIiEEbRT_:

0000000000000000 <_ZN15QBasicAtomicOpsILi4EE5derefIiEEbRT_>:
   0:	55                   	push   %rbp
   1:	48 89 e5             	mov    %rsp,%rbp
   4:	48 89 7d e8          	mov    %rdi,-0x18(%rbp)
   8:	48 8b 45 e8          	mov    -0x18(%rbp),%rax
   c:	48 8b 55 e8          	mov    -0x18(%rbp),%rdx
  10:	f0 83 28 01          	lock subl $0x1,(%rax)
  14:	0f 95 c2             	setne  %dl
  17:	88 55 ff             	mov    %dl,-0x1(%rbp)
  1a:	80 7d ff 00          	cmpb   $0x0,-0x1(%rbp)
  1e:	0f 95 c0             	setne  %al
  21:	5d                   	pop    %rbp
  22:	c3                   	retq   
